---
triple:          'x86_64-apple-darwin'
binary-path:     grade.out
relocations:
  - { offset: 0x53, size: 0x8, addend: 0x0, symName: __ZL18DOCTEST_ANON_VAR_0, symObjAddr: 0x221F30, symBinAddr: 0x10005F270, symSize: 0x0 }
  - { offset: 0x7E, size: 0x8, addend: 0x0, symName: __ZN7doctest18is_running_in_testE, symObjAddr: 0x222570, symBinAddr: 0x10005F8B0, symSize: 0x0 }
  - { offset: 0x9D, size: 0x8, addend: 0x0, symName: __ZN7doctest6detail5g_ossE, symObjAddr: 0x4A360, symBinAddr: 0x10005F070, symSize: 0x0 }
  - { offset: 0x120, size: 0x8, addend: 0x0, symName: __ZN7doctest6detail4g_csE, symObjAddr: 0x222578, symBinAddr: 0x10005F8B8, symSize: 0x0 }
  - { offset: 0x603, size: 0x8, addend: 0x0, symName: __ZN7doctest6detail11g_no_colorsE, symObjAddr: 0x4A378, symBinAddr: 0x10005F088, symSize: 0x0 }
  - { offset: 0x611, size: 0x8, addend: 0x0, symName: __ZN7doctest6detail18getRegisteredTestsEv, symObjAddr: 0x5920, symBinAddr: 0x100006FE0, symSize: 0x70 }
  - { offset: 0x63C, size: 0x8, addend: 0x0, symName: __ZZN7doctest6detail18getRegisteredTestsEvE4data, symObjAddr: 0x221F60, symBinAddr: 0x10005F2A0, symSize: 0x0 }
  - { offset: 0x653, size: 0x8, addend: 0x0, symName: __ZN7doctest6detail14g_infoContextsE, symObjAddr: 0x4A390, symBinAddr: 0x10005F0A0, symSize: 0x0 }
  - { offset: 0x7CE, size: 0x8, addend: 0x0, symName: __ZN7doctest6detailL7consumeEPKii, symObjAddr: 0x0, symBinAddr: 0x1000016C0, symSize: 0x10 }
  - { offset: 0x803, size: 0x8, addend: 0x0, symName: __ZN7doctest6detail12setTestSuiteERKNS0_9TestSuiteE, symObjAddr: 0x10, symBinAddr: 0x1000016D0, symSize: 0x40 }
  - { offset: 0x831, size: 0x8, addend: 0x0, symName: __ZN7doctest6detail8tlssPushEv, symObjAddr: 0x430, symBinAddr: 0x100001AF0, symSize: 0x20 }
  - { offset: 0x84F, size: 0x8, addend: 0x0, symName: __ZN7doctest6detail7tlssPopEv, symObjAddr: 0x540, symBinAddr: 0x100001C00, symSize: 0x40 }
  - { offset: 0x86D, size: 0x8, addend: 0x0, symName: __ZN7doctest6detail15getCurrentTicksEv, symObjAddr: 0x7B0, symBinAddr: 0x100001E70, symSize: 0x30 }
  - { offset: 0x8C6, size: 0x8, addend: 0x0, symName: __ZN7doctest6detail11toStreamLitIfEENS_6StringET_, symObjAddr: 0x2880, symBinAddr: 0x100003F40, symSize: 0x50 }
  - { offset: 0x90C, size: 0x8, addend: 0x0, symName: __ZN7doctest6detail11toStreamLitIdEENS_6StringET_, symObjAddr: 0x2900, symBinAddr: 0x100003FC0, symSize: 0x50 }
  - { offset: 0x952, size: 0x8, addend: 0x0, symName: __ZN7doctest6detail11toStreamLitIeEENS_6StringET_, symObjAddr: 0x2980, symBinAddr: 0x100004040, symSize: 0x50 }
  - { offset: 0x998, size: 0x8, addend: 0x0, symName: __ZN7doctest6detail11toStreamLitIiEENS_6StringET_, symObjAddr: 0x2A00, symBinAddr: 0x1000040C0, symSize: 0x50 }
  - { offset: 0x9DE, size: 0x8, addend: 0x0, symName: __ZN7doctest6detail11toStreamLitIjEENS_6StringET_, symObjAddr: 0x2AB0, symBinAddr: 0x100004170, symSize: 0x50 }
  - { offset: 0xA24, size: 0x8, addend: 0x0, symName: __ZN7doctest6detail11toStreamLitIsEENS_6StringET_, symObjAddr: 0x2B30, symBinAddr: 0x1000041F0, symSize: 0x50 }
  - { offset: 0xA6A, size: 0x8, addend: 0x0, symName: __ZN7doctest6detail11toStreamLitItEENS_6StringET_, symObjAddr: 0x2BB0, symBinAddr: 0x100004270, symSize: 0x50 }
  - { offset: 0xAB0, size: 0x8, addend: 0x0, symName: __ZN7doctest6detail11toStreamLitIlEENS_6StringET_, symObjAddr: 0x2C90, symBinAddr: 0x100004350, symSize: 0x50 }
  - { offset: 0xAF6, size: 0x8, addend: 0x0, symName: __ZN7doctest6detail11toStreamLitImEENS_6StringET_, symObjAddr: 0x2D10, symBinAddr: 0x1000043D0, symSize: 0x50 }
  - { offset: 0xB3C, size: 0x8, addend: 0x0, symName: __ZN7doctest6detail11toStreamLitIxEENS_6StringET_, symObjAddr: 0x2D90, symBinAddr: 0x100004450, symSize: 0x50 }
  - { offset: 0xB82, size: 0x8, addend: 0x0, symName: __ZN7doctest6detail11toStreamLitIyEENS_6StringET_, symObjAddr: 0x2E10, symBinAddr: 0x1000044D0, symSize: 0x50 }
  - { offset: 0xBC8, size: 0x8, addend: 0x0, symName: __ZN7doctest6detail18checkIfShouldThrowENS_10assertType4EnumE, symObjAddr: 0x3DC0, symBinAddr: 0x100005480, symSize: 0xA0 }
  - { offset: 0xBF6, size: 0x8, addend: 0x0, symName: __ZN7doctest6detail14throwExceptionEv, symObjAddr: 0x3E80, symBinAddr: 0x100005540, symSize: 0x40 }
  - { offset: 0xCE9, size: 0x8, addend: 0x0, symName: __ZN7doctest6detail7regTestERKNS0_8TestCaseE, symObjAddr: 0x59D0, symBinAddr: 0x100007090, symSize: 0x30 }
  - { offset: 0xD17, size: 0x8, addend: 0x0, symName: __ZN7doctest6detail16isDebuggerActiveEv, symObjAddr: 0x5A40, symBinAddr: 0x100007100, symSize: 0xF0 }
  - { offset: 0xD65, size: 0x8, addend: 0x0, symName: __ZN7doctest6detail31registerExceptionTranslatorImplEPKNS0_20IExceptionTranslatorE, symObjAddr: 0x5B30, symBinAddr: 0x1000071F0, symSize: 0x90 }
  - { offset: 0xF0C, size: 0x8, addend: 0x0, symName: __ZN7doctest6detail31failed_out_of_a_testing_contextERKNS_10AssertDataE, symObjAddr: 0x7310, symBinAddr: 0x1000089D0, symSize: 0x50 }
  - { offset: 0xF36, size: 0x8, addend: 0x0, symName: __ZN7doctest6detail13decomp_assertENS_10assertType4EnumEPKciS4_RKNS0_6ResultE, symObjAddr: 0x73B0, symBinAddr: 0x100008A70, symSize: 0x450 }
  - { offset: 0x10B5, size: 0x8, addend: 0x0, symName: __ZN7doctest6detail20registerReporterImplEPKciPFPNS_9IReporterERKNS_14ContextOptionsEEb, symObjAddr: 0xEC40, symBinAddr: 0x100010300, symSize: 0x250 }
  - { offset: 0x11B1, size: 0x8, addend: 0x0, symName: __ZN7doctest6detail7forwardIKNSt3__112basic_stringIcNS2_11char_traitsIcEENS2_9allocatorIcEEEEEEOT_RNS2_16remove_referenceISA_E4typeE, symObjAddr: 0x2C900, symBinAddr: 0x10002DFC0, symSize: 0x10 }
  - { offset: 0x11E8, size: 0x8, addend: 0x0, symName: __ZN7doctest6detail7forwardIRNSt3__112basic_stringIcNS2_11char_traitsIcEENS2_9allocatorIcEEEEEEOT_RNS2_16remove_referenceISA_E4typeE, symObjAddr: 0x2C910, symBinAddr: 0x10002DFD0, symSize: 0x10 }
  - { offset: 0x121F, size: 0x8, addend: 0x0, symName: __ZN7doctest6detail19stringifyBinaryExprINSt3__112basic_stringIcNS2_11char_traitsIcEENS2_9allocatorIcEEEES8_EENS_6StringERKT_PKcRKT0_, symObjAddr: 0x2C920, symBinAddr: 0x10002DFE0, symSize: 0x1C0 }
  - { offset: 0x12B4, size: 0x8, addend: 0x0, symName: __ZN7doctest6detail8toStreamINSt3__112basic_stringIcNS2_11char_traitsIcEENS2_9allocatorIcEEEEEENS_6StringERKT_, symObjAddr: 0x2CB70, symBinAddr: 0x10002E230, symSize: 0x50 }
  - { offset: 0x12FA, size: 0x8, addend: 0x0, symName: __ZN7doctest6detail7fillossINSt3__112basic_stringIcNS2_11char_traitsIcEENS2_9allocatorIcEEEEEEvPNS2_13basic_ostreamIcS5_EERKT_, symObjAddr: 0x2CBC0, symBinAddr: 0x10002E280, symSize: 0x30 }
  - { offset: 0x1367, size: 0x8, addend: 0x0, symName: __ZN7doctest6detail15reporterCreatorINS_12_GLOBAL__N_111XmlReporterEEEPNS_9IReporterERKNS_14ContextOptionsE, symObjAddr: 0x317F0, symBinAddr: 0x100032EB0, symSize: 0x60 }
  - { offset: 0x139E, size: 0x8, addend: 0x0, symName: __ZN7doctest6detail15reporterCreatorINS_12_GLOBAL__N_113JUnitReporterEEEPNS_9IReporterERKNS_14ContextOptionsE, symObjAddr: 0x382B0, symBinAddr: 0x100039970, symSize: 0x60 }
  - { offset: 0x13D5, size: 0x8, addend: 0x0, symName: __ZN7doctest6detail15reporterCreatorINS_12_GLOBAL__N_115ConsoleReporterEEEPNS_9IReporterERKNS_14ContextOptionsE, symObjAddr: 0x3F7A0, symBinAddr: 0x100040E60, symSize: 0x60 }
  - { offset: 0x2357, size: 0x8, addend: 0x0, symName: __ZN7doctest12_GLOBAL__N_123DOCTEST_ANON_REPORTER_5E, symObjAddr: 0x221F80, symBinAddr: 0x10005F2C0, symSize: 0x0 }
  - { offset: 0x2371, size: 0x8, addend: 0x0, symName: __ZN7doctest12_GLOBAL__N_123DOCTEST_ANON_REPORTER_9E, symObjAddr: 0x221F84, symBinAddr: 0x10005F2C4, symSize: 0x0 }
  - { offset: 0x238B, size: 0x8, addend: 0x0, symName: __ZN7doctest12_GLOBAL__N_124DOCTEST_ANON_REPORTER_13E, symObjAddr: 0x221F88, symBinAddr: 0x10005F2C8, symSize: 0x0 }
  - { offset: 0x2398, size: 0x8, addend: 0x0, symName: __ZN7doctest12_GLOBAL__N_123getExceptionTranslatorsEv, symObjAddr: 0x5C70, symBinAddr: 0x100007330, symSize: 0x60 }
  - { offset: 0x23C3, size: 0x8, addend: 0x0, symName: __ZZN7doctest12_GLOBAL__N_123getExceptionTranslatorsEvE4data, symObjAddr: 0x222480, symBinAddr: 0x10005F7C0, symSize: 0x0 }
  - { offset: 0x23D3, size: 0x8, addend: 0x0, symName: __ZN7doctest12_GLOBAL__N_121FatalConditionHandler12altStackSizeE, symObjAddr: 0x4ACE8, symBinAddr: 0x10005F008, symSize: 0x0 }
  - { offset: 0x247F, size: 0x8, addend: 0x0, symName: __ZN7doctest12_GLOBAL__N_121FatalConditionHandler11altStackMemE, symObjAddr: 0x2224A0, symBinAddr: 0x10005F7E0, symSize: 0x0 }
  - { offset: 0x248C, size: 0x8, addend: 0x0, symName: __ZN7doctest12_GLOBAL__N_112getReportersEv, symObjAddr: 0xDA30, symBinAddr: 0x10000F0F0, symSize: 0x70 }
  - { offset: 0x24B7, size: 0x8, addend: 0x0, symName: __ZZN7doctest12_GLOBAL__N_112getReportersEvE4data, symObjAddr: 0x2224A8, symBinAddr: 0x10005F7E8, symSize: 0x0 }
  - { offset: 0x24CD, size: 0x8, addend: 0x0, symName: __ZN7doctest12_GLOBAL__N_112getListenersEv, symObjAddr: 0xDC10, symBinAddr: 0x10000F2D0, symSize: 0x70 }
  - { offset: 0x24F8, size: 0x8, addend: 0x0, symName: __ZZN7doctest12_GLOBAL__N_112getListenersEvE4data, symObjAddr: 0x2224C8, symBinAddr: 0x10005F808, symSize: 0x0 }
  - { offset: 0x2508, size: 0x8, addend: 0x0, symName: __ZN7doctest12_GLOBAL__N_121FatalConditionHandler5isSetE, symObjAddr: 0x2224E8, symBinAddr: 0x10005F828, symSize: 0x0 }
  - { offset: 0x251B, size: 0x8, addend: 0x0, symName: __ZN7doctest12_GLOBAL__N_121FatalConditionHandler11oldSigStackE, symObjAddr: 0x2224F0, symBinAddr: 0x10005F830, symSize: 0x0 }
  - { offset: 0x2535, size: 0x8, addend: 0x0, symName: __ZN7doctest12_GLOBAL__N_110signalDefsE, symObjAddr: 0x4ACF0, symBinAddr: 0x10005F010, symSize: 0x0 }
  - { offset: 0x256D, size: 0x8, addend: 0x0, symName: __ZN7doctest12_GLOBAL__N_121FatalConditionHandler13oldSigActionsE, symObjAddr: 0x222510, symBinAddr: 0x10005F850, symSize: 0x0 }
  - { offset: 0x2E35, size: 0x8, addend: 0x0, symName: __ZN7doctest12_GLOBAL__N_17stricmpEPKcS2_, symObjAddr: 0x1530, symBinAddr: 0x100002BF0, symSize: 0x80 }
  - { offset: 0x2E8F, size: 0x8, addend: 0x0, symName: __ZN7doctest12_GLOBAL__N_115color_to_streamERNSt3__113basic_ostreamIcNS1_11char_traitsIcEEEENS_5Color4EnumE, symObjAddr: 0x1C30, symBinAddr: 0x1000032F0, symSize: 0x1C0 }
  - { offset: 0x2ED7, size: 0x8, addend: 0x0, symName: __ZN7doctest12_GLOBAL__N_115throw_exceptionISt11logic_errorEEvRKT_, symObjAddr: 0x2460, symBinAddr: 0x100003B20, symSize: 0x40 }
  - { offset: 0x2F0A, size: 0x8, addend: 0x0, symName: __ZN7doctest12_GLOBAL__N_110matchesAnyEPKcRKNSt3__16vectorINS_6StringENS3_9allocatorIS5_EEEEbb, symObjAddr: 0x4030, symBinAddr: 0x1000056F0, symSize: 0xF0 }
  - { offset: 0x2FB4, size: 0x8, addend: 0x0, symName: __ZN7doctest12_GLOBAL__N_14hashEyy, symObjAddr: 0x48A0, symBinAddr: 0x100005F60, symSize: 0x20 }
  - { offset: 0x2FF1, size: 0x8, addend: 0x0, symName: __ZN7doctest12_GLOBAL__N_14hashERKNSt3__16vectorINS_16SubcaseSignatureENS1_9allocatorIS3_EEEEm, symObjAddr: 0x48C0, symBinAddr: 0x100005F80, symSize: 0xB0 }
  - { offset: 0x3069, size: 0x8, addend: 0x0, symName: __ZN7doctest12_GLOBAL__N_14hashERKNS_16SubcaseSignatureE, symObjAddr: 0x4970, symBinAddr: 0x100006030, symSize: 0x50 }
  - { offset: 0x3097, size: 0x8, addend: 0x0, symName: __ZN7doctest12_GLOBAL__N_14hashERKNSt3__16vectorINS_16SubcaseSignatureENS1_9allocatorIS3_EEEE, symObjAddr: 0x4FB0, symBinAddr: 0x100006670, symSize: 0xA0 }
  - { offset: 0x3123, size: 0x8, addend: 0x0, symName: __ZN7doctest12_GLOBAL__N_124translateActiveExceptionEv, symObjAddr: 0x69C0, symBinAddr: 0x100008080, symSize: 0x3A0 }
  - { offset: 0x31E1, size: 0x8, addend: 0x0, symName: __ZN7doctest12_GLOBAL__N_19addAssertENS_10assertType4EnumE, symObjAddr: 0x7290, symBinAddr: 0x100008950, symSize: 0x40 }
  - { offset: 0x320B, size: 0x8, addend: 0x0, symName: __ZN7doctest12_GLOBAL__N_115addFailedAssertENS_10assertType4EnumE, symObjAddr: 0x72D0, symBinAddr: 0x100008990, symSize: 0x40 }
  - { offset: 0x3235, size: 0x8, addend: 0x0, symName: __ZN7doctest12_GLOBAL__N_117parseCommaSepArgsEiPKPKcS2_RNSt3__16vectorINS_6StringENS5_9allocatorIS7_EEEE, symObjAddr: 0xABF0, symBinAddr: 0x10000C2B0, symSize: 0x360 }
  - { offset: 0x333E, size: 0x8, addend: 0x0, symName: __ZN7doctest12_GLOBAL__N_111parseOptionEiPKPKcS2_PNS_6StringERKS5_, symObjAddr: 0xAF50, symBinAddr: 0x10000C610, symSize: 0x90 }
  - { offset: 0x33A8, size: 0x8, addend: 0x0, symName: __ZN7doctest12_GLOBAL__N_114parseIntOptionEiPKPKcS2_NS0_10optionTypeERi, symObjAddr: 0xAFE0, symBinAddr: 0x10000C6A0, symSize: 0x340 }
  - { offset: 0x3490, size: 0x8, addend: 0x0, symName: __ZN7doctest12_GLOBAL__N_19parseFlagEiPKPKcS2_, symObjAddr: 0xB320, symBinAddr: 0x10000C9E0, symSize: 0xE0 }
  - { offset: 0x34DC, size: 0x8, addend: 0x0, symName: __ZN7doctest12_GLOBAL__N_119fileOrderComparatorEPKNS_6detail8TestCaseES4_, symObjAddr: 0xE230, symBinAddr: 0x10000F8F0, symSize: 0x90 }
  - { offset: 0x3528, size: 0x8, addend: 0x0, symName: __ZN7doctest12_GLOBAL__N_120suiteOrderComparatorEPKNS_6detail8TestCaseES4_, symObjAddr: 0xE2C0, symBinAddr: 0x10000F980, symSize: 0x70 }
  - { offset: 0x3574, size: 0x8, addend: 0x0, symName: __ZN7doctest12_GLOBAL__N_119nameOrderComparatorEPKNS_6detail8TestCaseES4_, symObjAddr: 0xE330, symBinAddr: 0x10000F9F0, symSize: 0x70 }
  - { offset: 0x35C0, size: 0x8, addend: 0x0, symName: __ZN7doctest12_GLOBAL__N_17wildcmpEPKcS2_b, symObjAddr: 0x13590, symBinAddr: 0x100014C50, symSize: 0x230 }
  - { offset: 0x362A, size: 0x8, addend: 0x0, symName: __ZN7doctest12_GLOBAL__N_14hashEPKc, symObjAddr: 0x15330, symBinAddr: 0x1000169F0, symSize: 0x50 }
  - { offset: 0x3676, size: 0x8, addend: 0x0, symName: __ZN7doctest12_GLOBAL__N_115parseOptionImplEiPKPKcS2_PNS_6StringE, symObjAddr: 0x1EF60, symBinAddr: 0x100020620, symSize: 0x1D0 }
  - { offset: 0x3769, size: 0x8, addend: 0x0, symName: __ZN7doctest12_GLOBAL__N_111reportFatalERKNSt3__112basic_stringIcNS1_11char_traitsIcEENS1_9allocatorIcEEEE, symObjAddr: 0x27920, symBinAddr: 0x100028FE0, symSize: 0x380 }
  - { offset: 0x3AEA, size: 0x8, addend: 0x0, symName: __ZN7doctest12_GLOBAL__N_1lsERNSt3__113basic_ostreamIcNS1_11char_traitsIcEEEERKNS0_9XmlEncodeE, symObjAddr: 0x36420, symBinAddr: 0x100037AE0, symSize: 0x30 }
  - { offset: 0x3B28, size: 0x8, addend: 0x0, symName: __ZN7doctest12_GLOBAL__N_112_GLOBAL__N_113hexEscapeCharERNSt3__113basic_ostreamIcNS2_11char_traitsIcEEEEh, symObjAddr: 0x36920, symBinAddr: 0x100037FE0, symSize: 0xC0 }
  - { offset: 0x3B70, size: 0x8, addend: 0x0, symName: __ZN7doctest12_GLOBAL__N_112_GLOBAL__N_113trailingBytesEh, symObjAddr: 0x369E0, symBinAddr: 0x1000380A0, symSize: 0xD0 }
  - { offset: 0x3B9E, size: 0x8, addend: 0x0, symName: __ZN7doctest12_GLOBAL__N_112_GLOBAL__N_111headerValueEh, symObjAddr: 0x36AB0, symBinAddr: 0x100038170, symSize: 0xD0 }
  - { offset: 0x3BCD, size: 0x8, addend: 0x0, symName: __ZN7doctest12_GLOBAL__N_129fulltext_log_assert_to_streamERNSt3__113basic_ostreamIcNS1_11char_traitsIcEEEERKNS_10AssertDataE, symObjAddr: 0x3EA60, symBinAddr: 0x100040120, symSize: 0x5E0 }
  - { offset: 0x3F2B, size: 0x8, addend: 0x0, symName: __ZN7doctest12_GLOBAL__N_1lsERNSt3__113basic_ostreamIcNS1_11char_traitsIcEEEERKNS0_10WhitespaceE, symObjAddr: 0x41E20, symBinAddr: 0x1000434E0, symSize: 0x60 }
  - { offset: 0x3FB2, size: 0x8, addend: 0x0, symName: __ZN7doctestL10discardOutE, symObjAddr: 0x221F90, symBinAddr: 0x10005F2D0, symSize: 0x0 }
  - { offset: 0x40F4, size: 0x8, addend: 0x0, symName: __ZN7doctest5ColorlsERNSt3__113basic_ostreamIcNS1_11char_traitsIcEEEENS0_4EnumE, symObjAddr: 0x1C00, symBinAddr: 0x1000032C0, symSize: 0x30 }
  - { offset: 0x431E, size: 0x8, addend: 0x0, symName: __ZN7doctestplERKNS_6StringES2_, symObjAddr: 0x1600, symBinAddr: 0x100002CC0, symSize: 0x100 }
  - { offset: 0x435B, size: 0x8, addend: 0x0, symName: __ZN7doctesteqERKNS_6StringES2_, symObjAddr: 0x1700, symBinAddr: 0x100002DC0, symSize: 0x30 }
  - { offset: 0x4398, size: 0x8, addend: 0x0, symName: __ZN7doctestneERKNS_6StringES2_, symObjAddr: 0x1730, symBinAddr: 0x100002DF0, symSize: 0x30 }
  - { offset: 0x43D5, size: 0x8, addend: 0x0, symName: __ZN7doctestltERKNS_6StringES2_, symObjAddr: 0x1760, symBinAddr: 0x100002E20, symSize: 0x30 }
  - { offset: 0x4412, size: 0x8, addend: 0x0, symName: __ZN7doctestgtERKNS_6StringES2_, symObjAddr: 0x1790, symBinAddr: 0x100002E50, symSize: 0x30 }
  - { offset: 0x444F, size: 0x8, addend: 0x0, symName: __ZN7doctestleERKNS_6StringES2_, symObjAddr: 0x17C0, symBinAddr: 0x100002E80, symSize: 0x60 }
  - { offset: 0x448C, size: 0x8, addend: 0x0, symName: __ZN7doctestgeERKNS_6StringES2_, symObjAddr: 0x1820, symBinAddr: 0x100002EE0, symSize: 0x60 }
  - { offset: 0x44C9, size: 0x8, addend: 0x0, symName: __ZN7doctestlsERNSt3__113basic_ostreamIcNS0_11char_traitsIcEEEERKNS_6StringE, symObjAddr: 0x1880, symBinAddr: 0x100002F40, symSize: 0x40 }
  - { offset: 0x4506, size: 0x8, addend: 0x0, symName: __ZN7doctest8toStringERKNS_8ContainsE, symObjAddr: 0x19E0, symBinAddr: 0x1000030A0, symSize: 0x160 }
  - { offset: 0x4535, size: 0x8, addend: 0x0, symName: __ZN7doctesteqERKNS_6StringERKNS_8ContainsE, symObjAddr: 0x1B40, symBinAddr: 0x100003200, symSize: 0x30 }
  - { offset: 0x4572, size: 0x8, addend: 0x0, symName: __ZN7doctesteqERKNS_8ContainsERKNS_6StringE, symObjAddr: 0x1B70, symBinAddr: 0x100003230, symSize: 0x30 }
  - { offset: 0x45AF, size: 0x8, addend: 0x0, symName: __ZN7doctestneERKNS_6StringERKNS_8ContainsE, symObjAddr: 0x1BA0, symBinAddr: 0x100003260, symSize: 0x30 }
  - { offset: 0x45EC, size: 0x8, addend: 0x0, symName: __ZN7doctestneERKNS_8ContainsERKNS_6StringE, symObjAddr: 0x1BD0, symBinAddr: 0x100003290, symSize: 0x30 }
  - { offset: 0x4629, size: 0x8, addend: 0x0, symName: __ZN7doctest12assertStringENS_10assertType4EnumE, symObjAddr: 0x1DF0, symBinAddr: 0x1000034B0, symSize: 0x670 }
  - { offset: 0x4657, size: 0x8, addend: 0x0, symName: __ZN7doctest13failureStringENS_10assertType4EnumE, symObjAddr: 0x24A0, symBinAddr: 0x100003B60, symSize: 0x80 }
  - { offset: 0x4685, size: 0x8, addend: 0x0, symName: __ZN7doctest20skipPathFromFilenameEPKc, symObjAddr: 0x2520, symBinAddr: 0x100003BE0, symSize: 0xA0 }
  - { offset: 0x46DF, size: 0x8, addend: 0x0, symName: __ZN7doctest17getContextOptionsEv, symObjAddr: 0x25C0, symBinAddr: 0x100003C80, symSize: 0x10 }
  - { offset: 0x46FD, size: 0x8, addend: 0x0, symName: __ZN7doctest8toStringENS_6StringE, symObjAddr: 0x27A0, symBinAddr: 0x100003E60, symSize: 0x30 }
  - { offset: 0x472C, size: 0x8, addend: 0x0, symName: __ZN7doctest8toStringEDn, symObjAddr: 0x27D0, symBinAddr: 0x100003E90, symSize: 0x30 }
  - { offset: 0x4756, size: 0x8, addend: 0x0, symName: __ZN7doctest8toStringEb, symObjAddr: 0x2800, symBinAddr: 0x100003EC0, symSize: 0x50 }
  - { offset: 0x4784, size: 0x8, addend: 0x0, symName: __ZN7doctest8toStringEf, symObjAddr: 0x2850, symBinAddr: 0x100003F10, symSize: 0x30 }
  - { offset: 0x47B2, size: 0x8, addend: 0x0, symName: __ZN7doctest8toStringEd, symObjAddr: 0x28D0, symBinAddr: 0x100003F90, symSize: 0x30 }
  - { offset: 0x47E0, size: 0x8, addend: 0x0, symName: __ZN7doctest8toStringEe, symObjAddr: 0x2950, symBinAddr: 0x100004010, symSize: 0x30 }
  - { offset: 0x480E, size: 0x8, addend: 0x0, symName: __ZN7doctest8toStringEc, symObjAddr: 0x29D0, symBinAddr: 0x100004090, symSize: 0x30 }
  - { offset: 0x483C, size: 0x8, addend: 0x0, symName: __ZN7doctest8toStringEa, symObjAddr: 0x2A50, symBinAddr: 0x100004110, symSize: 0x30 }
  - { offset: 0x486A, size: 0x8, addend: 0x0, symName: __ZN7doctest8toStringEh, symObjAddr: 0x2A80, symBinAddr: 0x100004140, symSize: 0x30 }
  - { offset: 0x4898, size: 0x8, addend: 0x0, symName: __ZN7doctest8toStringEs, symObjAddr: 0x2B00, symBinAddr: 0x1000041C0, symSize: 0x30 }
  - { offset: 0x48C6, size: 0x8, addend: 0x0, symName: __ZN7doctest8toStringEt, symObjAddr: 0x2B80, symBinAddr: 0x100004240, symSize: 0x30 }
  - { offset: 0x48F4, size: 0x8, addend: 0x0, symName: __ZN7doctest8toStringEi, symObjAddr: 0x2C00, symBinAddr: 0x1000042C0, symSize: 0x30 }
  - { offset: 0x4922, size: 0x8, addend: 0x0, symName: __ZN7doctest8toStringEj, symObjAddr: 0x2C30, symBinAddr: 0x1000042F0, symSize: 0x30 }
  - { offset: 0x4950, size: 0x8, addend: 0x0, symName: __ZN7doctest8toStringEl, symObjAddr: 0x2C60, symBinAddr: 0x100004320, symSize: 0x30 }
  - { offset: 0x497E, size: 0x8, addend: 0x0, symName: __ZN7doctest8toStringEm, symObjAddr: 0x2CE0, symBinAddr: 0x1000043A0, symSize: 0x30 }
  - { offset: 0x49AC, size: 0x8, addend: 0x0, symName: __ZN7doctest8toStringEx, symObjAddr: 0x2D60, symBinAddr: 0x100004420, symSize: 0x30 }
  - { offset: 0x49DA, size: 0x8, addend: 0x0, symName: __ZN7doctest8toStringEy, symObjAddr: 0x2DE0, symBinAddr: 0x1000044A0, symSize: 0x30 }
  - { offset: 0x4A08, size: 0x8, addend: 0x0, symName: __ZN7doctesteqEdRKNS_6ApproxE, symObjAddr: 0x2FA0, symBinAddr: 0x100004660, symSize: 0xB0 }
  - { offset: 0x4A45, size: 0x8, addend: 0x0, symName: __ZN7doctesteqERKNS_6ApproxEd, symObjAddr: 0x3080, symBinAddr: 0x100004740, symSize: 0x30 }
  - { offset: 0x4A82, size: 0x8, addend: 0x0, symName: __ZN7doctestneEdRKNS_6ApproxE, symObjAddr: 0x30B0, symBinAddr: 0x100004770, symSize: 0x30 }
  - { offset: 0x4ABF, size: 0x8, addend: 0x0, symName: __ZN7doctestneERKNS_6ApproxEd, symObjAddr: 0x30E0, symBinAddr: 0x1000047A0, symSize: 0x30 }
  - { offset: 0x4AFC, size: 0x8, addend: 0x0, symName: __ZN7doctestleEdRKNS_6ApproxE, symObjAddr: 0x3110, symBinAddr: 0x1000047D0, symSize: 0x50 }
  - { offset: 0x4B39, size: 0x8, addend: 0x0, symName: __ZN7doctestleERKNS_6ApproxEd, symObjAddr: 0x3160, symBinAddr: 0x100004820, symSize: 0x50 }
  - { offset: 0x4B76, size: 0x8, addend: 0x0, symName: __ZN7doctestgeEdRKNS_6ApproxE, symObjAddr: 0x31B0, symBinAddr: 0x100004870, symSize: 0x50 }
  - { offset: 0x4BB3, size: 0x8, addend: 0x0, symName: __ZN7doctestgeERKNS_6ApproxEd, symObjAddr: 0x3200, symBinAddr: 0x1000048C0, symSize: 0x50 }
  - { offset: 0x4BF0, size: 0x8, addend: 0x0, symName: __ZN7doctestltEdRKNS_6ApproxE, symObjAddr: 0x3250, symBinAddr: 0x100004910, symSize: 0x50 }
  - { offset: 0x4C2D, size: 0x8, addend: 0x0, symName: __ZN7doctestltERKNS_6ApproxEd, symObjAddr: 0x32A0, symBinAddr: 0x100004960, symSize: 0x50 }
  - { offset: 0x4C6A, size: 0x8, addend: 0x0, symName: __ZN7doctestgtEdRKNS_6ApproxE, symObjAddr: 0x32F0, symBinAddr: 0x1000049B0, symSize: 0x50 }
  - { offset: 0x4CA7, size: 0x8, addend: 0x0, symName: __ZN7doctestgtERKNS_6ApproxEd, symObjAddr: 0x3340, symBinAddr: 0x100004A00, symSize: 0x50 }
  - { offset: 0x4CE4, size: 0x8, addend: 0x0, symName: __ZN7doctest8toStringERKNS_6ApproxE, symObjAddr: 0x3390, symBinAddr: 0x100004A50, symSize: 0x1B0 }
  - { offset: 0x4D13, size: 0x8, addend: 0x0, symName: __ZN7doctest8toStringENS_5IsNaNIfEE, symObjAddr: 0x3540, symBinAddr: 0x100004C00, symSize: 0x40 }
  - { offset: 0x4D41, size: 0x8, addend: 0x0, symName: __ZN7doctest8toStringIfEENS_6StringENS_5IsNaNIT_EE, symObjAddr: 0x3580, symBinAddr: 0x100004C40, symSize: 0x260 }
  - { offset: 0x4D79, size: 0x8, addend: 0x0, symName: __ZN7doctest8toStringENS_5IsNaNIdEE, symObjAddr: 0x37E0, symBinAddr: 0x100004EA0, symSize: 0x50 }
  - { offset: 0x4DA7, size: 0x8, addend: 0x0, symName: __ZN7doctest8toStringIdEENS_6StringENS_5IsNaNIT_EE, symObjAddr: 0x3830, symBinAddr: 0x100004EF0, symSize: 0x270 }
  - { offset: 0x4DDF, size: 0x8, addend: 0x0, symName: __ZN7doctest8toStringENS_5IsNaNIeEE, symObjAddr: 0x3AA0, symBinAddr: 0x100005160, symSize: 0xA0 }
  - { offset: 0x4E0D, size: 0x8, addend: 0x0, symName: __ZN7doctest8toStringIeEENS_6StringENS_5IsNaNIT_EE, symObjAddr: 0x3B40, symBinAddr: 0x100005200, symSize: 0x270 }
  - { offset: 0x4E44, size: 0x8, addend: 0x0, symName: __ZN7doctest16registerReporterINS_12_GLOBAL__N_111XmlReporterEEEiPKcib, symObjAddr: 0x7BE0, symBinAddr: 0x1000092A0, symSize: 0x40 }
  - { offset: 0x4E99, size: 0x8, addend: 0x0, symName: __ZN7doctest16registerReporterINS_12_GLOBAL__N_113JUnitReporterEEEiPKcib, symObjAddr: 0x7C20, symBinAddr: 0x1000092E0, symSize: 0x40 }
  - { offset: 0x4EEE, size: 0x8, addend: 0x0, symName: __ZN7doctest16registerReporterINS_12_GLOBAL__N_115ConsoleReporterEEEiPKcib, symObjAddr: 0x7C60, symBinAddr: 0x100009320, symSize: 0x40 }
  - { offset: 0x5119, size: 0x8, addend: 0x0, symName: __ZN7doctestneIiEENSt3__19enable_ifIXsr3std16is_constructibleIdT_EE5valueEbE4typeERKNS_6ApproxERKS3_, symObjAddr: 0x27DB0, symBinAddr: 0x100029470, symSize: 0x30 }
  - { offset: 0x515F, size: 0x8, addend: 0x0, symName: __ZN7doctesteqIiEENSt3__19enable_ifIXsr3std16is_constructibleIdT_EE5valueEbE4typeERKS3_RKNS_6ApproxE, symObjAddr: 0x27DE0, symBinAddr: 0x1000294A0, symSize: 0x30 }
  - { offset: 0x51A5, size: 0x8, addend: 0x0, symName: __ZN7doctest8toStringINSt3__112basic_stringIcNS1_11char_traitsIcEENS1_9allocatorIcEEEELb1EEENS_6StringERKT_, symObjAddr: 0x2CB10, symBinAddr: 0x10002E1D0, symSize: 0x30 }
  - { offset: 0x1DE07, size: 0x8, addend: 0x0, symName: __ZNSt3__16ranges5__cpo9iter_moveE, symObjAddr: 0x4A551, symBinAddr: 0x100058D21, symSize: 0x0 }
  - { offset: 0x1DE4F, size: 0x8, addend: 0x0, symName: __ZNSt3__113weak_ordering10equivalentE, symObjAddr: 0x4A5F9, symBinAddr: 0x100058DC9, symSize: 0x0 }
  - { offset: 0x1DF97, size: 0x8, addend: 0x0, symName: __ZNSt3__113weak_ordering4lessE, symObjAddr: 0x4A5FA, symBinAddr: 0x100058DCA, symSize: 0x0 }
  - { offset: 0x1DFAA, size: 0x8, addend: 0x0, symName: __ZNSt3__113weak_ordering7greaterE, symObjAddr: 0x4A5FB, symBinAddr: 0x100058DCB, symSize: 0x0 }
  - { offset: 0x2992E, size: 0x8, addend: 0x0, symName: __ZNSt3__17advanceB8ne180100IPN7doctest16SubcaseSignatureEllvEEvRT_T0_, symObjAddr: 0x148E0, symBinAddr: 0x100015FA0, symSize: 0x30 }
  - { offset: 0x29BB2, size: 0x8, addend: 0x0, symName: __ZNSt3__17advanceB8ne180100INS_16reverse_iteratorIPN7doctest16SubcaseSignatureEEEllvEEvRT_T0_, symObjAddr: 0x14CE0, symBinAddr: 0x1000163A0, symSize: 0x30 }
  - { offset: 0x29C21, size: 0x8, addend: 0x0, symName: __ZNSt3__17advanceB8ne180100INS_11__wrap_iterIPN7doctest16SubcaseSignatureEEEllvEEvRT_T0_, symObjAddr: 0x15800, symBinAddr: 0x100016EC0, symSize: 0x30 }
  - { offset: 0x2A52C, size: 0x8, addend: 0x0, symName: __ZNSt3__17advanceB8ne180100IPN7doctest6StringEllvEEvRT_T0_, symObjAddr: 0x1B010, symBinAddr: 0x10001C6D0, symSize: 0x30 }
  - { offset: 0x2A7B0, size: 0x8, addend: 0x0, symName: __ZNSt3__17advanceB8ne180100INS_16reverse_iteratorIPN7doctest6StringEEEllvEEvRT_T0_, symObjAddr: 0x1B400, symBinAddr: 0x10001CAC0, symSize: 0x30 }
  - { offset: 0x2C5EB, size: 0x8, addend: 0x0, symName: __ZNSt3__111__introsortINS_17_ClassicAlgPolicyERPFbPKN7doctest6detail8TestCaseES6_EPS6_Lb0EEEvT1_SB_T0_NS_15iterator_traitsISB_E15difference_typeEb, symObjAddr: 0x23B90, symBinAddr: 0x100025250, symSize: 0x450 }
  - { offset: 0x2C719, size: 0x8, addend: 0x0, symName: __ZNSt3__126__insertion_sort_unguardedB8ne180100INS_17_ClassicAlgPolicyERPFbPKN7doctest6detail8TestCaseES6_EPS6_EEvT1_SB_T0_, symObjAddr: 0x24230, symBinAddr: 0x1000258F0, symSize: 0x110 }
  - { offset: 0x2C80A, size: 0x8, addend: 0x0, symName: __ZNSt3__111__sift_downB8ne180100INS_17_ClassicAlgPolicyERPFbPKN7doctest6detail8TestCaseES6_EPS6_EEvT1_OT0_NS_15iterator_traitsISB_E15difference_typeESB_, symObjAddr: 0x252F0, symBinAddr: 0x1000269B0, symSize: 0x1F0 }
  - { offset: 0x2C8BF, size: 0x8, addend: 0x0, symName: __ZNSt3__117__floyd_sift_downB8ne180100INS_17_ClassicAlgPolicyERPFbPKN7doctest6detail8TestCaseES6_EPS6_EET1_SB_OT0_NS_15iterator_traitsISB_E15difference_typeE, symObjAddr: 0x25640, symBinAddr: 0x100026D00, symSize: 0x100 }
  - { offset: 0x2C95D, size: 0x8, addend: 0x0, symName: __ZNSt3__131__partition_with_equals_on_leftB8ne180100INS_17_ClassicAlgPolicyEPPKN7doctest6detail8TestCaseERPFbS6_S6_EEET0_SB_SB_T1_, symObjAddr: 0x24560, symBinAddr: 0x100025C20, symSize: 0x1E0 }
  - { offset: 0x2CA18, size: 0x8, addend: 0x0, symName: __ZNSt3__118__bitset_partitionB8ne180100INS_17_ClassicAlgPolicyEPPKN7doctest6detail8TestCaseERPFbS6_S6_EEENS_4pairIT0_bEESC_SC_T1_, symObjAddr: 0x24740, symBinAddr: 0x100025E00, symSize: 0x2C0 }
  - { offset: 0x2CB14, size: 0x8, addend: 0x0, symName: __ZNSt3__124__swap_bitmap_pos_withinB8ne180100INS_17_ClassicAlgPolicyEPPKN7doctest6detail8TestCaseEEEvRT0_S9_RySA_, symObjAddr: 0x25CD0, symBinAddr: 0x100027390, symSize: 0x190 }
  - { offset: 0x2CBE1, size: 0x8, addend: 0x0, symName: __ZNSt3__132__partition_with_equals_on_rightB8ne180100INS_17_ClassicAlgPolicyEPPKN7doctest6detail8TestCaseERPFbS6_S6_EEENS_4pairIT0_bEESC_SC_T1_, symObjAddr: 0x24A00, symBinAddr: 0x1000260C0, symSize: 0x1E0 }
  - { offset: 0x2CCAD, size: 0x8, addend: 0x0, symName: __ZNSt3__127__insertion_sort_incompleteB8ne180100INS_17_ClassicAlgPolicyERPFbPKN7doctest6detail8TestCaseES6_EPS6_EEbT1_SB_T0_, symObjAddr: 0x24BE0, symBinAddr: 0x1000262A0, symSize: 0x2A0 }
  - { offset: 0x2E526, size: 0x8, addend: 0x0, symName: __ZNSt3__124__put_character_sequenceB8ne180100IcNS_11char_traitsIcEEEERNS_13basic_ostreamIT_T0_EES7_PKS4_m, symObjAddr: 0x284F0, symBinAddr: 0x100029BB0, symSize: 0x1F0 }
  - { offset: 0x2E6BF, size: 0x8, addend: 0x0, symName: __ZNSt3__16copy_nB8ne180100IPKcmPcLi0EEET1_T_T0_S4_, symObjAddr: 0x291F0, symBinAddr: 0x10002A8B0, symSize: 0x40 }
  - { offset: 0x2FD9D, size: 0x8, addend: 0x0, symName: __ZNSt3__17advanceB8ne180100IPN2ds5TokenEllvEEvRT_T0_, symObjAddr: 0x2BEF0, symBinAddr: 0x10002D5B0, symSize: 0x30 }
  - { offset: 0x30021, size: 0x8, addend: 0x0, symName: __ZNSt3__17advanceB8ne180100INS_16reverse_iteratorIPN2ds5TokenEEEllvEEvRT_T0_, symObjAddr: 0x2C2E0, symBinAddr: 0x10002D9A0, symSize: 0x30 }
  - { offset: 0x30FFB, size: 0x8, addend: 0x0, symName: __ZNSt3__117__cxx_atomic_loadB8ne180100IiEET_PKNS_22__cxx_atomic_base_implIS1_EENS_12memory_orderE, symObjAddr: 0x2DE90, symBinAddr: 0x10002F550, symSize: 0x70 }
  - { offset: 0x31058, size: 0x8, addend: 0x0, symName: __ZNSt3__117__cxx_atomic_loadB8ne180100IbEET_PKNS_22__cxx_atomic_base_implIS1_EENS_12memory_orderE, symObjAddr: 0x2FAC0, symBinAddr: 0x100031180, symSize: 0x70 }
  - { offset: 0x329AD, size: 0x8, addend: 0x0, symName: __ZNSt3__17advanceB8ne180100IPNS_12basic_stringIcNS_11char_traitsIcEENS_9allocatorIcEEEEllvEEvRT_T0_, symObjAddr: 0x35AA0, symBinAddr: 0x100037160, symSize: 0x30 }
  - { offset: 0x32C31, size: 0x8, addend: 0x0, symName: __ZNSt3__17advanceB8ne180100INS_16reverse_iteratorIPNS_12basic_stringIcNS_11char_traitsIcEENS_9allocatorIcEEEEEEllvEEvRT_T0_, symObjAddr: 0x35E90, symBinAddr: 0x100037550, symSize: 0x30 }
  - { offset: 0x36437, size: 0x8, addend: 0x0, symName: __ZNSt3__17advanceB8ne180100IPN7doctest12_GLOBAL__N_113JUnitReporter17JUnitTestCaseData13JUnitTestCaseEllvEEvRT_T0_, symObjAddr: 0x3B650, symBinAddr: 0x10003CD10, symSize: 0x30 }
  - { offset: 0x366C9, size: 0x8, addend: 0x0, symName: __ZNSt3__17advanceB8ne180100INS_16reverse_iteratorIPN7doctest12_GLOBAL__N_113JUnitReporter17JUnitTestCaseData13JUnitTestCaseEEEllvEEvRT_T0_, symObjAddr: 0x3BE50, symBinAddr: 0x10003D510, symSize: 0x30 }
  - { offset: 0x36CBB, size: 0x8, addend: 0x0, symName: __ZNSt3__17advanceB8ne180100IPN7doctest12_GLOBAL__N_113JUnitReporter17JUnitTestCaseData16JUnitTestMessageEllvEEvRT_T0_, symObjAddr: 0x3E110, symBinAddr: 0x10003F7D0, symSize: 0x30 }
  - { offset: 0x36F4D, size: 0x8, addend: 0x0, symName: __ZNSt3__17advanceB8ne180100INS_16reverse_iteratorIPN7doctest12_GLOBAL__N_113JUnitReporter17JUnitTestCaseData16JUnitTestMessageEEEllvEEvRT_T0_, symObjAddr: 0x3E4C0, symBinAddr: 0x10003FB80, symSize: 0x30 }
  - { offset: 0x38C46, size: 0x8, addend: 0x0, symName: __ZNSt3__16__math5isnanB8ne180100Ef, symObjAddr: 0x190, symBinAddr: 0x100001850, symSize: 0x20 }
  - { offset: 0x38C74, size: 0x8, addend: 0x0, symName: __ZNSt3__16__math5isnanB8ne180100EUa9enable_ifIXLb1EEEd, symObjAddr: 0x2B0, symBinAddr: 0x100001970, symSize: 0x20 }
  - { offset: 0x38CA2, size: 0x8, addend: 0x0, symName: __ZNSt3__16__math5isnanB8ne180100Ee, symObjAddr: 0x3D0, symBinAddr: 0x100001A90, symSize: 0x20 }
  - { offset: 0x38CD0, size: 0x8, addend: 0x0, symName: __ZNSt3__16__math4ceilB8ne180100Ef, symObjAddr: 0x2ECF0, symBinAddr: 0x1000303B0, symSize: 0x20 }
  - { offset: 0x38D2E, size: 0x8, addend: 0x0, symName: __ZNSt3__13minB8ne180100IjEERKT_S3_S3_, symObjAddr: 0x1200, symBinAddr: 0x1000028C0, symSize: 0x30 }
  - { offset: 0x38D73, size: 0x8, addend: 0x0, symName: __ZNSt3__1lsB8ne180100INS_11char_traitsIcEEEERNS_13basic_ostreamIcT_EES6_PKc, symObjAddr: 0x18C0, symBinAddr: 0x100002F80, symSize: 0x40 }
  - { offset: 0x391C9, size: 0x8, addend: 0x0, symName: __ZNSt3__13maxB8ne180100IdEERKT_S3_S3_, symObjAddr: 0x3050, symBinAddr: 0x100004710, symSize: 0x30 }
  - { offset: 0x3920F, size: 0x8, addend: 0x0, symName: __ZNSt3__1neB8ne180100IPPN7doctest9IReporterEEEbRKNS_11__wrap_iterIT_EES9_, symObjAddr: 0x47C0, symBinAddr: 0x100005E80, symSize: 0x30 }
  - { offset: 0x39254, size: 0x8, addend: 0x0, symName: __ZNSt3__1eqB8ne180100ERKNS_21__hash_const_iteratorIPNS_11__hash_nodeIyPvEEEES7_, symObjAddr: 0x4830, symBinAddr: 0x100005EF0, symSize: 0x30 }
  - { offset: 0x39292, size: 0x8, addend: 0x0, symName: __ZNSt3__1eqB8ne180100IPPKN7doctest6detail20IExceptionTranslatorEEEbRKNS_11__wrap_iterIT_EESB_, symObjAddr: 0x5BC0, symBinAddr: 0x100007280, symSize: 0x40 }
  - { offset: 0x392D8, size: 0x8, addend: 0x0, symName: __ZNSt3__14findB8ne180100INS_11__wrap_iterIPPKN7doctest6detail20IExceptionTranslatorEEES6_EET_S9_S9_RKT0_, symObjAddr: 0x5C00, symBinAddr: 0x1000072C0, symSize: 0x70 }
  - { offset: 0x39345, size: 0x8, addend: 0x0, symName: __ZNSt3__1neB8ne180100IPNS_6vectorIN7doctest6StringENS_9allocatorIS3_EEEEEEbRKNS_11__wrap_iterIT_EESC_, symObjAddr: 0xB7D0, symBinAddr: 0x10000CE90, symSize: 0x30 }
  - { offset: 0x39BDA, size: 0x8, addend: 0x0, symName: __ZNSt3__1neB8ne180100ERKNS_14__map_iteratorINS_15__tree_iteratorINS_12__value_typeINS_4pairIiN7doctest6StringEEEPFPNS4_9IReporterERKNS4_14ContextOptionsEEEEPNS_11__tree_nodeISE_PvEElEEEESM_, symObjAddr: 0xDB00, symBinAddr: 0x10000F1C0, symSize: 0x30 }
  - { offset: 0x39C2D, size: 0x8, addend: 0x0, symName: __ZNSt3__1neB8ne180100ERKNS_21__tree_const_iteratorIN7doctest6detail8TestCaseEPNS_11__tree_nodeIS3_PvEElEESA_, symObjAddr: 0xE050, symBinAddr: 0x10000F710, symSize: 0x30 }
  - { offset: 0x39C6A, size: 0x8, addend: 0x0, symName: __ZNSt3__14sortB8ne180100INS_11__wrap_iterIPPKN7doctest6detail8TestCaseEEEPFbS6_S6_EEEvT_SB_T0_, symObjAddr: 0xE190, symBinAddr: 0x10000F850, symSize: 0x40 }
  - { offset: 0x3A98E, size: 0x8, addend: 0x0, symName: __ZNSt3__1neB8ne180100IPPKN7doctest6detail8TestCaseEEEbRKNS_11__wrap_iterIT_EESB_, symObjAddr: 0xE400, symBinAddr: 0x10000FAC0, symSize: 0x30 }
  - { offset: 0x3AB9D, size: 0x8, addend: 0x0, symName: __ZNSt3__112__to_addressB8ne180100INS_4fposI11__mbstate_tEEEEPT_S5_, symObjAddr: 0x115C0, symBinAddr: 0x100012C80, symSize: 0x10 }
  - { offset: 0x3ABD4, size: 0x8, addend: 0x0, symName: __ZNSt3__112__destroy_atB8ne180100INS_4fposI11__mbstate_tEELi0EEEvPT_, symObjAddr: 0x115D0, symBinAddr: 0x100012C90, symSize: 0x10 }
  - { offset: 0x3AC0D, size: 0x8, addend: 0x0, symName: __ZNSt3__119__libcpp_deallocateB8ne180100EPvmm, symObjAddr: 0x11630, symBinAddr: 0x100012CF0, symSize: 0x60 }
  - { offset: 0x3AC72, size: 0x8, addend: 0x0, symName: __ZNSt3__124__is_overaligned_for_newB8ne180100Em, symObjAddr: 0x11690, symBinAddr: 0x100012D50, symSize: 0x20 }
  - { offset: 0x3ACA0, size: 0x8, addend: 0x0, symName: __ZNSt3__127__do_deallocate_handle_sizeB8ne180100IJSt11align_val_tEEEvPvmDpT_, symObjAddr: 0x116B0, symBinAddr: 0x100012D70, symSize: 0x30 }
  - { offset: 0x3ACF3, size: 0x8, addend: 0x0, symName: __ZNSt3__127__do_deallocate_handle_sizeB8ne180100IJEEEvPvmDpT_, symObjAddr: 0x116E0, symBinAddr: 0x100012DA0, symSize: 0x20 }
  - { offset: 0x3AD32, size: 0x8, addend: 0x0, symName: __ZNSt3__124__libcpp_operator_deleteB8ne180100IJPvSt11align_val_tEEEvDpT_, symObjAddr: 0x11700, symBinAddr: 0x100012DC0, symSize: 0x30 }
  - { offset: 0x3AD7B, size: 0x8, addend: 0x0, symName: __ZNSt3__124__libcpp_operator_deleteB8ne180100IJPvEEEvDpT_, symObjAddr: 0x11730, symBinAddr: 0x100012DF0, symSize: 0x20 }
  - { offset: 0x3ADB1, size: 0x8, addend: 0x0, symName: __ZNSt3__114__construct_atB8ne180100INS_4fposI11__mbstate_tEEJS3_EPS3_EEPT_S6_DpOT0_, symObjAddr: 0x11B80, symBinAddr: 0x100013240, symSize: 0x30 }
  - { offset: 0x3AE07, size: 0x8, addend: 0x0, symName: __ZNSt3__112construct_atB8ne180100INS_4fposI11__mbstate_tEEJS3_EPS3_EEPT_S6_DpOT0_, symObjAddr: 0x11BB0, symBinAddr: 0x100013270, symSize: 0x30 }
  - { offset: 0x3AE5D, size: 0x8, addend: 0x0, symName: __ZNSt3__13maxB8ne180100ImEERKT_S3_S3_, symObjAddr: 0x11EC0, symBinAddr: 0x100013580, symSize: 0x30 }
  - { offset: 0x3AEA3, size: 0x8, addend: 0x0, symName: __ZNSt3__13minB8ne180100ImEERKT_S3_S3_, symObjAddr: 0x11EF0, symBinAddr: 0x1000135B0, symSize: 0x30 }
  - { offset: 0x3B0EA, size: 0x8, addend: 0x0, symName: __ZNSt3__13minB8ne180100ImNS_6__lessIvvEEEERKT_S5_S5_T0_, symObjAddr: 0x11F80, symBinAddr: 0x100013640, symSize: 0x50 }
  - { offset: 0x3B1F1, size: 0x8, addend: 0x0, symName: __ZNSt3__120__throw_length_errorB8ne180100EPKc, symObjAddr: 0x12060, symBinAddr: 0x100013720, symSize: 0x70 }
  - { offset: 0x3B21B, size: 0x8, addend: 0x0, symName: __ZNSt3__13maxB8ne180100ImNS_6__lessIvvEEEERKT_S5_S5_T0_, symObjAddr: 0x12140, symBinAddr: 0x100013800, symSize: 0x50 }
  - { offset: 0x3B279, size: 0x8, addend: 0x0, symName: __ZNSt3__119__allocate_at_leastB8ne180100INS_9allocatorINS_4fposI11__mbstate_tEEEEEENS_19__allocation_resultINS_16allocator_traitsIT_E7pointerEEERS8_m, symObjAddr: 0x12290, symBinAddr: 0x100013950, symSize: 0x40 }
  - { offset: 0x3B2BE, size: 0x8, addend: 0x0, symName: __ZNSt3__117__libcpp_allocateB8ne180100Emm, symObjAddr: 0x12400, symBinAddr: 0x100013AC0, symSize: 0x60 }
  - { offset: 0x3B318, size: 0x8, addend: 0x0, symName: __ZNSt3__121__libcpp_operator_newB8ne180100IJmSt11align_val_tEEEPvDpT_, symObjAddr: 0x12460, symBinAddr: 0x100013B20, symSize: 0x30 }
  - { offset: 0x3B365, size: 0x8, addend: 0x0, symName: __ZNSt3__121__libcpp_operator_newB8ne180100IJmEEEPvDpT_, symObjAddr: 0x12490, symBinAddr: 0x100013B50, symSize: 0x20 }
  - { offset: 0x3B39E, size: 0x8, addend: 0x0, symName: __ZNSt3__142__uninitialized_allocator_move_if_noexceptB8ne180100INS_9allocatorINS_4fposI11__mbstate_tEEEENS_16reverse_iteratorIPS4_EES8_S4_vEET1_RT_T0_SC_S9_, symObjAddr: 0x12510, symBinAddr: 0x100013BD0, symSize: 0x70 }
  - { offset: 0x3B41B, size: 0x8, addend: 0x0, symName: __ZNSt3__14swapB8ne180100IPNS_4fposI11__mbstate_tEEEENS_9enable_ifIXaasr21is_move_constructibleIT_EE5valuesr18is_move_assignableIS6_EE5valueEvE4typeERS6_S9_, symObjAddr: 0x125D0, symBinAddr: 0x100013C90, symSize: 0x40 }
  - { offset: 0x3B470, size: 0x8, addend: 0x0, symName: __ZNSt3__14moveB8ne180100INS_16reverse_iteratorIPNS_4fposI11__mbstate_tEEEES6_EET0_T_S8_S7_, symObjAddr: 0x12620, symBinAddr: 0x100013CE0, symSize: 0x80 }
  - { offset: 0x3B4CE, size: 0x8, addend: 0x0, symName: __ZNSt3__16__moveB8ne180100INS_17_ClassicAlgPolicyENS_16reverse_iteratorIPNS_4fposI11__mbstate_tEEEES7_S7_EENS_4pairIT0_T2_EES9_T1_SA_, symObjAddr: 0x126A0, symBinAddr: 0x100013D60, symSize: 0x90 }
  - { offset: 0x3B53E, size: 0x8, addend: 0x0, symName: __ZNSt3__123__dispatch_copy_or_moveB8ne180100INS_17_ClassicAlgPolicyENS_11__move_loopIS1_EENS_14__move_trivialENS_16reverse_iteratorIPNS_4fposI11__mbstate_tEEEESA_SA_EENS_4pairIT2_T4_EESC_T3_SD_, symObjAddr: 0x12730, symBinAddr: 0x100013DF0, symSize: 0x90 }
  - { offset: 0x3B5C0, size: 0x8, addend: 0x0, symName: __ZNSt3__121__unwrap_and_dispatchB8ne180100INS_10__overloadINS_11__move_loopINS_17_ClassicAlgPolicyEEENS_14__move_trivialEEENS_16reverse_iteratorIPNS_4fposI11__mbstate_tEEEESC_SC_Li0EEENS_4pairIT0_T2_EESE_T1_SF_, symObjAddr: 0x127C0, symBinAddr: 0x100013E80, symSize: 0x210 }
  - { offset: 0x3B656, size: 0x8, addend: 0x0, symName: __ZNSt3__114__unwrap_rangeB8ne180100INS_16reverse_iteratorIPNS_4fposI11__mbstate_tEEEES6_EEDaT_T0_, symObjAddr: 0x129D0, symBinAddr: 0x100014090, symSize: 0x60 }
  - { offset: 0x3B910, size: 0x8, addend: 0x0, symName: __ZNSt3__113__unwrap_iterB8ne180100INS_16reverse_iteratorIPNS_4fposI11__mbstate_tEEEENS_18__unwrap_iter_implIS6_Lb0EEELi0EEEDTclsrT0_8__unwrapclsr3stdE7declvalIT_EEEESA_, symObjAddr: 0x12AD0, symBinAddr: 0x100014190, symSize: 0x40 }
  - { offset: 0x3B956, size: 0x8, addend: 0x0, symName: __ZNSt3__19make_pairB8ne180100INS_16reverse_iteratorIPNS_4fposI11__mbstate_tEEEES6_EENS_4pairINS_18__unwrap_ref_decayIT_E4typeENS8_IT0_E4typeEEEOS9_OSC_, symObjAddr: 0x12B10, symBinAddr: 0x1000141D0, symSize: 0x30 }
  - { offset: 0x3B9A6, size: 0x8, addend: 0x0, symName: __ZNSt3__114__rewrap_rangeB8ne180100INS_16reverse_iteratorIPNS_4fposI11__mbstate_tEEEES6_S6_EET0_S7_T1_, symObjAddr: 0x12B40, symBinAddr: 0x100014200, symSize: 0x60 }
  - { offset: 0x3B9FE, size: 0x8, addend: 0x0, symName: __ZNSt3__113__rewrap_iterB8ne180100INS_16reverse_iteratorIPNS_4fposI11__mbstate_tEEEES6_NS_18__unwrap_iter_implIS6_Lb0EEEEET_S9_T0_, symObjAddr: 0x12BA0, symBinAddr: 0x100014260, symSize: 0x70 }
  - { offset: 0x3BAA6, size: 0x8, addend: 0x0, symName: __ZNSt3__1neB8ne180100IPNS_4fposI11__mbstate_tEES4_EEbRKNS_16reverse_iteratorIT_EERKNS5_IT0_EE, symObjAddr: 0x12D10, symBinAddr: 0x1000143D0, symSize: 0x40 }
  - { offset: 0x3BE41, size: 0x8, addend: 0x0, symName: __ZNSt3__1miB8ne180100I11__mbstate_tEExRKNS_4fposIT_EES6_, symObjAddr: 0x13210, symBinAddr: 0x1000148D0, symSize: 0x40 }
  - { offset: 0x3BE87, size: 0x8, addend: 0x0, symName: __ZNSt3__13minB8ne180100IjNS_6__lessIvvEEEERKT_S5_S5_T0_, symObjAddr: 0x133B0, symBinAddr: 0x100014A70, symSize: 0x50 }
  - { offset: 0x3BEE5, size: 0x8, addend: 0x0, symName: __ZNSt3__13maxB8ne180100IdNS_6__lessIvvEEEERKT_S5_S5_T0_, symObjAddr: 0x13460, symBinAddr: 0x100014B20, symSize: 0x50 }
  - { offset: 0x3BF43, size: 0x8, addend: 0x0, symName: __ZNSt3__1neB8ne180100IPKN7doctest6StringEEEbRKNS_11__wrap_iterIT_EES9_, symObjAddr: 0x13540, symBinAddr: 0x100014C00, symSize: 0x30 }
  - { offset: 0x3BF89, size: 0x8, addend: 0x0, symName: __ZNSt3__1eqB8ne180100IPKN7doctest6StringEEEbRKNS_11__wrap_iterIT_EES9_, symObjAddr: 0x13860, symBinAddr: 0x100014F20, symSize: 0x40 }
  - { offset: 0x3BFCF, size: 0x8, addend: 0x0, symName: __ZNSt3__112__to_addressB8ne180100IN7doctest16SubcaseSignatureEEEPT_S4_, symObjAddr: 0x13B00, symBinAddr: 0x1000151C0, symSize: 0x10 }
  - { offset: 0x3C006, size: 0x8, addend: 0x0, symName: __ZNSt3__114__construct_atB8ne180100IN7doctest16SubcaseSignatureEJRKS2_EPS2_EEPT_S7_DpOT0_, symObjAddr: 0x13B70, symBinAddr: 0x100015230, symSize: 0x30 }
  - { offset: 0x3C05C, size: 0x8, addend: 0x0, symName: __ZNSt3__112construct_atB8ne180100IN7doctest16SubcaseSignatureEJRKS2_EPS2_EEPT_S7_DpOT0_, symObjAddr: 0x13BA0, symBinAddr: 0x100015260, symSize: 0x30 }
  - { offset: 0x3C0B2, size: 0x8, addend: 0x0, symName: __ZNSt3__119__allocate_at_leastB8ne180100INS_9allocatorIN7doctest16SubcaseSignatureEEEEENS_19__allocation_resultINS_16allocator_traitsIT_E7pointerEEERS7_m, symObjAddr: 0x14120, symBinAddr: 0x1000157E0, symSize: 0x40 }
  - { offset: 0x3C0F7, size: 0x8, addend: 0x0, symName: __ZNSt3__142__uninitialized_allocator_move_if_noexceptB8ne180100INS_9allocatorIN7doctest16SubcaseSignatureEEENS_16reverse_iteratorIPS3_EES7_S7_EET2_RT_T0_T1_S8_, symObjAddr: 0x142E0, symBinAddr: 0x1000159A0, symSize: 0x180 }
  - { offset: 0x3C197, size: 0x8, addend: 0x0, symName: __ZNSt3__14swapB8ne180100IPN7doctest16SubcaseSignatureEEENS_9enable_ifIXaasr21is_move_constructibleIT_EE5valuesr18is_move_assignableIS5_EE5valueEvE4typeERS5_S8_, symObjAddr: 0x144B0, symBinAddr: 0x100015B70, symSize: 0x40 }
  - { offset: 0x3C1EC, size: 0x8, addend: 0x0, symName: __ZNSt3__122__make_exception_guardB8ne180100INS_29_AllocatorDestroyRangeReverseINS_9allocatorIN7doctest16SubcaseSignatureEEENS_16reverse_iteratorIPS4_EEEEEENS_28__exception_guard_exceptionsIT_EESB_, symObjAddr: 0x14500, symBinAddr: 0x100015BC0, symSize: 0x60 }
  - { offset: 0x3C223, size: 0x8, addend: 0x0, symName: __ZNSt3__1neB8ne180100IPN7doctest16SubcaseSignatureES3_EEbRKNS_16reverse_iteratorIT_EERKNS4_IT0_EE, symObjAddr: 0x145A0, symBinAddr: 0x100015C60, symSize: 0x40 }
  - { offset: 0x3C272, size: 0x8, addend: 0x0, symName: __ZNSt3__112__to_addressB8ne180100INS_16reverse_iteratorIPN7doctest16SubcaseSignatureEEEvEEu7__decayIDTclsr19__to_address_helperIT_EE6__callclsr3stdE7declvalIRKS6_EEEEES8_, symObjAddr: 0x14610, symBinAddr: 0x100015CD0, symSize: 0x20 }
  - { offset: 0x3C2AA, size: 0x8, addend: 0x0, symName: __ZNSt3__114__construct_atB8ne180100IN7doctest16SubcaseSignatureEJS2_EPS2_EEPT_S5_DpOT0_, symObjAddr: 0x14770, symBinAddr: 0x100015E30, symSize: 0x30 }
  - { offset: 0x3C300, size: 0x8, addend: 0x0, symName: __ZNSt3__112construct_atB8ne180100IN7doctest16SubcaseSignatureEJS2_EPS2_EEPT_S5_DpOT0_, symObjAddr: 0x147A0, symBinAddr: 0x100015E60, symSize: 0x30 }
  - { offset: 0x3C380, size: 0x8, addend: 0x0, symName: __ZNSt3__14prevB8ne180100IPN7doctest16SubcaseSignatureELi0EEET_S4_NS_15iterator_traitsIS4_E15difference_typeE, symObjAddr: 0x148B0, symBinAddr: 0x100015F70, symSize: 0x30 }
  - { offset: 0x3C3CD, size: 0x8, addend: 0x0, symName: __ZNSt3__121__convert_to_integralB8ne180100El, symObjAddr: 0x14910, symBinAddr: 0x100015FD0, symSize: 0x10 }
  - { offset: 0x3C3FB, size: 0x8, addend: 0x0, symName: __ZNSt3__19__advanceB8ne180100IPN7doctest16SubcaseSignatureEEEvRT_NS_15iterator_traitsIS4_E15difference_typeENS_26random_access_iterator_tagE, symObjAddr: 0x14920, symBinAddr: 0x100015FE0, symSize: 0x20 }
  - { offset: 0x3C447, size: 0x8, addend: 0x0, symName: __ZNSt3__119__allocator_destroyB8ne180100INS_9allocatorIN7doctest16SubcaseSignatureEEENS_16reverse_iteratorINS5_IPS3_EEEES8_EEvRT_T0_T1_, symObjAddr: 0x14A70, symBinAddr: 0x100016130, symSize: 0x70 }
  - { offset: 0x3C4AB, size: 0x8, addend: 0x0, symName: __ZNSt3__1neB8ne180100INS_16reverse_iteratorIPN7doctest16SubcaseSignatureEEES5_EEbRKNS1_IT_EERKNS1_IT0_EE, symObjAddr: 0x14B10, symBinAddr: 0x1000161D0, symSize: 0x50 }
  - { offset: 0x3C4FA, size: 0x8, addend: 0x0, symName: __ZNSt3__112__to_addressB8ne180100INS_16reverse_iteratorINS1_IPN7doctest16SubcaseSignatureEEEEEvEEu7__decayIDTclsr19__to_address_helperIT_EE6__callclsr3stdE7declvalIRKS7_EEEEES9_, symObjAddr: 0x14B80, symBinAddr: 0x100016240, symSize: 0x20 }
  - { offset: 0x3C532, size: 0x8, addend: 0x0, symName: __ZNSt3__112__destroy_atB8ne180100IN7doctest16SubcaseSignatureELi0EEEvPT_, symObjAddr: 0x14BF0, symBinAddr: 0x1000162B0, symSize: 0x20 }
  - { offset: 0x3C596, size: 0x8, addend: 0x0, symName: __ZNSt3__14prevB8ne180100INS_16reverse_iteratorIPN7doctest16SubcaseSignatureEEELi0EEET_S6_NS_15iterator_traitsIS6_E15difference_typeE, symObjAddr: 0x14CA0, symBinAddr: 0x100016360, symSize: 0x40 }
  - { offset: 0x3C5E3, size: 0x8, addend: 0x0, symName: __ZNSt3__19__advanceB8ne180100INS_16reverse_iteratorIPN7doctest16SubcaseSignatureEEEEEvRT_NS_15iterator_traitsIS6_E15difference_typeENS_26random_access_iterator_tagE, symObjAddr: 0x14D10, symBinAddr: 0x1000163D0, symSize: 0x30 }
  - { offset: 0x3C630, size: 0x8, addend: 0x0, symName: __ZNSt3__1eqB8ne180100IPPN7doctest9IReporterEEEbRKNS_11__wrap_iterIT_EES9_, symObjAddr: 0x150C0, symBinAddr: 0x100016780, symSize: 0x40 }
  - { offset: 0x3C676, size: 0x8, addend: 0x0, symName: __ZNSt3__1neB8ne180100IPKN7doctest16SubcaseSignatureEEEbRKNS_11__wrap_iterIT_EES9_, symObjAddr: 0x15190, symBinAddr: 0x100016850, symSize: 0x30 }
  - { offset: 0x3C6BC, size: 0x8, addend: 0x0, symName: __ZNSt3__1eqB8ne180100IPKN7doctest16SubcaseSignatureEEEbRKNS_11__wrap_iterIT_EES9_, symObjAddr: 0x152B0, symBinAddr: 0x100016970, symSize: 0x40 }
  - { offset: 0x3C702, size: 0x8, addend: 0x0, symName: __ZNSt3__18distanceB8ne180100INS_11__wrap_iterIPN7doctest16SubcaseSignatureEEEEENS_15iterator_traitsIT_E15difference_typeES7_S7_, symObjAddr: 0x15750, symBinAddr: 0x100016E10, symSize: 0x40 }
  - { offset: 0x3C748, size: 0x8, addend: 0x0, symName: __ZNSt3__1miB8ne180100IPKN7doctest16SubcaseSignatureEPS2_EEDTmicldtfp_4baseEcldtfp0_4baseEERKNS_11__wrap_iterIT_EERKNS7_IT0_EE, symObjAddr: 0x15790, symBinAddr: 0x100016E50, symSize: 0x40 }
  - { offset: 0x3C797, size: 0x8, addend: 0x0, symName: __ZNSt3__14nextB8ne180100INS_11__wrap_iterIPN7doctest16SubcaseSignatureEEELi0EEET_S6_NS_15iterator_traitsIS6_E15difference_typeE, symObjAddr: 0x157D0, symBinAddr: 0x100016E90, symSize: 0x30 }
  - { offset: 0x3C7E4, size: 0x8, addend: 0x0, symName: __ZNSt3__14copyB8ne180100INS_11__wrap_iterIPN7doctest16SubcaseSignatureEEES4_EET0_T_S7_S6_, symObjAddr: 0x15A00, symBinAddr: 0x1000170C0, symSize: 0x50 }
  - { offset: 0x3C842, size: 0x8, addend: 0x0, symName: __ZNSt3__19__advanceB8ne180100INS_11__wrap_iterIPN7doctest16SubcaseSignatureEEEEEvRT_NS_15iterator_traitsIS6_E15difference_typeENS_26random_access_iterator_tagE, symObjAddr: 0x15CD0, symBinAddr: 0x100017390, symSize: 0x30 }
  - { offset: 0x3C88E, size: 0x8, addend: 0x0, symName: __ZNSt3__130__uninitialized_allocator_copyB8ne180100INS_9allocatorIN7doctest16SubcaseSignatureEEENS_11__wrap_iterIPS3_EES7_S6_EET2_RT_T0_T1_S8_, symObjAddr: 0x15D20, symBinAddr: 0x1000173E0, symSize: 0x90 }
  - { offset: 0x3C92D, size: 0x8, addend: 0x0, symName: __ZNSt3__114__unwrap_rangeB8ne180100INS_11__wrap_iterIPN7doctest16SubcaseSignatureEEES5_EEDaT_T0_, symObjAddr: 0x15DB0, symBinAddr: 0x100017470, symSize: 0x50 }
  - { offset: 0x3C97B, size: 0x8, addend: 0x0, symName: __ZNSt3__135__uninitialized_allocator_copy_implB8ne180100INS_9allocatorIN7doctest16SubcaseSignatureEEEPS3_S5_S5_EET2_RT_T0_T1_S6_, symObjAddr: 0x15E00, symBinAddr: 0x1000174C0, symSize: 0x100 }
  - { offset: 0x3CA1A, size: 0x8, addend: 0x0, symName: __ZNSt3__113__unwrap_iterB8ne180100IPN7doctest16SubcaseSignatureENS_18__unwrap_iter_implIS3_Lb1EEELi0EEEDTclsrT0_8__unwrapclsr3stdE7declvalIT_EEEES7_, symObjAddr: 0x15F00, symBinAddr: 0x1000175C0, symSize: 0x20 }
  - { offset: 0x3CA61, size: 0x8, addend: 0x0, symName: __ZNSt3__113__rewrap_iterB8ne180100IPN7doctest16SubcaseSignatureES3_NS_18__unwrap_iter_implIS3_Lb1EEEEET_S6_T0_, symObjAddr: 0x15F20, symBinAddr: 0x1000175E0, symSize: 0x40 }
  - { offset: 0x3CBD6, size: 0x8, addend: 0x0, symName: __ZNSt3__113__unwrap_iterB8ne180100INS_11__wrap_iterIPN7doctest16SubcaseSignatureEEENS_18__unwrap_iter_implIS5_Lb1EEELi0EEEDTclsrT0_8__unwrapclsr3stdE7declvalIT_EEEES9_, symObjAddr: 0x15FC0, symBinAddr: 0x100017680, symSize: 0x30 }
  - { offset: 0x3CC70, size: 0x8, addend: 0x0, symName: __ZNSt3__112__to_addressB8ne180100INS_11__wrap_iterIPN7doctest16SubcaseSignatureEEEvEEu7__decayIDTclsr19__to_address_helperIT_EE6__callclsr3stdE7declvalIRKS6_EEEEES8_, symObjAddr: 0x16040, symBinAddr: 0x100017700, symSize: 0x20 }
  - { offset: 0x3CD10, size: 0x8, addend: 0x0, symName: __ZNSt3__122__make_exception_guardB8ne180100INS_29_AllocatorDestroyRangeReverseINS_9allocatorIN7doctest16SubcaseSignatureEEEPS4_EEEENS_28__exception_guard_exceptionsIT_EES9_, symObjAddr: 0x160F0, symBinAddr: 0x1000177B0, symSize: 0x60 }
  - { offset: 0x3CD47, size: 0x8, addend: 0x0, symName: __ZNSt3__114__construct_atB8ne180100IN7doctest16SubcaseSignatureEJRS2_EPS2_EEPT_S6_DpOT0_, symObjAddr: 0x162B0, symBinAddr: 0x100017970, symSize: 0x30 }
  - { offset: 0x3CD9D, size: 0x8, addend: 0x0, symName: __ZNSt3__112construct_atB8ne180100IN7doctest16SubcaseSignatureEJRS2_EPS2_EEPT_S6_DpOT0_, symObjAddr: 0x162E0, symBinAddr: 0x1000179A0, symSize: 0x30 }
  - { offset: 0x3CDF2, size: 0x8, addend: 0x0, symName: __ZNSt3__119__allocator_destroyB8ne180100INS_9allocatorIN7doctest16SubcaseSignatureEEENS_16reverse_iteratorIPS3_EES7_EEvRT_T0_T1_, symObjAddr: 0x163B0, symBinAddr: 0x100017A70, symSize: 0x70 }
  - { offset: 0x3CEA9, size: 0x8, addend: 0x0, symName: __ZNSt3__113move_backwardB8ne180100IPN7doctest16SubcaseSignatureES3_EET0_T_S5_S4_, symObjAddr: 0x164A0, symBinAddr: 0x100017B60, symSize: 0x40 }
  - { offset: 0x3CF07, size: 0x8, addend: 0x0, symName: __ZNSt3__115__move_backwardB8ne180100INS_17_ClassicAlgPolicyEPN7doctest16SubcaseSignatureES4_S4_EENS_4pairIT0_T2_EES6_T1_S7_, symObjAddr: 0x164E0, symBinAddr: 0x100017BA0, symSize: 0x40 }
  - { offset: 0x3CF77, size: 0x8, addend: 0x0, symName: __ZNSt3__123__dispatch_copy_or_moveB8ne180100INS_17_ClassicAlgPolicyENS_20__move_backward_loopIS1_EENS_23__move_backward_trivialEPN7doctest16SubcaseSignatureES7_S7_EENS_4pairIT2_T4_EES9_T3_SA_, symObjAddr: 0x16520, symBinAddr: 0x100017BE0, symSize: 0x40 }
  - { offset: 0x3CFF9, size: 0x8, addend: 0x0, symName: __ZNSt3__121__unwrap_and_dispatchB8ne180100INS_10__overloadINS_20__move_backward_loopINS_17_ClassicAlgPolicyEEENS_23__move_backward_trivialEEEPN7doctest16SubcaseSignatureES9_S9_Li0EEENS_4pairIT0_T2_EESB_T1_SC_, symObjAddr: 0x16560, symBinAddr: 0x100017C20, symSize: 0xB0 }
  - { offset: 0x3D08F, size: 0x8, addend: 0x0, symName: __ZNSt3__114__unwrap_rangeB8ne180100IPN7doctest16SubcaseSignatureES3_EEDaT_T0_, symObjAddr: 0x16610, symBinAddr: 0x100017CD0, symSize: 0x40 }
  - { offset: 0x3D12F, size: 0x8, addend: 0x0, symName: __ZNSt3__19make_pairB8ne180100IPN7doctest16SubcaseSignatureES3_EENS_4pairINS_18__unwrap_ref_decayIT_E4typeENS5_IT0_E4typeEEEOS6_OS9_, symObjAddr: 0x166E0, symBinAddr: 0x100017DA0, symSize: 0x30 }
  - { offset: 0x3D17F, size: 0x8, addend: 0x0, symName: __ZNSt3__114__rewrap_rangeB8ne180100IPN7doctest16SubcaseSignatureES3_S3_EET0_S4_T1_, symObjAddr: 0x16710, symBinAddr: 0x100017DD0, symSize: 0x30 }
  - { offset: 0x3D232, size: 0x8, addend: 0x0, symName: __ZNSt3__16__copyB8ne180100INS_17_ClassicAlgPolicyENS_11__wrap_iterIPN7doctest16SubcaseSignatureEEES6_S5_EENS_4pairIT0_T2_EES8_T1_S9_, symObjAddr: 0x16850, symBinAddr: 0x100017F10, symSize: 0x50 }
  - { offset: 0x3D2A2, size: 0x8, addend: 0x0, symName: __ZNSt3__123__dispatch_copy_or_moveB8ne180100INS_17_ClassicAlgPolicyENS_11__copy_loopIS1_EENS_14__copy_trivialENS_11__wrap_iterIPN7doctest16SubcaseSignatureEEES9_S8_EENS_4pairIT2_T4_EESB_T3_SC_, symObjAddr: 0x168A0, symBinAddr: 0x100017F60, symSize: 0x50 }
  - { offset: 0x3D324, size: 0x8, addend: 0x0, symName: __ZNSt3__121__unwrap_and_dispatchB8ne180100INS_10__overloadINS_11__copy_loopINS_17_ClassicAlgPolicyEEENS_14__copy_trivialEEENS_11__wrap_iterIPN7doctest16SubcaseSignatureEEESB_SA_Li0EEENS_4pairIT0_T2_EESD_T1_SE_, symObjAddr: 0x168F0, symBinAddr: 0x100017FB0, symSize: 0xD0 }
  - { offset: 0x3D40B, size: 0x8, addend: 0x0, symName: __ZNSt3__19make_pairB8ne180100INS_11__wrap_iterIPN7doctest16SubcaseSignatureEEES4_EENS_4pairINS_18__unwrap_ref_decayIT_E4typeENS7_IT0_E4typeEEEOS8_OSB_, symObjAddr: 0x16A40, symBinAddr: 0x100018100, symSize: 0x30 }
  - { offset: 0x3D45B, size: 0x8, addend: 0x0, symName: __ZNSt3__114__rewrap_rangeB8ne180100INS_11__wrap_iterIPN7doctest16SubcaseSignatureEEES5_S4_EET0_S6_T1_, symObjAddr: 0x16A70, symBinAddr: 0x100018130, symSize: 0x40 }
  - { offset: 0x3D588, size: 0x8, addend: 0x0, symName: __ZNSt3__113__rewrap_iterB8ne180100INS_11__wrap_iterIPN7doctest16SubcaseSignatureEEES4_NS_18__unwrap_iter_implIS5_Lb1EEEEET_S8_T0_, symObjAddr: 0x16B90, symBinAddr: 0x100018250, symSize: 0x50 }
  - { offset: 0x3D5DF, size: 0x8, addend: 0x0, symName: __ZNSt3__142__uninitialized_allocator_move_if_noexceptB8ne180100INS_9allocatorIN7doctest16SubcaseSignatureEEEPS3_S5_S5_EET2_RT_T0_T1_S6_, symObjAddr: 0x16D20, symBinAddr: 0x1000183E0, symSize: 0x100 }
  - { offset: 0x3D67E, size: 0x8, addend: 0x0, symName: __ZNSt3__110__distanceB8ne180100INS_11__wrap_iterIPN7doctest16SubcaseSignatureEEEEENS_15iterator_traitsIT_E15difference_typeES7_S7_NS_26random_access_iterator_tagE, symObjAddr: 0x16E70, symBinAddr: 0x100018530, symSize: 0x30 }
  - { offset: 0x3D6CF, size: 0x8, addend: 0x0, symName: __ZNSt3__1miB8ne180100IPN7doctest16SubcaseSignatureES3_EEDTmicldtfp_4baseEcldtfp0_4baseEERKNS_11__wrap_iterIT_EERKNS5_IT0_EE, symObjAddr: 0x16EA0, symBinAddr: 0x100018560, symSize: 0x40 }
  - { offset: 0x3D71E, size: 0x8, addend: 0x0, symName: __ZNSt3__113__rewrap_iterB8ne180100INS_11__wrap_iterIPPKN7doctest6detail20IExceptionTranslatorEEES7_NS_18__unwrap_iter_implIS8_Lb1EEEEET_SB_T0_, symObjAddr: 0x16FB0, symBinAddr: 0x100018670, symSize: 0x50 }
  - { offset: 0x3D776, size: 0x8, addend: 0x0, symName: __ZNSt3__111__find_implB8ne180100IPPKN7doctest6detail20IExceptionTranslatorES6_S5_NS_10__identityEEET_S8_T0_RKT1_RT2_, symObjAddr: 0x17000, symBinAddr: 0x1000186C0, symSize: 0x70 }
  - { offset: 0x3D7F5, size: 0x8, addend: 0x0, symName: __ZNSt3__113__unwrap_iterB8ne180100INS_11__wrap_iterIPPKN7doctest6detail20IExceptionTranslatorEEENS_18__unwrap_iter_implIS8_Lb1EEELi0EEEDTclsrT0_8__unwrapclsr3stdE7declvalIT_EEEESC_, symObjAddr: 0x17070, symBinAddr: 0x100018730, symSize: 0x30 }
  - { offset: 0x3D88F, size: 0x8, addend: 0x0, symName: __ZNSt3__112__to_addressB8ne180100INS_11__wrap_iterIPPKN7doctest6detail20IExceptionTranslatorEEEvEEu7__decayIDTclsr19__to_address_helperIT_EE6__callclsr3stdE7declvalIRKS9_EEEEESB_, symObjAddr: 0x17130, symBinAddr: 0x1000187F0, symSize: 0x20 }
  - { offset: 0x3D92F, size: 0x8, addend: 0x0, symName: __ZNSt3__112__to_addressB8ne180100IPKN7doctest6detail20IExceptionTranslatorEEEPT_S7_, symObjAddr: 0x171D0, symBinAddr: 0x100018890, symSize: 0x10 }
  - { offset: 0x3D965, size: 0x8, addend: 0x0, symName: __ZNSt3__18__invokeB8ne180100IRNS_10__identityEJRPKN7doctest6detail20IExceptionTranslatorEEEEDTclclsr3stdE7declvalIT_EEspclsr3stdE7declvalIT0_EEEEOS9_DpOSA_, symObjAddr: 0x171E0, symBinAddr: 0x1000188A0, symSize: 0x30 }
  - { offset: 0x3D9E4, size: 0x8, addend: 0x0, symName: __ZNSt3__112__destroy_atB8ne180100IPKN7doctest6detail20IExceptionTranslatorELi0EEEvPT_, symObjAddr: 0x174D0, symBinAddr: 0x100018B90, symSize: 0x10 }
  - { offset: 0x3DA1E, size: 0x8, addend: 0x0, symName: __ZNSt3__114__construct_atB8ne180100IPKN7doctest6detail20IExceptionTranslatorEJRKS5_EPS5_EEPT_SA_DpOT0_, symObjAddr: 0x178A0, symBinAddr: 0x100018F60, symSize: 0x30 }
  - { offset: 0x3DA74, size: 0x8, addend: 0x0, symName: __ZNSt3__112construct_atB8ne180100IPKN7doctest6detail20IExceptionTranslatorEJRKS5_EPS5_EEPT_SA_DpOT0_, symObjAddr: 0x178D0, symBinAddr: 0x100018F90, symSize: 0x20 }
  - { offset: 0x3DACA, size: 0x8, addend: 0x0, symName: __ZNSt3__119__allocate_at_leastB8ne180100INS_9allocatorIPKN7doctest6detail20IExceptionTranslatorEEEEENS_19__allocation_resultINS_16allocator_traitsIT_E7pointerEEERSA_m, symObjAddr: 0x17D30, symBinAddr: 0x1000193F0, symSize: 0x40 }
  - { offset: 0x3DB0F, size: 0x8, addend: 0x0, symName: __ZNSt3__142__uninitialized_allocator_move_if_noexceptB8ne180100INS_9allocatorIPKN7doctest6detail20IExceptionTranslatorEEENS_16reverse_iteratorIPS6_EESA_S6_vEET1_RT_T0_SE_SB_, symObjAddr: 0x17EE0, symBinAddr: 0x1000195A0, symSize: 0x70 }
  - { offset: 0x3DB8C, size: 0x8, addend: 0x0, symName: __ZNSt3__14swapB8ne180100IPPKN7doctest6detail20IExceptionTranslatorEEENS_9enable_ifIXaasr21is_move_constructibleIT_EE5valuesr18is_move_assignableIS8_EE5valueEvE4typeERS8_SB_, symObjAddr: 0x17FA0, symBinAddr: 0x100019660, symSize: 0x40 }
  - { offset: 0x3DBE1, size: 0x8, addend: 0x0, symName: __ZNSt3__14moveB8ne180100INS_16reverse_iteratorIPPKN7doctest6detail20IExceptionTranslatorEEES8_EET0_T_SA_S9_, symObjAddr: 0x17FF0, symBinAddr: 0x1000196B0, symSize: 0x80 }
  - { offset: 0x3DC3F, size: 0x8, addend: 0x0, symName: __ZNSt3__16__moveB8ne180100INS_17_ClassicAlgPolicyENS_16reverse_iteratorIPPKN7doctest6detail20IExceptionTranslatorEEES9_S9_EENS_4pairIT0_T2_EESB_T1_SC_, symObjAddr: 0x18070, symBinAddr: 0x100019730, symSize: 0x90 }
  - { offset: 0x3DCAF, size: 0x8, addend: 0x0, symName: __ZNSt3__123__dispatch_copy_or_moveB8ne180100INS_17_ClassicAlgPolicyENS_11__move_loopIS1_EENS_14__move_trivialENS_16reverse_iteratorIPPKN7doctest6detail20IExceptionTranslatorEEESC_SC_EENS_4pairIT2_T4_EESE_T3_SF_, symObjAddr: 0x18100, symBinAddr: 0x1000197C0, symSize: 0x90 }
  - { offset: 0x3DD31, size: 0x8, addend: 0x0, symName: __ZNSt3__121__unwrap_and_dispatchB8ne180100INS_10__overloadINS_11__move_loopINS_17_ClassicAlgPolicyEEENS_14__move_trivialEEENS_16reverse_iteratorIPPKN7doctest6detail20IExceptionTranslatorEEESE_SE_Li0EEENS_4pairIT0_T2_EESG_T1_SH_, symObjAddr: 0x18190, symBinAddr: 0x100019850, symSize: 0x210 }
  - { offset: 0x3DDC7, size: 0x8, addend: 0x0, symName: __ZNSt3__114__unwrap_rangeB8ne180100INS_16reverse_iteratorIPPKN7doctest6detail20IExceptionTranslatorEEES8_EEDaT_T0_, symObjAddr: 0x183A0, symBinAddr: 0x100019A60, symSize: 0x60 }
  - { offset: 0x3DEEB, size: 0x8, addend: 0x0, symName: __ZNSt3__113__unwrap_iterB8ne180100INS_16reverse_iteratorIPPKN7doctest6detail20IExceptionTranslatorEEENS_18__unwrap_iter_implIS8_Lb0EEELi0EEEDTclsrT0_8__unwrapclsr3stdE7declvalIT_EEEESC_, symObjAddr: 0x184A0, symBinAddr: 0x100019B60, symSize: 0x40 }
  - { offset: 0x3DF31, size: 0x8, addend: 0x0, symName: __ZNSt3__19make_pairB8ne180100INS_16reverse_iteratorIPPKN7doctest6detail20IExceptionTranslatorEEES8_EENS_4pairINS_18__unwrap_ref_decayIT_E4typeENSA_IT0_E4typeEEEOSB_OSE_, symObjAddr: 0x184E0, symBinAddr: 0x100019BA0, symSize: 0x30 }
  - { offset: 0x3DF81, size: 0x8, addend: 0x0, symName: __ZNSt3__114__rewrap_rangeB8ne180100INS_16reverse_iteratorIPPKN7doctest6detail20IExceptionTranslatorEEES8_S8_EET0_S9_T1_, symObjAddr: 0x18510, symBinAddr: 0x100019BD0, symSize: 0x60 }
  - { offset: 0x3DFD9, size: 0x8, addend: 0x0, symName: __ZNSt3__113__rewrap_iterB8ne180100INS_16reverse_iteratorIPPKN7doctest6detail20IExceptionTranslatorEEES8_NS_18__unwrap_iter_implIS8_Lb0EEEEET_SB_T0_, symObjAddr: 0x18570, symBinAddr: 0x100019C30, symSize: 0x70 }
  - { offset: 0x3E081, size: 0x8, addend: 0x0, symName: __ZNSt3__1neB8ne180100IPPKN7doctest6detail20IExceptionTranslatorES6_EEbRKNS_16reverse_iteratorIT_EERKNS7_IT0_EE, symObjAddr: 0x186E0, symBinAddr: 0x100019DA0, symSize: 0x40 }
  - { offset: 0x3E123, size: 0x8, addend: 0x0, symName: __ZNSt3__112__to_addressB8ne180100IPN7doctest13IContextScopeEEEPT_S5_, symObjAddr: 0x18C90, symBinAddr: 0x10001A350, symSize: 0x10 }
  - { offset: 0x3E15A, size: 0x8, addend: 0x0, symName: __ZNSt3__112__destroy_atB8ne180100IPN7doctest13IContextScopeELi0EEEvPT_, symObjAddr: 0x18CA0, symBinAddr: 0x10001A360, symSize: 0x10 }
  - { offset: 0x3E194, size: 0x8, addend: 0x0, symName: __ZNSt3__114__construct_atB8ne180100IPN7doctest13IContextScopeEJS3_EPS3_EEPT_S6_DpOT0_, symObjAddr: 0x18FF0, symBinAddr: 0x10001A6B0, symSize: 0x30 }
  - { offset: 0x3E1EA, size: 0x8, addend: 0x0, symName: __ZNSt3__112construct_atB8ne180100IPN7doctest13IContextScopeEJS3_EPS3_EEPT_S6_DpOT0_, symObjAddr: 0x19020, symBinAddr: 0x10001A6E0, symSize: 0x20 }
  - { offset: 0x3E240, size: 0x8, addend: 0x0, symName: __ZNSt3__119__allocate_at_leastB8ne180100INS_9allocatorIPN7doctest13IContextScopeEEEEENS_19__allocation_resultINS_16allocator_traitsIT_E7pointerEEERS8_m, symObjAddr: 0x19460, symBinAddr: 0x10001AB20, symSize: 0x40 }
  - { offset: 0x3E285, size: 0x8, addend: 0x0, symName: __ZNSt3__142__uninitialized_allocator_move_if_noexceptB8ne180100INS_9allocatorIPN7doctest13IContextScopeEEENS_16reverse_iteratorIPS4_EES8_S4_vEET1_RT_T0_SC_S9_, symObjAddr: 0x19610, symBinAddr: 0x10001ACD0, symSize: 0x70 }
  - { offset: 0x3E302, size: 0x8, addend: 0x0, symName: __ZNSt3__14swapB8ne180100IPPN7doctest13IContextScopeEEENS_9enable_ifIXaasr21is_move_constructibleIT_EE5valuesr18is_move_assignableIS6_EE5valueEvE4typeERS6_S9_, symObjAddr: 0x196D0, symBinAddr: 0x10001AD90, symSize: 0x40 }
  - { offset: 0x3E357, size: 0x8, addend: 0x0, symName: __ZNSt3__14moveB8ne180100INS_16reverse_iteratorIPPN7doctest13IContextScopeEEES6_EET0_T_S8_S7_, symObjAddr: 0x19720, symBinAddr: 0x10001ADE0, symSize: 0x80 }
  - { offset: 0x3E3B5, size: 0x8, addend: 0x0, symName: __ZNSt3__16__moveB8ne180100INS_17_ClassicAlgPolicyENS_16reverse_iteratorIPPN7doctest13IContextScopeEEES7_S7_EENS_4pairIT0_T2_EES9_T1_SA_, symObjAddr: 0x197A0, symBinAddr: 0x10001AE60, symSize: 0x90 }
  - { offset: 0x3E425, size: 0x8, addend: 0x0, symName: __ZNSt3__123__dispatch_copy_or_moveB8ne180100INS_17_ClassicAlgPolicyENS_11__move_loopIS1_EENS_14__move_trivialENS_16reverse_iteratorIPPN7doctest13IContextScopeEEESA_SA_EENS_4pairIT2_T4_EESC_T3_SD_, symObjAddr: 0x19830, symBinAddr: 0x10001AEF0, symSize: 0x90 }
  - { offset: 0x3E4A7, size: 0x8, addend: 0x0, symName: __ZNSt3__121__unwrap_and_dispatchB8ne180100INS_10__overloadINS_11__move_loopINS_17_ClassicAlgPolicyEEENS_14__move_trivialEEENS_16reverse_iteratorIPPN7doctest13IContextScopeEEESC_SC_Li0EEENS_4pairIT0_T2_EESE_T1_SF_, symObjAddr: 0x198C0, symBinAddr: 0x10001AF80, symSize: 0x210 }
  - { offset: 0x3E53D, size: 0x8, addend: 0x0, symName: __ZNSt3__114__unwrap_rangeB8ne180100INS_16reverse_iteratorIPPN7doctest13IContextScopeEEES6_EEDaT_T0_, symObjAddr: 0x19AD0, symBinAddr: 0x10001B190, symSize: 0x60 }
  - { offset: 0x3E661, size: 0x8, addend: 0x0, symName: __ZNSt3__113__unwrap_iterB8ne180100INS_16reverse_iteratorIPPN7doctest13IContextScopeEEENS_18__unwrap_iter_implIS6_Lb0EEELi0EEEDTclsrT0_8__unwrapclsr3stdE7declvalIT_EEEESA_, symObjAddr: 0x19BD0, symBinAddr: 0x10001B290, symSize: 0x40 }
  - { offset: 0x3E6A7, size: 0x8, addend: 0x0, symName: __ZNSt3__19make_pairB8ne180100INS_16reverse_iteratorIPPN7doctest13IContextScopeEEES6_EENS_4pairINS_18__unwrap_ref_decayIT_E4typeENS8_IT0_E4typeEEEOS9_OSC_, symObjAddr: 0x19C10, symBinAddr: 0x10001B2D0, symSize: 0x30 }
  - { offset: 0x3E6F7, size: 0x8, addend: 0x0, symName: __ZNSt3__114__rewrap_rangeB8ne180100INS_16reverse_iteratorIPPN7doctest13IContextScopeEEES6_S6_EET0_S7_T1_, symObjAddr: 0x19C40, symBinAddr: 0x10001B300, symSize: 0x60 }
  - { offset: 0x3E74F, size: 0x8, addend: 0x0, symName: __ZNSt3__113__rewrap_iterB8ne180100INS_16reverse_iteratorIPPN7doctest13IContextScopeEEES6_NS_18__unwrap_iter_implIS6_Lb0EEEEET_S9_T0_, symObjAddr: 0x19CA0, symBinAddr: 0x10001B360, symSize: 0x70 }
  - { offset: 0x3E7F7, size: 0x8, addend: 0x0, symName: __ZNSt3__1neB8ne180100IPPN7doctest13IContextScopeES4_EEbRKNS_16reverse_iteratorIT_EERKNS5_IT0_EE, symObjAddr: 0x19E10, symBinAddr: 0x10001B4D0, symSize: 0x40 }
  - { offset: 0x3E899, size: 0x8, addend: 0x0, symName: __ZNSt3__112__to_addressB8ne180100IN7doctest6StringEEEPT_S4_, symObjAddr: 0x1A3A0, symBinAddr: 0x10001BA60, symSize: 0x10 }
  - { offset: 0x3E8D0, size: 0x8, addend: 0x0, symName: __ZNSt3__114__construct_atB8ne180100IN7doctest6StringEJS2_EPS2_EEPT_S5_DpOT0_, symObjAddr: 0x1A410, symBinAddr: 0x10001BAD0, symSize: 0x30 }
  - { offset: 0x3E926, size: 0x8, addend: 0x0, symName: __ZNSt3__112construct_atB8ne180100IN7doctest6StringEJS2_EPS2_EEPT_S5_DpOT0_, symObjAddr: 0x1A440, symBinAddr: 0x10001BB00, symSize: 0x30 }
  - { offset: 0x3E97C, size: 0x8, addend: 0x0, symName: __ZNSt3__119__allocate_at_leastB8ne180100INS_9allocatorIN7doctest6StringEEEEENS_19__allocation_resultINS_16allocator_traitsIT_E7pointerEEERS7_m, symObjAddr: 0x1A950, symBinAddr: 0x10001C010, symSize: 0x40 }
  - { offset: 0x3E9C1, size: 0x8, addend: 0x0, symName: __ZNSt3__142__uninitialized_allocator_move_if_noexceptB8ne180100INS_9allocatorIN7doctest6StringEEENS_16reverse_iteratorIPS3_EES7_S7_EET2_RT_T0_T1_S8_, symObjAddr: 0x1AB10, symBinAddr: 0x10001C1D0, symSize: 0x180 }
  - { offset: 0x3EA61, size: 0x8, addend: 0x0, symName: __ZNSt3__14swapB8ne180100IPN7doctest6StringEEENS_9enable_ifIXaasr21is_move_constructibleIT_EE5valuesr18is_move_assignableIS5_EE5valueEvE4typeERS5_S8_, symObjAddr: 0x1ACE0, symBinAddr: 0x10001C3A0, symSize: 0x40 }
  - { offset: 0x3EAB6, size: 0x8, addend: 0x0, symName: __ZNSt3__122__make_exception_guardB8ne180100INS_29_AllocatorDestroyRangeReverseINS_9allocatorIN7doctest6StringEEENS_16reverse_iteratorIPS4_EEEEEENS_28__exception_guard_exceptionsIT_EESB_, symObjAddr: 0x1AD30, symBinAddr: 0x10001C3F0, symSize: 0x60 }
  - { offset: 0x3EAED, size: 0x8, addend: 0x0, symName: __ZNSt3__1neB8ne180100IPN7doctest6StringES3_EEbRKNS_16reverse_iteratorIT_EERKNS4_IT0_EE, symObjAddr: 0x1ADD0, symBinAddr: 0x10001C490, symSize: 0x40 }
  - { offset: 0x3EB3C, size: 0x8, addend: 0x0, symName: __ZNSt3__112__to_addressB8ne180100INS_16reverse_iteratorIPN7doctest6StringEEEvEEu7__decayIDTclsr19__to_address_helperIT_EE6__callclsr3stdE7declvalIRKS6_EEEEES8_, symObjAddr: 0x1AE10, symBinAddr: 0x10001C4D0, symSize: 0x20 }
  - { offset: 0x3EB9E, size: 0x8, addend: 0x0, symName: __ZNSt3__14prevB8ne180100IPN7doctest6StringELi0EEET_S4_NS_15iterator_traitsIS4_E15difference_typeE, symObjAddr: 0x1AFE0, symBinAddr: 0x10001C6A0, symSize: 0x30 }
  - { offset: 0x3EBEB, size: 0x8, addend: 0x0, symName: __ZNSt3__19__advanceB8ne180100IPN7doctest6StringEEEvRT_NS_15iterator_traitsIS4_E15difference_typeENS_26random_access_iterator_tagE, symObjAddr: 0x1B040, symBinAddr: 0x10001C700, symSize: 0x20 }
  - { offset: 0x3EC37, size: 0x8, addend: 0x0, symName: __ZNSt3__119__allocator_destroyB8ne180100INS_9allocatorIN7doctest6StringEEENS_16reverse_iteratorINS5_IPS3_EEEES8_EEvRT_T0_T1_, symObjAddr: 0x1B190, symBinAddr: 0x10001C850, symSize: 0x70 }
  - { offset: 0x3EC9B, size: 0x8, addend: 0x0, symName: __ZNSt3__1neB8ne180100INS_16reverse_iteratorIPN7doctest6StringEEES5_EEbRKNS1_IT_EERKNS1_IT0_EE, symObjAddr: 0x1B230, symBinAddr: 0x10001C8F0, symSize: 0x50 }
  - { offset: 0x3ECEA, size: 0x8, addend: 0x0, symName: __ZNSt3__112__to_addressB8ne180100INS_16reverse_iteratorINS1_IPN7doctest6StringEEEEEvEEu7__decayIDTclsr19__to_address_helperIT_EE6__callclsr3stdE7declvalIRKS7_EEEEES9_, symObjAddr: 0x1B2A0, symBinAddr: 0x10001C960, symSize: 0x20 }
  - { offset: 0x3ED22, size: 0x8, addend: 0x0, symName: __ZNSt3__112__destroy_atB8ne180100IN7doctest6StringELi0EEEvPT_, symObjAddr: 0x1B310, symBinAddr: 0x10001C9D0, symSize: 0x20 }
  - { offset: 0x3ED86, size: 0x8, addend: 0x0, symName: __ZNSt3__14prevB8ne180100INS_16reverse_iteratorIPN7doctest6StringEEELi0EEET_S6_NS_15iterator_traitsIS6_E15difference_typeE, symObjAddr: 0x1B3C0, symBinAddr: 0x10001CA80, symSize: 0x40 }
  - { offset: 0x3EDD3, size: 0x8, addend: 0x0, symName: __ZNSt3__19__advanceB8ne180100INS_16reverse_iteratorIPN7doctest6StringEEEEEvRT_NS_15iterator_traitsIS6_E15difference_typeENS_26random_access_iterator_tagE, symObjAddr: 0x1B430, symBinAddr: 0x10001CAF0, symSize: 0x30 }
  - { offset: 0x3EE20, size: 0x8, addend: 0x0, symName: __ZNSt3__112__to_addressB8ne180100IKcEEPT_S3_, symObjAddr: 0x1B790, symBinAddr: 0x10001CE50, symSize: 0x10 }
  - { offset: 0x3EE8A, size: 0x8, addend: 0x0, symName: __ZNSt3__1neB8ne180100IPPKN7doctest6detail20IExceptionTranslatorEEEbRKNS_11__wrap_iterIT_EESB_, symObjAddr: 0x1BB60, symBinAddr: 0x10001D220, symSize: 0x30 }
  - { offset: 0x3EECF, size: 0x8, addend: 0x0, symName: __ZNSt3__122__cxx_atomic_fetch_addB8ne180100ImEET_PNS_22__cxx_atomic_base_implIS1_EES1_NS_12memory_orderE, symObjAddr: 0x1BD40, symBinAddr: 0x10001D400, symSize: 0xD0 }
  - { offset: 0x3EF24, size: 0x8, addend: 0x0, symName: __ZNSt3__122__cxx_atomic_fetch_addB8ne180100IiEET_PNS_22__cxx_atomic_base_implIS1_EES1_NS_12memory_orderE, symObjAddr: 0x1BE10, symBinAddr: 0x10001D4D0, symSize: 0xC0 }
  - { offset: 0x3EF7A, size: 0x8, addend: 0x0, symName: __ZNSt3__122__make_exception_guardB8ne180100INS_6vectorINS1_IN7doctest6StringENS_9allocatorIS3_EEEENS4_IS6_EEE16__destroy_vectorEEENS_28__exception_guard_exceptionsIT_EESB_, symObjAddr: 0x1C470, symBinAddr: 0x10001DB30, symSize: 0x40 }
  - { offset: 0x3EFB1, size: 0x8, addend: 0x0, symName: __ZNSt3__119__allocate_at_leastB8ne180100INS_9allocatorINS_6vectorIN7doctest6StringENS1_IS4_EEEEEEEENS_19__allocation_resultINS_16allocator_traitsIT_E7pointerEEERSA_m, symObjAddr: 0x1C820, symBinAddr: 0x10001DEE0, symSize: 0x40 }
  - { offset: 0x3EFF7, size: 0x8, addend: 0x0, symName: __ZNSt3__112__to_addressB8ne180100INS_6vectorIN7doctest6StringENS_9allocatorIS3_EEEEEEPT_S8_, symObjAddr: 0x1CA30, symBinAddr: 0x10001E0F0, symSize: 0x10 }
  - { offset: 0x3F02E, size: 0x8, addend: 0x0, symName: __ZNSt3__114__construct_atB8ne180100INS_6vectorIN7doctest6StringENS_9allocatorIS3_EEEEJEPS6_EEPT_S9_DpOT0_, symObjAddr: 0x1CAA0, symBinAddr: 0x10001E160, symSize: 0x20 }
  - { offset: 0x3F070, size: 0x8, addend: 0x0, symName: __ZNSt3__112construct_atB8ne180100INS_6vectorIN7doctest6StringENS_9allocatorIS3_EEEEJEPS6_EEPT_S9_DpOT0_, symObjAddr: 0x1CAC0, symBinAddr: 0x10001E180, symSize: 0x30 }
  - { offset: 0x3F0B2, size: 0x8, addend: 0x0, symName: __ZNSt3__112__destroy_atB8ne180100INS_6vectorIN7doctest6StringENS_9allocatorIS3_EEEELi0EEEvPT_, symObjAddr: 0x1CD10, symBinAddr: 0x10001E3D0, symSize: 0x20 }
  - { offset: 0x3F0EC, size: 0x8, addend: 0x0, symName: __ZNSt3__112__destroy_atB8ne180100INS_11__hash_nodeIyPvEELi0EEEvPT_, symObjAddr: 0x1DC00, symBinAddr: 0x10001F2C0, symSize: 0x20 }
  - { offset: 0x3F159, size: 0x8, addend: 0x0, symName: __ZNSt3__112__destroy_atB8ne180100IyLi0EEEvPT_, symObjAddr: 0x1DC90, symBinAddr: 0x10001F350, symSize: 0x10 }
  - { offset: 0x3F193, size: 0x8, addend: 0x0, symName: __ZNSt3__112__to_addressB8ne180100IPN7doctest9IReporterEEEPT_S5_, symObjAddr: 0x1E2E0, symBinAddr: 0x10001F9A0, symSize: 0x10 }
  - { offset: 0x3F1CA, size: 0x8, addend: 0x0, symName: __ZNSt3__112__destroy_atB8ne180100IPN7doctest9IReporterELi0EEEvPT_, symObjAddr: 0x1E2F0, symBinAddr: 0x10001F9B0, symSize: 0x10 }
  - { offset: 0x3F204, size: 0x8, addend: 0x0, symName: __ZNSt3__112__to_addressB8ne180100IcEEPT_S2_, symObjAddr: 0x1EDA0, symBinAddr: 0x100020460, symSize: 0x10 }
  - { offset: 0x3F23B, size: 0x8, addend: 0x0, symName: __ZNSt3__118__constexpr_strlenB8ne180100EPKc, symObjAddr: 0x1EF40, symBinAddr: 0x100020600, symSize: 0x20 }
  - { offset: 0x3F269, size: 0x8, addend: 0x0, symName: __ZNSt3__1eqB8ne180100IPNS_6vectorIN7doctest6StringENS_9allocatorIS3_EEEEEEbRKNS_11__wrap_iterIT_EESC_, symObjAddr: 0x1F1B0, symBinAddr: 0x100020870, symSize: 0x40 }
  - { offset: 0x3F2AF, size: 0x8, addend: 0x0, symName: __ZNSt3__15beginB8ne180100IcLm1024EEEPT_RAT0__S1_, symObjAddr: 0x1F4E0, symBinAddr: 0x100020BA0, symSize: 0x10 }
  - { offset: 0x3F2F1, size: 0x8, addend: 0x0, symName: __ZNSt3__13endB8ne180100IcLm1024EEEPT_RAT0__S1_, symObjAddr: 0x1F4F0, symBinAddr: 0x100020BB0, symSize: 0x20 }
  - { offset: 0x3F366, size: 0x8, addend: 0x0, symName: __ZNSt3__112__destroy_atB8ne180100INS_4pairIKNS1_IiN7doctest6StringEEEPFPNS2_9IReporterERKNS2_14ContextOptionsEEEELi0EEEvPT_, symObjAddr: 0x1FB30, symBinAddr: 0x1000211F0, symSize: 0x20 }
  - { offset: 0x3F39F, size: 0x8, addend: 0x0, symName: __ZNSt3__17launderB8ne180100INS_4pairIKNS1_IiN7doctest6StringEEEPFPNS2_9IReporterERKNS2_14ContextOptionsEEEEEEPT_SF_, symObjAddr: 0x1FB70, symBinAddr: 0x100021230, symSize: 0x20 }
  - { offset: 0x3F3D6, size: 0x8, addend: 0x0, symName: __ZNSt3__19__launderB8ne180100INS_4pairIKNS1_IiN7doctest6StringEEEPFPNS2_9IReporterERKNS2_14ContextOptionsEEEEEEPT_SF_, symObjAddr: 0x1FB90, symBinAddr: 0x100021250, symSize: 0x10 }
  - { offset: 0x3F40E, size: 0x8, addend: 0x0, symName: __ZNSt3__114__construct_atB8ne180100IPN7doctest9IReporterEJS3_EPS3_EEPT_S6_DpOT0_, symObjAddr: 0x1FED0, symBinAddr: 0x100021590, symSize: 0x30 }
  - { offset: 0x3F464, size: 0x8, addend: 0x0, symName: __ZNSt3__112construct_atB8ne180100IPN7doctest9IReporterEJS3_EPS3_EEPT_S6_DpOT0_, symObjAddr: 0x1FF00, symBinAddr: 0x1000215C0, symSize: 0x20 }
  - { offset: 0x3F4BA, size: 0x8, addend: 0x0, symName: __ZNSt3__119__allocate_at_leastB8ne180100INS_9allocatorIPN7doctest9IReporterEEEEENS_19__allocation_resultINS_16allocator_traitsIT_E7pointerEEERS8_m, symObjAddr: 0x20360, symBinAddr: 0x100021A20, symSize: 0x40 }
  - { offset: 0x3F4FF, size: 0x8, addend: 0x0, symName: __ZNSt3__142__uninitialized_allocator_move_if_noexceptB8ne180100INS_9allocatorIPN7doctest9IReporterEEENS_16reverse_iteratorIPS4_EES8_S4_vEET1_RT_T0_SC_S9_, symObjAddr: 0x204F0, symBinAddr: 0x100021BB0, symSize: 0x70 }
  - { offset: 0x3F57C, size: 0x8, addend: 0x0, symName: __ZNSt3__14swapB8ne180100IPPN7doctest9IReporterEEENS_9enable_ifIXaasr21is_move_constructibleIT_EE5valuesr18is_move_assignableIS6_EE5valueEvE4typeERS6_S9_, symObjAddr: 0x205B0, symBinAddr: 0x100021C70, symSize: 0x40 }
  - { offset: 0x3F5D1, size: 0x8, addend: 0x0, symName: __ZNSt3__14moveB8ne180100INS_16reverse_iteratorIPPN7doctest9IReporterEEES6_EET0_T_S8_S7_, symObjAddr: 0x20600, symBinAddr: 0x100021CC0, symSize: 0x80 }
  - { offset: 0x3F62F, size: 0x8, addend: 0x0, symName: __ZNSt3__16__moveB8ne180100INS_17_ClassicAlgPolicyENS_16reverse_iteratorIPPN7doctest9IReporterEEES7_S7_EENS_4pairIT0_T2_EES9_T1_SA_, symObjAddr: 0x20680, symBinAddr: 0x100021D40, symSize: 0x90 }
  - { offset: 0x3F69F, size: 0x8, addend: 0x0, symName: __ZNSt3__123__dispatch_copy_or_moveB8ne180100INS_17_ClassicAlgPolicyENS_11__move_loopIS1_EENS_14__move_trivialENS_16reverse_iteratorIPPN7doctest9IReporterEEESA_SA_EENS_4pairIT2_T4_EESC_T3_SD_, symObjAddr: 0x20710, symBinAddr: 0x100021DD0, symSize: 0x90 }
  - { offset: 0x3F721, size: 0x8, addend: 0x0, symName: __ZNSt3__121__unwrap_and_dispatchB8ne180100INS_10__overloadINS_11__move_loopINS_17_ClassicAlgPolicyEEENS_14__move_trivialEEENS_16reverse_iteratorIPPN7doctest9IReporterEEESC_SC_Li0EEENS_4pairIT0_T2_EESE_T1_SF_, symObjAddr: 0x207A0, symBinAddr: 0x100021E60, symSize: 0x210 }
  - { offset: 0x3F7B7, size: 0x8, addend: 0x0, symName: __ZNSt3__114__unwrap_rangeB8ne180100INS_16reverse_iteratorIPPN7doctest9IReporterEEES6_EEDaT_T0_, symObjAddr: 0x209B0, symBinAddr: 0x100022070, symSize: 0x60 }
  - { offset: 0x3F8DB, size: 0x8, addend: 0x0, symName: __ZNSt3__113__unwrap_iterB8ne180100INS_16reverse_iteratorIPPN7doctest9IReporterEEENS_18__unwrap_iter_implIS6_Lb0EEELi0EEEDTclsrT0_8__unwrapclsr3stdE7declvalIT_EEEESA_, symObjAddr: 0x20AB0, symBinAddr: 0x100022170, symSize: 0x40 }
  - { offset: 0x3F921, size: 0x8, addend: 0x0, symName: __ZNSt3__19make_pairB8ne180100INS_16reverse_iteratorIPPN7doctest9IReporterEEES6_EENS_4pairINS_18__unwrap_ref_decayIT_E4typeENS8_IT0_E4typeEEEOS9_OSC_, symObjAddr: 0x20AF0, symBinAddr: 0x1000221B0, symSize: 0x30 }
  - { offset: 0x3F971, size: 0x8, addend: 0x0, symName: __ZNSt3__114__rewrap_rangeB8ne180100INS_16reverse_iteratorIPPN7doctest9IReporterEEES6_S6_EET0_S7_T1_, symObjAddr: 0x20B20, symBinAddr: 0x1000221E0, symSize: 0x60 }
  - { offset: 0x3F9C9, size: 0x8, addend: 0x0, symName: __ZNSt3__113__rewrap_iterB8ne180100INS_16reverse_iteratorIPPN7doctest9IReporterEEES6_NS_18__unwrap_iter_implIS6_Lb0EEEEET_S9_T0_, symObjAddr: 0x20B80, symBinAddr: 0x100022240, symSize: 0x70 }
  - { offset: 0x3FA71, size: 0x8, addend: 0x0, symName: __ZNSt3__1neB8ne180100IPPN7doctest9IReporterES4_EEbRKNS_16reverse_iteratorIT_EERKNS5_IT0_EE, symObjAddr: 0x20CF0, symBinAddr: 0x1000223B0, symSize: 0x40 }
  - { offset: 0x3FB08, size: 0x8, addend: 0x0, symName: __ZNSt3__1miB8ne180100IPKPN7doctest9IReporterEPS3_EEDTmicldtfp_4baseEcldtfp0_4baseEERKNS_11__wrap_iterIT_EERKNS8_IT0_EE, symObjAddr: 0x21040, symBinAddr: 0x100022700, symSize: 0x40 }
  - { offset: 0x3FB57, size: 0x8, addend: 0x0, symName: __ZNSt3__113move_backwardB8ne180100IPPN7doctest9IReporterES4_EET0_T_S6_S5_, symObjAddr: 0x215C0, symBinAddr: 0x100022C80, symSize: 0x40 }
  - { offset: 0x3FBB5, size: 0x8, addend: 0x0, symName: __ZNSt3__115__move_backwardB8ne180100INS_17_ClassicAlgPolicyEPPN7doctest9IReporterES5_S5_EENS_4pairIT0_T2_EES7_T1_S8_, symObjAddr: 0x21600, symBinAddr: 0x100022CC0, symSize: 0x40 }
  - { offset: 0x3FC25, size: 0x8, addend: 0x0, symName: __ZNSt3__123__dispatch_copy_or_moveB8ne180100INS_17_ClassicAlgPolicyENS_20__move_backward_loopIS1_EENS_23__move_backward_trivialEPPN7doctest9IReporterES8_S8_EENS_4pairIT2_T4_EESA_T3_SB_, symObjAddr: 0x21640, symBinAddr: 0x100022D00, symSize: 0x40 }
  - { offset: 0x3FCA7, size: 0x8, addend: 0x0, symName: __ZNSt3__121__unwrap_and_dispatchB8ne180100INS_10__overloadINS_20__move_backward_loopINS_17_ClassicAlgPolicyEEENS_23__move_backward_trivialEEEPPN7doctest9IReporterESA_SA_Li0EEENS_4pairIT0_T2_EESC_T1_SD_, symObjAddr: 0x21680, symBinAddr: 0x100022D40, symSize: 0xB0 }
  - { offset: 0x3FD3D, size: 0x8, addend: 0x0, symName: __ZNSt3__114__unwrap_rangeB8ne180100IPPN7doctest9IReporterES4_EEDaT_T0_, symObjAddr: 0x21730, symBinAddr: 0x100022DF0, symSize: 0x40 }
  - { offset: 0x3FF08, size: 0x8, addend: 0x0, symName: __ZNSt3__113__unwrap_iterB8ne180100IPPN7doctest9IReporterENS_18__unwrap_iter_implIS4_Lb1EEELi0EEEDTclsrT0_8__unwrapclsr3stdE7declvalIT_EEEES8_, symObjAddr: 0x217B0, symBinAddr: 0x100022E70, symSize: 0x20 }
  - { offset: 0x3FF4E, size: 0x8, addend: 0x0, symName: __ZNSt3__19make_pairB8ne180100IPPN7doctest9IReporterES4_EENS_4pairINS_18__unwrap_ref_decayIT_E4typeENS6_IT0_E4typeEEEOS7_OSA_, symObjAddr: 0x217D0, symBinAddr: 0x100022E90, symSize: 0x30 }
  - { offset: 0x3FF9E, size: 0x8, addend: 0x0, symName: __ZNSt3__114__rewrap_rangeB8ne180100IPPN7doctest9IReporterES4_S4_EET0_S5_T1_, symObjAddr: 0x21800, symBinAddr: 0x100022EC0, symSize: 0x30 }
  - { offset: 0x3FFF6, size: 0x8, addend: 0x0, symName: __ZNSt3__113__rewrap_iterB8ne180100IPPN7doctest9IReporterES4_NS_18__unwrap_iter_implIS4_Lb1EEEEET_S7_T0_, symObjAddr: 0x21830, symBinAddr: 0x100022EF0, symSize: 0x40 }
  - { offset: 0x4009E, size: 0x8, addend: 0x0, symName: __ZNSt3__128__copy_backward_trivial_implB8ne180100IPN7doctest9IReporterES3_EENS_4pairIPT_PT0_EES6_S6_S8_, symObjAddr: 0x21920, symBinAddr: 0x100022FE0, symSize: 0x70 }
  - { offset: 0x4010B, size: 0x8, addend: 0x0, symName: __ZNSt3__119__constexpr_memmoveB8ne180100IPN7doctest9IReporterES3_Li0EEEPT_S5_PT0_NS_15__element_countE, symObjAddr: 0x21990, symBinAddr: 0x100023050, symSize: 0x50 }
  - { offset: 0x4017E, size: 0x8, addend: 0x0, symName: __ZNSt3__19make_pairB8ne180100IRPPN7doctest9IReporterES5_EENS_4pairINS_18__unwrap_ref_decayIT_E4typeENS7_IT0_E4typeEEEOS8_OSB_, symObjAddr: 0x219E0, symBinAddr: 0x1000230A0, symSize: 0x30 }
  - { offset: 0x40221, size: 0x8, addend: 0x0, symName: __ZNSt3__14moveB8ne180100IPPN7doctest9IReporterES4_EET0_T_S6_S5_, symObjAddr: 0x21B10, symBinAddr: 0x1000231D0, symSize: 0x40 }
  - { offset: 0x4027F, size: 0x8, addend: 0x0, symName: __ZNSt3__16__moveB8ne180100INS_17_ClassicAlgPolicyEPPN7doctest9IReporterES5_S5_EENS_4pairIT0_T2_EES7_T1_S8_, symObjAddr: 0x21BE0, symBinAddr: 0x1000232A0, symSize: 0x40 }
  - { offset: 0x402EF, size: 0x8, addend: 0x0, symName: __ZNSt3__123__dispatch_copy_or_moveB8ne180100INS_17_ClassicAlgPolicyENS_11__move_loopIS1_EENS_14__move_trivialEPPN7doctest9IReporterES8_S8_EENS_4pairIT2_T4_EESA_T3_SB_, symObjAddr: 0x21C20, symBinAddr: 0x1000232E0, symSize: 0x40 }
  - { offset: 0x40371, size: 0x8, addend: 0x0, symName: __ZNSt3__121__unwrap_and_dispatchB8ne180100INS_10__overloadINS_11__move_loopINS_17_ClassicAlgPolicyEEENS_14__move_trivialEEEPPN7doctest9IReporterESA_SA_Li0EEENS_4pairIT0_T2_EESC_T1_SD_, symObjAddr: 0x21C60, symBinAddr: 0x100023320, symSize: 0xB0 }
  - { offset: 0x4044E, size: 0x8, addend: 0x0, symName: __ZNSt3__119__copy_trivial_implB8ne180100IPN7doctest9IReporterES3_EENS_4pairIPT_PT0_EES6_S6_S8_, symObjAddr: 0x21D50, symBinAddr: 0x100023410, symSize: 0x70 }
  - { offset: 0x404BA, size: 0x8, addend: 0x0, symName: __ZNSt3__19make_pairB8ne180100IRPPN7doctest9IReporterES4_EENS_4pairINS_18__unwrap_ref_decayIT_E4typeENS7_IT0_E4typeEEEOS8_OSB_, symObjAddr: 0x21DC0, symBinAddr: 0x100023480, symSize: 0x30 }
  - { offset: 0x4050A, size: 0x8, addend: 0x0, symName: __ZNSt3__18distanceB8ne180100INS_13move_iteratorIPPN7doctest9IReporterEEEEENS_15iterator_traitsIT_E15difference_typeES8_S8_, symObjAddr: 0x21F30, symBinAddr: 0x1000235F0, symSize: 0x40 }
  - { offset: 0x40550, size: 0x8, addend: 0x0, symName: __ZNSt3__110__distanceB8ne180100INS_13move_iteratorIPPN7doctest9IReporterEEEEENS_15iterator_traitsIT_E15difference_typeES8_S8_NS_26random_access_iterator_tagE, symObjAddr: 0x22090, symBinAddr: 0x100023750, symSize: 0x30 }
  - { offset: 0x405A0, size: 0x8, addend: 0x0, symName: __ZNSt3__1miB8ne180100IPPN7doctest9IReporterES4_EEDTmicldtfp_4baseEcldtfp0_4baseEERKNS_13move_iteratorIT_EERKNS6_IT0_EE, symObjAddr: 0x220C0, symBinAddr: 0x100023780, symSize: 0x40 }
  - { offset: 0x405EF, size: 0x8, addend: 0x0, symName: __ZNSt3__142__uninitialized_allocator_move_if_noexceptB8ne180100INS_9allocatorIPN7doctest9IReporterEEEPS4_S6_S4_vEET1_RT_T0_SA_S7_, symObjAddr: 0x22130, symBinAddr: 0x1000237F0, symSize: 0x30 }
  - { offset: 0x4066C, size: 0x8, addend: 0x0, symName: __ZNSt3__112__to_addressB8ne180100IPKN7doctest6detail8TestCaseEEEPT_S7_, symObjAddr: 0x226C0, symBinAddr: 0x100023D80, symSize: 0x10 }
  - { offset: 0x406A3, size: 0x8, addend: 0x0, symName: __ZNSt3__114__construct_atB8ne180100IPKN7doctest6detail8TestCaseEJS5_EPS5_EEPT_S8_DpOT0_, symObjAddr: 0x22730, symBinAddr: 0x100023DF0, symSize: 0x30 }
  - { offset: 0x406F9, size: 0x8, addend: 0x0, symName: __ZNSt3__112construct_atB8ne180100IPKN7doctest6detail8TestCaseEJS5_EPS5_EEPT_S8_DpOT0_, symObjAddr: 0x22760, symBinAddr: 0x100023E20, symSize: 0x20 }
  - { offset: 0x4074F, size: 0x8, addend: 0x0, symName: __ZNSt3__119__allocate_at_leastB8ne180100INS_9allocatorIPKN7doctest6detail8TestCaseEEEEENS_19__allocation_resultINS_16allocator_traitsIT_E7pointerEEERSA_m, symObjAddr: 0x22C50, symBinAddr: 0x100024310, symSize: 0x40 }
  - { offset: 0x40794, size: 0x8, addend: 0x0, symName: __ZNSt3__142__uninitialized_allocator_move_if_noexceptB8ne180100INS_9allocatorIPKN7doctest6detail8TestCaseEEENS_16reverse_iteratorIPS6_EESA_S6_vEET1_RT_T0_SE_SB_, symObjAddr: 0x22DF0, symBinAddr: 0x1000244B0, symSize: 0x70 }
  - { offset: 0x40811, size: 0x8, addend: 0x0, symName: __ZNSt3__14swapB8ne180100IPPKN7doctest6detail8TestCaseEEENS_9enable_ifIXaasr21is_move_constructibleIT_EE5valuesr18is_move_assignableIS8_EE5valueEvE4typeERS8_SB_, symObjAddr: 0x22EB0, symBinAddr: 0x100024570, symSize: 0x40 }
  - { offset: 0x40866, size: 0x8, addend: 0x0, symName: __ZNSt3__14moveB8ne180100INS_16reverse_iteratorIPPKN7doctest6detail8TestCaseEEES8_EET0_T_SA_S9_, symObjAddr: 0x22F00, symBinAddr: 0x1000245C0, symSize: 0x80 }
  - { offset: 0x408C4, size: 0x8, addend: 0x0, symName: __ZNSt3__16__moveB8ne180100INS_17_ClassicAlgPolicyENS_16reverse_iteratorIPPKN7doctest6detail8TestCaseEEES9_S9_EENS_4pairIT0_T2_EESB_T1_SC_, symObjAddr: 0x22F80, symBinAddr: 0x100024640, symSize: 0x90 }
  - { offset: 0x40934, size: 0x8, addend: 0x0, symName: __ZNSt3__123__dispatch_copy_or_moveB8ne180100INS_17_ClassicAlgPolicyENS_11__move_loopIS1_EENS_14__move_trivialENS_16reverse_iteratorIPPKN7doctest6detail8TestCaseEEESC_SC_EENS_4pairIT2_T4_EESE_T3_SF_, symObjAddr: 0x23010, symBinAddr: 0x1000246D0, symSize: 0x90 }
  - { offset: 0x409B6, size: 0x8, addend: 0x0, symName: __ZNSt3__121__unwrap_and_dispatchB8ne180100INS_10__overloadINS_11__move_loopINS_17_ClassicAlgPolicyEEENS_14__move_trivialEEENS_16reverse_iteratorIPPKN7doctest6detail8TestCaseEEESE_SE_Li0EEENS_4pairIT0_T2_EESG_T1_SH_, symObjAddr: 0x230A0, symBinAddr: 0x100024760, symSize: 0x210 }
  - { offset: 0x40A4C, size: 0x8, addend: 0x0, symName: __ZNSt3__114__unwrap_rangeB8ne180100INS_16reverse_iteratorIPPKN7doctest6detail8TestCaseEEES8_EEDaT_T0_, symObjAddr: 0x232B0, symBinAddr: 0x100024970, symSize: 0x60 }
  - { offset: 0x40B70, size: 0x8, addend: 0x0, symName: __ZNSt3__113__unwrap_iterB8ne180100INS_16reverse_iteratorIPPKN7doctest6detail8TestCaseEEENS_18__unwrap_iter_implIS8_Lb0EEELi0EEEDTclsrT0_8__unwrapclsr3stdE7declvalIT_EEEESC_, symObjAddr: 0x233B0, symBinAddr: 0x100024A70, symSize: 0x40 }
  - { offset: 0x40BB6, size: 0x8, addend: 0x0, symName: __ZNSt3__19make_pairB8ne180100INS_16reverse_iteratorIPPKN7doctest6detail8TestCaseEEES8_EENS_4pairINS_18__unwrap_ref_decayIT_E4typeENSA_IT0_E4typeEEEOSB_OSE_, symObjAddr: 0x233F0, symBinAddr: 0x100024AB0, symSize: 0x30 }
  - { offset: 0x40C06, size: 0x8, addend: 0x0, symName: __ZNSt3__114__rewrap_rangeB8ne180100INS_16reverse_iteratorIPPKN7doctest6detail8TestCaseEEES8_S8_EET0_S9_T1_, symObjAddr: 0x23420, symBinAddr: 0x100024AE0, symSize: 0x60 }
  - { offset: 0x40C5E, size: 0x8, addend: 0x0, symName: __ZNSt3__113__rewrap_iterB8ne180100INS_16reverse_iteratorIPPKN7doctest6detail8TestCaseEEES8_NS_18__unwrap_iter_implIS8_Lb0EEEEET_SB_T0_, symObjAddr: 0x23480, symBinAddr: 0x100024B40, symSize: 0x70 }
  - { offset: 0x40D06, size: 0x8, addend: 0x0, symName: __ZNSt3__1neB8ne180100IPPKN7doctest6detail8TestCaseES6_EEbRKNS_16reverse_iteratorIT_EERKNS7_IT0_EE, symObjAddr: 0x235F0, symBinAddr: 0x100024CB0, symSize: 0x40 }
  - { offset: 0x40DA8, size: 0x8, addend: 0x0, symName: __ZNSt3__112__destroy_atB8ne180100IPKN7doctest6detail8TestCaseELi0EEEvPT_, symObjAddr: 0x23950, symBinAddr: 0x100025010, symSize: 0x10 }
  - { offset: 0x40DE1, size: 0x8, addend: 0x0, symName: __ZNSt3__111__sort_implB8ne180100INS_17_ClassicAlgPolicyENS_11__wrap_iterIPPKN7doctest6detail8TestCaseEEEPFbS7_S7_EEEvT0_SC_RT1_, symObjAddr: 0x239E0, symBinAddr: 0x1000250A0, symSize: 0xB0 }
  - { offset: 0x40E45, size: 0x8, addend: 0x0, symName: __ZNSt3__123__debug_randomize_rangeB8ne180100INS_17_ClassicAlgPolicyENS_11__wrap_iterIPPKN7doctest6detail8TestCaseEEES9_EEvT0_T1_, symObjAddr: 0x23A90, symBinAddr: 0x100025150, symSize: 0x10 }
  - { offset: 0x40E98, size: 0x8, addend: 0x0, symName: __ZNSt3__115__sort_dispatchB8ne180100INS_17_ClassicAlgPolicyEPPKN7doctest6detail8TestCaseEPFbS6_S6_EEEvT0_SA_RT1_, symObjAddr: 0x23AA0, symBinAddr: 0x100025160, symSize: 0x50 }
  - { offset: 0x40F17, size: 0x8, addend: 0x0, symName: __ZNSt3__113__unwrap_iterB8ne180100INS_11__wrap_iterIPPKN7doctest6detail8TestCaseEEENS_18__unwrap_iter_implIS8_Lb1EEELi0EEEDTclsrT0_8__unwrapclsr3stdE7declvalIT_EEEESC_, symObjAddr: 0x23AF0, symBinAddr: 0x1000251B0, symSize: 0x30 }
  - { offset: 0x40F5E, size: 0x8, addend: 0x0, symName: __ZNSt3__135__check_strict_weak_ordering_sortedB8ne180100IPPKN7doctest6detail8TestCaseEPFbS5_S5_EEEvT_S9_RT0_, symObjAddr: 0x23B20, symBinAddr: 0x1000251E0, symSize: 0x20 }
  - { offset: 0x40FB7, size: 0x8, addend: 0x0, symName: __ZNSt3__17__log2iB8ne180100IlEET_S1_, symObjAddr: 0x23B40, symBinAddr: 0x100025200, symSize: 0x50 }
  - { offset: 0x40FEF, size: 0x8, addend: 0x0, symName: __ZNSt3__112__libcpp_clzB8ne180100Em, symObjAddr: 0x23FE0, symBinAddr: 0x1000256A0, symSize: 0x20 }
  - { offset: 0x4101D, size: 0x8, addend: 0x0, symName: __ZNSt3__124__sort3_maybe_branchlessB8ne180100INS_17_ClassicAlgPolicyERPFbPKN7doctest6detail8TestCaseES6_EPS6_Li0EEEvT1_SB_SB_T0_, symObjAddr: 0x24030, symBinAddr: 0x1000256F0, symSize: 0x40 }
  - { offset: 0x41096, size: 0x8, addend: 0x0, symName: __ZNSt3__124__sort4_maybe_branchlessB8ne180100INS_17_ClassicAlgPolicyERPFbPKN7doctest6detail8TestCaseES6_EPS6_Li0EEEvT1_SB_SB_SB_T0_, symObjAddr: 0x24070, symBinAddr: 0x100025730, symSize: 0x40 }
  - { offset: 0x4111D, size: 0x8, addend: 0x0, symName: __ZNSt3__124__sort5_maybe_branchlessB8ne180100INS_17_ClassicAlgPolicyERPFbPKN7doctest6detail8TestCaseES6_EPS6_Li0EEEvT1_SB_SB_SB_SB_T0_, symObjAddr: 0x240B0, symBinAddr: 0x100025770, symSize: 0x50 }
  - { offset: 0x411B4, size: 0x8, addend: 0x0, symName: __ZNSt3__116__insertion_sortB8ne180100INS_17_ClassicAlgPolicyERPFbPKN7doctest6detail8TestCaseES6_EPS6_EEvT1_SB_T0_, symObjAddr: 0x24100, symBinAddr: 0x1000257C0, symSize: 0x130 }
  - { offset: 0x4127C, size: 0x8, addend: 0x0, symName: __ZNSt3__114__partial_sortB8ne180100INS_17_ClassicAlgPolicyERPFbPKN7doctest6detail8TestCaseES6_EPS6_SA_EET1_SB_SB_T2_RT0_, symObjAddr: 0x24340, symBinAddr: 0x100025A00, symSize: 0x90 }
  - { offset: 0x4130A, size: 0x8, addend: 0x0, symName: __ZNSt3__17__sort3B8ne180100INS_17_ClassicAlgPolicyERPFbPKN7doctest6detail8TestCaseES6_EPS6_EEjT1_SB_SB_T0_, symObjAddr: 0x243D0, symBinAddr: 0x100025A90, symSize: 0x160 }
  - { offset: 0x4138F, size: 0x8, addend: 0x0, symName: __ZNSt3__19iter_swapB8ne180100IPPKN7doctest6detail8TestCaseES6_EEvT_T0_, symObjAddr: 0x24E80, symBinAddr: 0x100026540, symSize: 0x30 }
  - { offset: 0x413DA, size: 0x8, addend: 0x0, symName: __ZNSt3__14swapB8ne180100IPKN7doctest6detail8TestCaseEEENS_9enable_ifIXaasr21is_move_constructibleIT_EE5valuesr18is_move_assignableIS7_EE5valueEvE4typeERS7_SA_, symObjAddr: 0x24EB0, symBinAddr: 0x100026570, symSize: 0x40 }
  - { offset: 0x4142F, size: 0x8, addend: 0x0, symName: __ZNSt3__17__sort4B8ne180100INS_17_ClassicAlgPolicyERPFbPKN7doctest6detail8TestCaseES6_EPS6_EEvT1_SB_SB_SB_T0_, symObjAddr: 0x24EF0, symBinAddr: 0x1000265B0, symSize: 0xE0 }
  - { offset: 0x414B0, size: 0x8, addend: 0x0, symName: __ZNSt3__17__sort5B8ne180100INS_17_ClassicAlgPolicyERPFbPKN7doctest6detail8TestCaseES6_EPS6_EEvT1_SB_SB_SB_SB_T0_, symObjAddr: 0x24FD0, symBinAddr: 0x100026690, symSize: 0x120 }
  - { offset: 0x41540, size: 0x8, addend: 0x0, symName: __ZNSt3__123__debug_randomize_rangeB8ne180100INS_17_ClassicAlgPolicyEPPKN7doctest6detail8TestCaseES7_EEvT0_T1_, symObjAddr: 0x25140, symBinAddr: 0x100026800, symSize: 0x10 }
  - { offset: 0x41594, size: 0x8, addend: 0x0, symName: __ZNSt3__119__partial_sort_implB8ne180100INS_17_ClassicAlgPolicyERPFbPKN7doctest6detail8TestCaseES6_EPS6_SA_EET1_SB_SB_T2_OT0_, symObjAddr: 0x25150, symBinAddr: 0x100026810, symSize: 0x100 }
  - { offset: 0x41631, size: 0x8, addend: 0x0, symName: __ZNSt3__111__make_heapB8ne180100INS_17_ClassicAlgPolicyERPFbPKN7doctest6detail8TestCaseES6_EPS6_EEvT1_SB_OT0_, symObjAddr: 0x25250, symBinAddr: 0x100026910, symSize: 0xA0 }
  - { offset: 0x416DA, size: 0x8, addend: 0x0, symName: __ZNSt3__111__sort_heapB8ne180100INS_17_ClassicAlgPolicyERPFbPKN7doctest6detail8TestCaseES6_EPS6_EEvT1_SB_OT0_, symObjAddr: 0x254E0, symBinAddr: 0x100026BA0, symSize: 0x90 }
  - { offset: 0x41783, size: 0x8, addend: 0x0, symName: __ZNSt3__110__pop_heapB8ne180100INS_17_ClassicAlgPolicyEPFbPKN7doctest6detail8TestCaseES6_EPS6_EEvT1_SA_RT0_NS_15iterator_traitsISA_E15difference_typeE, symObjAddr: 0x25570, symBinAddr: 0x100026C30, symSize: 0xD0 }
  - { offset: 0x4183B, size: 0x8, addend: 0x0, symName: __ZNSt3__19__sift_upB8ne180100INS_17_ClassicAlgPolicyERPFbPKN7doctest6detail8TestCaseES6_EPS6_EEvT1_SB_OT0_NS_15iterator_traitsISB_E15difference_typeE, symObjAddr: 0x25740, symBinAddr: 0x100026E00, symSize: 0x120 }
  - { offset: 0x418F1, size: 0x8, addend: 0x0, symName: __ZNSt3__122__populate_left_bitsetB8ne180100IRPFbPKN7doctest6detail8TestCaseES5_EPS5_S5_EEvT0_T_RT1_Ry, symObjAddr: 0x25860, symBinAddr: 0x100026F20, symSize: 0x90 }
  - { offset: 0x419AC, size: 0x8, addend: 0x0, symName: __ZNSt3__123__populate_right_bitsetB8ne180100IRPFbPKN7doctest6detail8TestCaseES5_EPS5_S5_EEvT0_T_RT1_Ry, symObjAddr: 0x258F0, symBinAddr: 0x100026FB0, symSize: 0x90 }
  - { offset: 0x41A67, size: 0x8, addend: 0x0, symName: __ZNSt3__117__swap_bitmap_posB8ne180100INS_17_ClassicAlgPolicyEPPKN7doctest6detail8TestCaseEEEvT0_S8_RyS9_, symObjAddr: 0x25980, symBinAddr: 0x100027040, symSize: 0xE0 }
  - { offset: 0x41B08, size: 0x8, addend: 0x0, symName: __ZNSt3__133__bitset_partition_partial_blocksB8ne180100INS_17_ClassicAlgPolicyERPFbPKN7doctest6detail8TestCaseES6_EPS6_S6_EEvRT1_SC_T0_RT2_RySG_, symObjAddr: 0x25A60, symBinAddr: 0x100027120, symSize: 0x270 }
  - { offset: 0x41C8F, size: 0x8, addend: 0x0, symName: __ZNSt3__19make_pairB8ne180100IRPPKN7doctest6detail8TestCaseERbEENS_4pairINS_18__unwrap_ref_decayIT_E4typeENSA_IT0_E4typeEEEOSB_OSE_, symObjAddr: 0x25E60, symBinAddr: 0x100027520, symSize: 0x30 }
  - { offset: 0x41CDF, size: 0x8, addend: 0x0, symName: __ZNSt3__112__libcpp_ctzB8ne180100Ey, symObjAddr: 0x25E90, symBinAddr: 0x100027550, symSize: 0x20 }
  - { offset: 0x41D0D, size: 0x8, addend: 0x0, symName: __ZNSt3__113__libcpp_blsrB8ne180100Ey, symObjAddr: 0x25EB0, symBinAddr: 0x100027570, symSize: 0x20 }
  - { offset: 0x41D3B, size: 0x8, addend: 0x0, symName: __ZNSt3__112__libcpp_clzB8ne180100Ey, symObjAddr: 0x25F00, symBinAddr: 0x1000275C0, symSize: 0x20 }
  - { offset: 0x41E91, size: 0x8, addend: 0x0, symName: __ZNSt3__112__to_addressB8ne180100INS_11__wrap_iterIPPKN7doctest6detail8TestCaseEEEvEEu7__decayIDTclsr19__to_address_helperIT_EE6__callclsr3stdE7declvalIRKS9_EEEEESB_, symObjAddr: 0x25FA0, symBinAddr: 0x100027660, symSize: 0x20 }
  - { offset: 0x41F31, size: 0x8, addend: 0x0, symName: __ZNSt3__1eqB8ne180100IPPKN7doctest6detail8TestCaseEEEbRKNS_11__wrap_iterIT_EESB_, symObjAddr: 0x261F0, symBinAddr: 0x1000278B0, symSize: 0x40 }
  - { offset: 0x41F77, size: 0x8, addend: 0x0, symName: __ZNSt3__112__to_addressB8ne180100IPKN7doctest12TestCaseDataEEEPT_S6_, symObjAddr: 0x26470, symBinAddr: 0x100027B30, symSize: 0x10 }
  - { offset: 0x41FAE, size: 0x8, addend: 0x0, symName: __ZNSt3__114__construct_atB8ne180100IPKN7doctest12TestCaseDataEJS4_EPS4_EEPT_S7_DpOT0_, symObjAddr: 0x264E0, symBinAddr: 0x100027BA0, symSize: 0x30 }
  - { offset: 0x42004, size: 0x8, addend: 0x0, symName: __ZNSt3__112construct_atB8ne180100IPKN7doctest12TestCaseDataEJS4_EPS4_EEPT_S7_DpOT0_, symObjAddr: 0x26510, symBinAddr: 0x100027BD0, symSize: 0x20 }
  - { offset: 0x4205A, size: 0x8, addend: 0x0, symName: __ZNSt3__119__allocate_at_leastB8ne180100INS_9allocatorIPKN7doctest12TestCaseDataEEEEENS_19__allocation_resultINS_16allocator_traitsIT_E7pointerEEERS9_m, symObjAddr: 0x26A00, symBinAddr: 0x1000280C0, symSize: 0x40 }
  - { offset: 0x4209F, size: 0x8, addend: 0x0, symName: __ZNSt3__142__uninitialized_allocator_move_if_noexceptB8ne180100INS_9allocatorIPKN7doctest12TestCaseDataEEENS_16reverse_iteratorIPS5_EES9_S5_vEET1_RT_T0_SD_SA_, symObjAddr: 0x26BA0, symBinAddr: 0x100028260, symSize: 0x70 }
  - { offset: 0x4211C, size: 0x8, addend: 0x0, symName: __ZNSt3__14swapB8ne180100IPPKN7doctest12TestCaseDataEEENS_9enable_ifIXaasr21is_move_constructibleIT_EE5valuesr18is_move_assignableIS7_EE5valueEvE4typeERS7_SA_, symObjAddr: 0x26C60, symBinAddr: 0x100028320, symSize: 0x40 }
  - { offset: 0x42171, size: 0x8, addend: 0x0, symName: __ZNSt3__14moveB8ne180100INS_16reverse_iteratorIPPKN7doctest12TestCaseDataEEES7_EET0_T_S9_S8_, symObjAddr: 0x26CB0, symBinAddr: 0x100028370, symSize: 0x80 }
  - { offset: 0x421CF, size: 0x8, addend: 0x0, symName: __ZNSt3__16__moveB8ne180100INS_17_ClassicAlgPolicyENS_16reverse_iteratorIPPKN7doctest12TestCaseDataEEES8_S8_EENS_4pairIT0_T2_EESA_T1_SB_, symObjAddr: 0x26D30, symBinAddr: 0x1000283F0, symSize: 0x90 }
  - { offset: 0x4223F, size: 0x8, addend: 0x0, symName: __ZNSt3__123__dispatch_copy_or_moveB8ne180100INS_17_ClassicAlgPolicyENS_11__move_loopIS1_EENS_14__move_trivialENS_16reverse_iteratorIPPKN7doctest12TestCaseDataEEESB_SB_EENS_4pairIT2_T4_EESD_T3_SE_, symObjAddr: 0x26DC0, symBinAddr: 0x100028480, symSize: 0x90 }
  - { offset: 0x422C1, size: 0x8, addend: 0x0, symName: __ZNSt3__121__unwrap_and_dispatchB8ne180100INS_10__overloadINS_11__move_loopINS_17_ClassicAlgPolicyEEENS_14__move_trivialEEENS_16reverse_iteratorIPPKN7doctest12TestCaseDataEEESD_SD_Li0EEENS_4pairIT0_T2_EESF_T1_SG_, symObjAddr: 0x26E50, symBinAddr: 0x100028510, symSize: 0x210 }
  - { offset: 0x42357, size: 0x8, addend: 0x0, symName: __ZNSt3__114__unwrap_rangeB8ne180100INS_16reverse_iteratorIPPKN7doctest12TestCaseDataEEES7_EEDaT_T0_, symObjAddr: 0x27060, symBinAddr: 0x100028720, symSize: 0x60 }
  - { offset: 0x4247B, size: 0x8, addend: 0x0, symName: __ZNSt3__113__unwrap_iterB8ne180100INS_16reverse_iteratorIPPKN7doctest12TestCaseDataEEENS_18__unwrap_iter_implIS7_Lb0EEELi0EEEDTclsrT0_8__unwrapclsr3stdE7declvalIT_EEEESB_, symObjAddr: 0x27160, symBinAddr: 0x100028820, symSize: 0x40 }
  - { offset: 0x424C1, size: 0x8, addend: 0x0, symName: __ZNSt3__19make_pairB8ne180100INS_16reverse_iteratorIPPKN7doctest12TestCaseDataEEES7_EENS_4pairINS_18__unwrap_ref_decayIT_E4typeENS9_IT0_E4typeEEEOSA_OSD_, symObjAddr: 0x271A0, symBinAddr: 0x100028860, symSize: 0x30 }
  - { offset: 0x42511, size: 0x8, addend: 0x0, symName: __ZNSt3__114__rewrap_rangeB8ne180100INS_16reverse_iteratorIPPKN7doctest12TestCaseDataEEES7_S7_EET0_S8_T1_, symObjAddr: 0x271D0, symBinAddr: 0x100028890, symSize: 0x60 }
  - { offset: 0x42569, size: 0x8, addend: 0x0, symName: __ZNSt3__113__rewrap_iterB8ne180100INS_16reverse_iteratorIPPKN7doctest12TestCaseDataEEES7_NS_18__unwrap_iter_implIS7_Lb0EEEEET_SA_T0_, symObjAddr: 0x27230, symBinAddr: 0x1000288F0, symSize: 0x70 }
  - { offset: 0x42611, size: 0x8, addend: 0x0, symName: __ZNSt3__1neB8ne180100IPPKN7doctest12TestCaseDataES5_EEbRKNS_16reverse_iteratorIT_EERKNS6_IT0_EE, symObjAddr: 0x273A0, symBinAddr: 0x100028A60, symSize: 0x40 }
  - { offset: 0x426B3, size: 0x8, addend: 0x0, symName: __ZNSt3__112__destroy_atB8ne180100IPKN7doctest12TestCaseDataELi0EEEvPT_, symObjAddr: 0x27700, symBinAddr: 0x100028DC0, symSize: 0x10 }
  - { offset: 0x426EC, size: 0x8, addend: 0x0, symName: __ZNSt3__1lsB8ne180100IcNS_11char_traitsIcEENS_9allocatorIcEEEERNS_13basic_ostreamIT_T0_EES9_RKNS_12basic_stringIS6_S7_T1_EE, symObjAddr: 0x283B0, symBinAddr: 0x100029A70, symSize: 0x50 }
  - { offset: 0x42744, size: 0x8, addend: 0x0, symName: __ZNSt3__1plB8ne180100IcNS_11char_traitsIcEENS_9allocatorIcEEEENS_12basic_stringIT_T0_T1_EERKS9_PKS6_, symObjAddr: 0x28400, symBinAddr: 0x100029AC0, symSize: 0xF0 }
  - { offset: 0x427E5, size: 0x8, addend: 0x0, symName: __ZNSt3__116__pad_and_outputB8ne180100IcNS_11char_traitsIcEEEENS_19ostreambuf_iteratorIT_T0_EES6_PKS4_S8_S8_RNS_8ios_baseES4_, symObjAddr: 0x28700, symBinAddr: 0x100029DC0, symSize: 0x220 }
  - { offset: 0x428B6, size: 0x8, addend: 0x0, symName: __ZNSt3__19use_facetB8ne180100INS_5ctypeIcEEEERKT_RKNS_6localeE, symObjAddr: 0x28BD0, symBinAddr: 0x10002A290, symSize: 0x30 }
  - { offset: 0x42D86, size: 0x8, addend: 0x0, symName: __ZNSt3__14copyB8ne180100IPKcPcEET0_T_S5_S4_, symObjAddr: 0x29230, symBinAddr: 0x10002A8F0, symSize: 0x40 }
  - { offset: 0x42DE4, size: 0x8, addend: 0x0, symName: __ZNSt3__16__copyB8ne180100INS_17_ClassicAlgPolicyEPKcS3_PcEENS_4pairIT0_T2_EES6_T1_S7_, symObjAddr: 0x29270, symBinAddr: 0x10002A930, symSize: 0x40 }
  - { offset: 0x42E54, size: 0x8, addend: 0x0, symName: __ZNSt3__123__dispatch_copy_or_moveB8ne180100INS_17_ClassicAlgPolicyENS_11__copy_loopIS1_EENS_14__copy_trivialEPKcS6_PcEENS_4pairIT2_T4_EES9_T3_SA_, symObjAddr: 0x292B0, symBinAddr: 0x10002A970, symSize: 0x40 }
  - { offset: 0x42ED6, size: 0x8, addend: 0x0, symName: __ZNSt3__121__unwrap_and_dispatchB8ne180100INS_10__overloadINS_11__copy_loopINS_17_ClassicAlgPolicyEEENS_14__copy_trivialEEEPKcS8_PcLi0EEENS_4pairIT0_T2_EESB_T1_SC_, symObjAddr: 0x292F0, symBinAddr: 0x10002A9B0, symSize: 0xB0 }
  - { offset: 0x42F6C, size: 0x8, addend: 0x0, symName: __ZNSt3__114__unwrap_rangeB8ne180100IPKcS2_EEDaT_T0_, symObjAddr: 0x293A0, symBinAddr: 0x10002AA60, symSize: 0x40 }
  - { offset: 0x43107, size: 0x8, addend: 0x0, symName: __ZNSt3__113__unwrap_iterB8ne180100IPcNS_18__unwrap_iter_implIS1_Lb1EEELi0EEEDTclsrT0_8__unwrapclsr3stdE7declvalIT_EEEES5_, symObjAddr: 0x29420, symBinAddr: 0x10002AAE0, symSize: 0x20 }
  - { offset: 0x4314D, size: 0x8, addend: 0x0, symName: __ZNSt3__19make_pairB8ne180100IPKcPcEENS_4pairINS_18__unwrap_ref_decayIT_E4typeENS5_IT0_E4typeEEEOS6_OS9_, symObjAddr: 0x29440, symBinAddr: 0x10002AB00, symSize: 0x30 }
  - { offset: 0x4319D, size: 0x8, addend: 0x0, symName: __ZNSt3__114__rewrap_rangeB8ne180100IPKcS2_S2_EET0_S3_T1_, symObjAddr: 0x29470, symBinAddr: 0x10002AB30, symSize: 0x30 }
  - { offset: 0x431F5, size: 0x8, addend: 0x0, symName: __ZNSt3__113__rewrap_iterB8ne180100IPcS1_NS_18__unwrap_iter_implIS1_Lb1EEEEET_S4_T0_, symObjAddr: 0x294A0, symBinAddr: 0x10002AB60, symSize: 0x40 }
  - { offset: 0x4336A, size: 0x8, addend: 0x0, symName: __ZNSt3__113__unwrap_iterB8ne180100IPKcNS_18__unwrap_iter_implIS2_Lb1EEELi0EEEDTclsrT0_8__unwrapclsr3stdE7declvalIT_EEEES6_, symObjAddr: 0x29530, symBinAddr: 0x10002ABF0, symSize: 0x20 }
  - { offset: 0x43404, size: 0x8, addend: 0x0, symName: __ZNSt3__119__copy_trivial_implB8ne180100IKccEENS_4pairIPT_PT0_EES4_S4_S6_, symObjAddr: 0x295D0, symBinAddr: 0x10002AC90, symSize: 0x70 }
  - { offset: 0x43471, size: 0x8, addend: 0x0, symName: __ZNSt3__119__constexpr_memmoveB8ne180100IcKcLi0EEEPT_S3_PT0_NS_15__element_countE, symObjAddr: 0x29640, symBinAddr: 0x10002AD00, symSize: 0x50 }
  - { offset: 0x434E4, size: 0x8, addend: 0x0, symName: __ZNSt3__19make_pairB8ne180100IRPKcPcEENS_4pairINS_18__unwrap_ref_decayIT_E4typeENS6_IT0_E4typeEEEOS7_OSA_, symObjAddr: 0x29690, symBinAddr: 0x10002AD50, symSize: 0x30 }
  - { offset: 0x43587, size: 0x8, addend: 0x0, symName: __ZNSt3__113__rewrap_iterB8ne180100IPKcS2_NS_18__unwrap_iter_implIS2_Lb1EEEEET_S5_T0_, symObjAddr: 0x297D0, symBinAddr: 0x10002AE90, symSize: 0x40 }
  - { offset: 0x435DF, size: 0x8, addend: 0x0, symName: __ZNSt3__16fill_nB8ne180100IPcmcEET_S2_T0_RKT1_, symObjAddr: 0x29890, symBinAddr: 0x10002AF50, symSize: 0x40 }
  - { offset: 0x43646, size: 0x8, addend: 0x0, symName: __ZNSt3__18__fill_nB8ne180100IPcmcEET_S2_T0_RKT1_, symObjAddr: 0x298D0, symBinAddr: 0x10002AF90, symSize: 0x50 }
  - { offset: 0x436AD, size: 0x8, addend: 0x0, symName: __ZNSt3__121__convert_to_integralB8ne180100Em, symObjAddr: 0x29920, symBinAddr: 0x10002AFE0, symSize: 0x10 }
  - { offset: 0x436DB, size: 0x8, addend: 0x0, symName: __ZNSt3__18distanceB8ne180100INS_11__wrap_iterIPKcEEEENS_15iterator_traitsIT_E15difference_typeES6_S6_, symObjAddr: 0x2AB20, symBinAddr: 0x10002C1E0, symSize: 0x40 }
  - { offset: 0x43721, size: 0x8, addend: 0x0, symName: __ZNSt3__110__distanceB8ne180100INS_11__wrap_iterIPKcEEEENS_15iterator_traitsIT_E15difference_typeES6_S6_NS_26random_access_iterator_tagE, symObjAddr: 0x2ACC0, symBinAddr: 0x10002C380, symSize: 0x30 }
  - { offset: 0x43772, size: 0x8, addend: 0x0, symName: __ZNSt3__1miB8ne180100IPKcS2_EEDTmicldtfp_4baseEcldtfp0_4baseEERKNS_11__wrap_iterIT_EERKNS4_IT0_EE, symObjAddr: 0x2ACF0, symBinAddr: 0x10002C3B0, symSize: 0x40 }
  - { offset: 0x437C1, size: 0x8, addend: 0x0, symName: __ZNSt3__119__allocate_at_leastB8ne180100INS_9allocatorIcEEEENS_19__allocation_resultINS_16allocator_traitsIT_E7pointerEEERS5_m, symObjAddr: 0x2AD50, symBinAddr: 0x10002C410, symSize: 0x40 }
  - { offset: 0x43807, size: 0x8, addend: 0x0, symName: __ZNSt3__1neB8ne180100IPKcEEbRKNS_11__wrap_iterIT_EES7_, symObjAddr: 0x2AD90, symBinAddr: 0x10002C450, symSize: 0x30 }
  - { offset: 0x4384D, size: 0x8, addend: 0x0, symName: __ZNSt3__1eqB8ne180100IPKcEEbRKNS_11__wrap_iterIT_EES7_, symObjAddr: 0x2ADC0, symBinAddr: 0x10002C480, symSize: 0x40 }
  - { offset: 0x43893, size: 0x8, addend: 0x0, symName: __ZNSt3__112__to_addressB8ne180100IN2ds5TokenEEEPT_S4_, symObjAddr: 0x2B120, symBinAddr: 0x10002C7E0, symSize: 0x10 }
  - { offset: 0x438CA, size: 0x8, addend: 0x0, symName: __ZNSt3__114__construct_atB8ne180100IN2ds5TokenEJRKS2_EPS2_EEPT_S7_DpOT0_, symObjAddr: 0x2B190, symBinAddr: 0x10002C850, symSize: 0x30 }
  - { offset: 0x43920, size: 0x8, addend: 0x0, symName: __ZNSt3__112construct_atB8ne180100IN2ds5TokenEJRKS2_EPS2_EEPT_S7_DpOT0_, symObjAddr: 0x2B1C0, symBinAddr: 0x10002C880, symSize: 0x30 }
  - { offset: 0x43976, size: 0x8, addend: 0x0, symName: __ZNSt3__119__allocate_at_leastB8ne180100INS_9allocatorIN2ds5TokenEEEEENS_19__allocation_resultINS_16allocator_traitsIT_E7pointerEEERS7_m, symObjAddr: 0x2B750, symBinAddr: 0x10002CE10, symSize: 0x40 }
  - { offset: 0x439BB, size: 0x8, addend: 0x0, symName: __ZNSt3__142__uninitialized_allocator_move_if_noexceptB8ne180100INS_9allocatorIN2ds5TokenEEENS_16reverse_iteratorIPS3_EES7_S7_EET2_RT_T0_T1_S8_, symObjAddr: 0x2B8F0, symBinAddr: 0x10002CFB0, symSize: 0x180 }
  - { offset: 0x43A5B, size: 0x8, addend: 0x0, symName: __ZNSt3__14swapB8ne180100IPN2ds5TokenEEENS_9enable_ifIXaasr21is_move_constructibleIT_EE5valuesr18is_move_assignableIS5_EE5valueEvE4typeERS5_S8_, symObjAddr: 0x2BAC0, symBinAddr: 0x10002D180, symSize: 0x40 }
  - { offset: 0x43AB0, size: 0x8, addend: 0x0, symName: __ZNSt3__122__make_exception_guardB8ne180100INS_29_AllocatorDestroyRangeReverseINS_9allocatorIN2ds5TokenEEENS_16reverse_iteratorIPS4_EEEEEENS_28__exception_guard_exceptionsIT_EESB_, symObjAddr: 0x2BB10, symBinAddr: 0x10002D1D0, symSize: 0x60 }
  - { offset: 0x43AE7, size: 0x8, addend: 0x0, symName: __ZNSt3__1neB8ne180100IPN2ds5TokenES3_EEbRKNS_16reverse_iteratorIT_EERKNS4_IT0_EE, symObjAddr: 0x2BBB0, symBinAddr: 0x10002D270, symSize: 0x40 }
  - { offset: 0x43B36, size: 0x8, addend: 0x0, symName: __ZNSt3__112__to_addressB8ne180100INS_16reverse_iteratorIPN2ds5TokenEEEvEEu7__decayIDTclsr19__to_address_helperIT_EE6__callclsr3stdE7declvalIRKS6_EEEEES8_, symObjAddr: 0x2BC20, symBinAddr: 0x10002D2E0, symSize: 0x20 }
  - { offset: 0x43B6E, size: 0x8, addend: 0x0, symName: __ZNSt3__114__construct_atB8ne180100IN2ds5TokenEJS2_EPS2_EEPT_S5_DpOT0_, symObjAddr: 0x2BD80, symBinAddr: 0x10002D440, symSize: 0x30 }
  - { offset: 0x43BC4, size: 0x8, addend: 0x0, symName: __ZNSt3__112construct_atB8ne180100IN2ds5TokenEJS2_EPS2_EEPT_S5_DpOT0_, symObjAddr: 0x2BDB0, symBinAddr: 0x10002D470, symSize: 0x30 }
  - { offset: 0x43C44, size: 0x8, addend: 0x0, symName: __ZNSt3__14prevB8ne180100IPN2ds5TokenELi0EEET_S4_NS_15iterator_traitsIS4_E15difference_typeE, symObjAddr: 0x2BEC0, symBinAddr: 0x10002D580, symSize: 0x30 }
  - { offset: 0x43C91, size: 0x8, addend: 0x0, symName: __ZNSt3__19__advanceB8ne180100IPN2ds5TokenEEEvRT_NS_15iterator_traitsIS4_E15difference_typeENS_26random_access_iterator_tagE, symObjAddr: 0x2BF20, symBinAddr: 0x10002D5E0, symSize: 0x20 }
  - { offset: 0x43CDD, size: 0x8, addend: 0x0, symName: __ZNSt3__119__allocator_destroyB8ne180100INS_9allocatorIN2ds5TokenEEENS_16reverse_iteratorINS5_IPS3_EEEES8_EEvRT_T0_T1_, symObjAddr: 0x2C070, symBinAddr: 0x10002D730, symSize: 0x70 }
  - { offset: 0x43D41, size: 0x8, addend: 0x0, symName: __ZNSt3__1neB8ne180100INS_16reverse_iteratorIPN2ds5TokenEEES5_EEbRKNS1_IT_EERKNS1_IT0_EE, symObjAddr: 0x2C110, symBinAddr: 0x10002D7D0, symSize: 0x50 }
  - { offset: 0x43D90, size: 0x8, addend: 0x0, symName: __ZNSt3__112__to_addressB8ne180100INS_16reverse_iteratorINS1_IPN2ds5TokenEEEEEvEEu7__decayIDTclsr19__to_address_helperIT_EE6__callclsr3stdE7declvalIRKS7_EEEEES9_, symObjAddr: 0x2C180, symBinAddr: 0x10002D840, symSize: 0x20 }
  - { offset: 0x43DC8, size: 0x8, addend: 0x0, symName: __ZNSt3__112__destroy_atB8ne180100IN2ds5TokenELi0EEEvPT_, symObjAddr: 0x2C1F0, symBinAddr: 0x10002D8B0, symSize: 0x20 }
  - { offset: 0x43E2C, size: 0x8, addend: 0x0, symName: __ZNSt3__14prevB8ne180100INS_16reverse_iteratorIPN2ds5TokenEEELi0EEET_S6_NS_15iterator_traitsIS6_E15difference_typeE, symObjAddr: 0x2C2A0, symBinAddr: 0x10002D960, symSize: 0x40 }
  - { offset: 0x43E79, size: 0x8, addend: 0x0, symName: __ZNSt3__19__advanceB8ne180100INS_16reverse_iteratorIPN2ds5TokenEEEEEvRT_NS_15iterator_traitsIS6_E15difference_typeENS_26random_access_iterator_tagE, symObjAddr: 0x2C310, symBinAddr: 0x10002D9D0, symSize: 0x30 }
  - { offset: 0x43EC5, size: 0x8, addend: 0x0, symName: __ZNSt3__1eqB8ne180100INS_9allocatorIcEEEEbRKNS_12basic_stringIcNS_11char_traitsIcEET_EES9_, symObjAddr: 0x2C7F0, symBinAddr: 0x10002DEB0, symSize: 0x110 }
  - { offset: 0x43F38, size: 0x8, addend: 0x0, symName: __ZNSt3__1neB8ne180100ERKNS_16__deque_iteratorIN2ds5TokenEPS2_RS2_PS3_lLl128EEES8_, symObjAddr: 0x2D0B0, symBinAddr: 0x10002E770, symSize: 0x30 }
  - { offset: 0x43F75, size: 0x8, addend: 0x0, symName: __ZNSt3__1eqB8ne180100ERKNS_16__deque_iteratorIN2ds5TokenEPS2_RS2_PS3_lLl128EEES8_, symObjAddr: 0x2D2F0, symBinAddr: 0x10002E9B0, symSize: 0x30 }
  - { offset: 0x43FB3, size: 0x8, addend: 0x0, symName: __ZNSt3__112__to_addressB8ne180100IPN2ds5TokenEEEPT_S5_, symObjAddr: 0x2D590, symBinAddr: 0x10002EC50, symSize: 0x10 }
  - { offset: 0x43FEA, size: 0x8, addend: 0x0, symName: __ZNSt3__112__destroy_atB8ne180100IPN2ds5TokenELi0EEEvPT_, symObjAddr: 0x2D5A0, symBinAddr: 0x10002EC60, symSize: 0x10 }
  - { offset: 0x44024, size: 0x8, addend: 0x0, symName: __ZNSt3__1neB8ne180100IPKiEEbRKNS_11__wrap_iterIT_EES7_, symObjAddr: 0x2D770, symBinAddr: 0x10002EE30, symSize: 0x30 }
  - { offset: 0x4406A, size: 0x8, addend: 0x0, symName: __ZNSt3__1eqB8ne180100IPKiEEbRKNS_11__wrap_iterIT_EES7_, symObjAddr: 0x2D860, symBinAddr: 0x10002EF20, symSize: 0x40 }
  - { offset: 0x440B0, size: 0x8, addend: 0x0, symName: __ZNSt3__112__to_addressB8ne180100IiEEPT_S2_, symObjAddr: 0x2DB60, symBinAddr: 0x10002F220, symSize: 0x10 }
  - { offset: 0x440E7, size: 0x8, addend: 0x0, symName: __ZNSt3__112__destroy_atB8ne180100IiLi0EEEvPT_, symObjAddr: 0x2DB70, symBinAddr: 0x10002F230, symSize: 0x10 }
  - { offset: 0x44120, size: 0x8, addend: 0x0, symName: __ZNSt3__118__cxx_atomic_storeB8ne180100IbEEvPNS_22__cxx_atomic_base_implIT_EES2_NS_12memory_orderE, symObjAddr: 0x2DF40, symBinAddr: 0x10002F600, symSize: 0x70 }
  - { offset: 0x44172, size: 0x8, addend: 0x0, symName: __ZNSt3__116__constrain_hashB8ne180100Emm, symObjAddr: 0x2E1D0, symBinAddr: 0x10002F890, symSize: 0x80 }
  - { offset: 0x441AF, size: 0x8, addend: 0x0, symName: __ZNSt3__116__is_hash_power2B8ne180100Em, symObjAddr: 0x2ECB0, symBinAddr: 0x100030370, symSize: 0x40 }
  - { offset: 0x441FB, size: 0x8, addend: 0x0, symName: __ZNSt3__114__construct_atB8ne180100INS_11__hash_nodeIyPvEEJDnRmEPS3_EEPT_S7_DpOT0_, symObjAddr: 0x2EEA0, symBinAddr: 0x100030560, symSize: 0x30 }
  - { offset: 0x44265, size: 0x8, addend: 0x0, symName: __ZNSt3__112construct_atB8ne180100INS_11__hash_nodeIyPvEEJDnRmEPS3_EEPT_S7_DpOT0_, symObjAddr: 0x2F0F0, symBinAddr: 0x1000307B0, symSize: 0x40 }
  - { offset: 0x442CF, size: 0x8, addend: 0x0, symName: __ZNSt3__114__construct_atB8ne180100IyJyEPyEEPT_S3_DpOT0_, symObjAddr: 0x2F1F0, symBinAddr: 0x1000308B0, symSize: 0x30 }
  - { offset: 0x44325, size: 0x8, addend: 0x0, symName: __ZNSt3__112construct_atB8ne180100IyJyEPyEEPT_S3_DpOT0_, symObjAddr: 0x2F220, symBinAddr: 0x1000308E0, symSize: 0x20 }
  - { offset: 0x4437B, size: 0x8, addend: 0x0, symName: __ZNSt3__116__next_hash_pow2B8ne180100Em, symObjAddr: 0x2F740, symBinAddr: 0x100030E00, symSize: 0x60 }
  - { offset: 0x443A9, size: 0x8, addend: 0x0, symName: __ZNSt3__112__destroy_atB8ne180100IN7doctest6detail8TestCaseELi0EEEvPT_, symObjAddr: 0x2FF70, symBinAddr: 0x100031630, symSize: 0x20 }
  - { offset: 0x44401, size: 0x8, addend: 0x0, symName: __ZNSt3__114__construct_atB8ne180100IN7doctest6detail8TestCaseEJRKS3_EPS3_EEPT_S8_DpOT0_, symObjAddr: 0x30900, symBinAddr: 0x100031FC0, symSize: 0x30 }
  - { offset: 0x44457, size: 0x8, addend: 0x0, symName: __ZNSt3__112construct_atB8ne180100IN7doctest6detail8TestCaseEJRKS3_EPS3_EEPT_S8_DpOT0_, symObjAddr: 0x30930, symBinAddr: 0x100031FF0, symSize: 0x30 }
  - { offset: 0x444AC, size: 0x8, addend: 0x0, symName: __ZNSt3__127__tree_balance_after_insertB8ne180100IPNS_16__tree_node_baseIPvEEEEvT_S5_, symObjAddr: 0x309C0, symBinAddr: 0x100032080, symSize: 0x320 }
  - { offset: 0x44529, size: 0x8, addend: 0x0, symName: __ZNSt3__120__tree_is_left_childB8ne180100IPNS_16__tree_node_baseIPvEEEEbT_, symObjAddr: 0x30D20, symBinAddr: 0x1000323E0, symSize: 0x30 }
  - { offset: 0x44560, size: 0x8, addend: 0x0, symName: __ZNSt3__118__tree_left_rotateB8ne180100IPNS_16__tree_node_baseIPvEEEEvT_, symObjAddr: 0x30D50, symBinAddr: 0x100032410, symSize: 0xD0 }
  - { offset: 0x445A1, size: 0x8, addend: 0x0, symName: __ZNSt3__119__tree_right_rotateB8ne180100IPNS_16__tree_node_baseIPvEEEEvT_, symObjAddr: 0x30E20, symBinAddr: 0x1000324E0, symSize: 0xC0 }
  - { offset: 0x445E4, size: 0x8, addend: 0x0, symName: __ZNSt3__110to_addressB8ne180100IcEEDaPT_, symObjAddr: 0x31460, symBinAddr: 0x100032B20, symSize: 0x20 }
  - { offset: 0x4461A, size: 0x8, addend: 0x0, symName: __ZNSt3__1neB8ne180100ERKNS_15__tree_iteratorINS_12__value_typeINS_4pairIiN7doctest6StringEEEPFPNS3_9IReporterERKNS3_14ContextOptionsEEEEPNS_11__tree_nodeISD_PvEElEESK_, symObjAddr: 0x31650, symBinAddr: 0x100032D10, symSize: 0x30 }
  - { offset: 0x44657, size: 0x8, addend: 0x0, symName: __ZNSt3__1eqB8ne180100ERKNS_15__tree_iteratorINS_12__value_typeINS_4pairIiN7doctest6StringEEEPFPNS3_9IReporterERKNS3_14ContextOptionsEEEEPNS_11__tree_nodeISD_PvEElEESK_, symObjAddr: 0x31680, symBinAddr: 0x100032D40, symSize: 0x30 }
  - { offset: 0x44695, size: 0x8, addend: 0x0, symName: __ZNSt3__116__tree_next_iterB8ne180100IPNS_15__tree_end_nodeIPNS_16__tree_node_baseIPvEEEES5_EET_T0_, symObjAddr: 0x316E0, symBinAddr: 0x100032DA0, symSize: 0x80 }
  - { offset: 0x446D5, size: 0x8, addend: 0x0, symName: __ZNSt3__110__tree_minB8ne180100IPNS_16__tree_node_baseIPvEEEET_S5_, symObjAddr: 0x31760, symBinAddr: 0x100032E20, symSize: 0x30 }
  - { offset: 0x4473E, size: 0x8, addend: 0x0, symName: __ZNSt3__1lsB8ne180100INS_11char_traitsIcEEEERNS_13basic_ostreamIcT_EES6_c, symObjAddr: 0x34A00, symBinAddr: 0x1000360C0, symSize: 0x30 }
  - { offset: 0x44784, size: 0x8, addend: 0x0, symName: __ZNSt3__14endlB8ne180100IcNS_11char_traitsIcEEEERNS_13basic_ostreamIT_T0_EES7_, symObjAddr: 0x34B00, symBinAddr: 0x1000361C0, symSize: 0x50 }
  - { offset: 0x447C5, size: 0x8, addend: 0x0, symName: __ZNSt3__112__to_addressB8ne180100INS_12basic_stringIcNS_11char_traitsIcEENS_9allocatorIcEEEEEEPT_S8_, symObjAddr: 0x34D90, symBinAddr: 0x100036450, symSize: 0x10 }
  - { offset: 0x447FC, size: 0x8, addend: 0x0, symName: __ZNSt3__114__construct_atB8ne180100INS_12basic_stringIcNS_11char_traitsIcEENS_9allocatorIcEEEEJRKS6_EPS6_EEPT_SB_DpOT0_, symObjAddr: 0x34E00, symBinAddr: 0x1000364C0, symSize: 0x30 }
  - { offset: 0x44852, size: 0x8, addend: 0x0, symName: __ZNSt3__112construct_atB8ne180100INS_12basic_stringIcNS_11char_traitsIcEENS_9allocatorIcEEEEJRKS6_EPS6_EEPT_SB_DpOT0_, symObjAddr: 0x34E30, symBinAddr: 0x1000364F0, symSize: 0x30 }
  - { offset: 0x448A8, size: 0x8, addend: 0x0, symName: __ZNSt3__119__allocate_at_leastB8ne180100INS_9allocatorINS_12basic_stringIcNS_11char_traitsIcEENS1_IcEEEEEEEENS_19__allocation_resultINS_16allocator_traitsIT_E7pointerEEERSA_m, symObjAddr: 0x35370, symBinAddr: 0x100036A30, symSize: 0x40 }
  - { offset: 0x448ED, size: 0x8, addend: 0x0, symName: __ZNSt3__142__uninitialized_allocator_move_if_noexceptB8ne180100INS_9allocatorINS_12basic_stringIcNS_11char_traitsIcEENS1_IcEEEEEENS_16reverse_iteratorIPS6_EESA_SA_EET2_RT_T0_T1_SB_, symObjAddr: 0x35510, symBinAddr: 0x100036BD0, symSize: 0x180 }
  - { offset: 0x4498D, size: 0x8, addend: 0x0, symName: __ZNSt3__14swapB8ne180100IPNS_12basic_stringIcNS_11char_traitsIcEENS_9allocatorIcEEEEEENS_9enable_ifIXaasr21is_move_constructibleIT_EE5valuesr18is_move_assignableIS9_EE5valueEvE4typeERS9_SC_, symObjAddr: 0x356E0, symBinAddr: 0x100036DA0, symSize: 0x40 }
  - { offset: 0x449E2, size: 0x8, addend: 0x0, symName: __ZNSt3__122__make_exception_guardB8ne180100INS_29_AllocatorDestroyRangeReverseINS_9allocatorINS_12basic_stringIcNS_11char_traitsIcEENS2_IcEEEEEENS_16reverse_iteratorIPS7_EEEEEENS_28__exception_guard_exceptionsIT_EESE_, symObjAddr: 0x35730, symBinAddr: 0x100036DF0, symSize: 0x60 }
  - { offset: 0x44A19, size: 0x8, addend: 0x0, symName: __ZNSt3__1neB8ne180100IPNS_12basic_stringIcNS_11char_traitsIcEENS_9allocatorIcEEEES7_EEbRKNS_16reverse_iteratorIT_EERKNS8_IT0_EE, symObjAddr: 0x357D0, symBinAddr: 0x100036E90, symSize: 0x40 }
  - { offset: 0x44A68, size: 0x8, addend: 0x0, symName: __ZNSt3__112__to_addressB8ne180100INS_16reverse_iteratorIPNS_12basic_stringIcNS_11char_traitsIcEENS_9allocatorIcEEEEEEvEEu7__decayIDTclsr19__to_address_helperIT_EE6__callclsr3stdE7declvalIRKSA_EEEEESC_, symObjAddr: 0x35840, symBinAddr: 0x100036F00, symSize: 0x20 }
  - { offset: 0x44AA0, size: 0x8, addend: 0x0, symName: __ZNSt3__114__construct_atB8ne180100INS_12basic_stringIcNS_11char_traitsIcEENS_9allocatorIcEEEEJS6_EPS6_EEPT_S9_DpOT0_, symObjAddr: 0x359A0, symBinAddr: 0x100037060, symSize: 0x30 }
  - { offset: 0x44AF6, size: 0x8, addend: 0x0, symName: __ZNSt3__112construct_atB8ne180100INS_12basic_stringIcNS_11char_traitsIcEENS_9allocatorIcEEEEJS6_EPS6_EEPT_S9_DpOT0_, symObjAddr: 0x359D0, symBinAddr: 0x100037090, symSize: 0x30 }
  - { offset: 0x44B76, size: 0x8, addend: 0x0, symName: __ZNSt3__14prevB8ne180100IPNS_12basic_stringIcNS_11char_traitsIcEENS_9allocatorIcEEEELi0EEET_S8_NS_15iterator_traitsIS8_E15difference_typeE, symObjAddr: 0x35A70, symBinAddr: 0x100037130, symSize: 0x30 }
  - { offset: 0x44BC3, size: 0x8, addend: 0x0, symName: __ZNSt3__19__advanceB8ne180100IPNS_12basic_stringIcNS_11char_traitsIcEENS_9allocatorIcEEEEEEvRT_NS_15iterator_traitsIS8_E15difference_typeENS_26random_access_iterator_tagE, symObjAddr: 0x35AD0, symBinAddr: 0x100037190, symSize: 0x20 }
  - { offset: 0x44C0F, size: 0x8, addend: 0x0, symName: __ZNSt3__119__allocator_destroyB8ne180100INS_9allocatorINS_12basic_stringIcNS_11char_traitsIcEENS1_IcEEEEEENS_16reverse_iteratorINS8_IPS6_EEEESB_EEvRT_T0_T1_, symObjAddr: 0x35C20, symBinAddr: 0x1000372E0, symSize: 0x70 }
  - { offset: 0x44C73, size: 0x8, addend: 0x0, symName: __ZNSt3__1neB8ne180100INS_16reverse_iteratorIPNS_12basic_stringIcNS_11char_traitsIcEENS_9allocatorIcEEEEEES9_EEbRKNS1_IT_EERKNS1_IT0_EE, symObjAddr: 0x35CC0, symBinAddr: 0x100037380, symSize: 0x50 }
  - { offset: 0x44CC2, size: 0x8, addend: 0x0, symName: __ZNSt3__112__to_addressB8ne180100INS_16reverse_iteratorINS1_IPNS_12basic_stringIcNS_11char_traitsIcEENS_9allocatorIcEEEEEEEEvEEu7__decayIDTclsr19__to_address_helperIT_EE6__callclsr3stdE7declvalIRKSB_EEEEESD_, symObjAddr: 0x35D30, symBinAddr: 0x1000373F0, symSize: 0x20 }
  - { offset: 0x44CFA, size: 0x8, addend: 0x0, symName: __ZNSt3__112__destroy_atB8ne180100INS_12basic_stringIcNS_11char_traitsIcEENS_9allocatorIcEEEELi0EEEvPT_, symObjAddr: 0x35DA0, symBinAddr: 0x100037460, symSize: 0x20 }
  - { offset: 0x44D5E, size: 0x8, addend: 0x0, symName: __ZNSt3__14prevB8ne180100INS_16reverse_iteratorIPNS_12basic_stringIcNS_11char_traitsIcEENS_9allocatorIcEEEEEELi0EEET_SA_NS_15iterator_traitsISA_E15difference_typeE, symObjAddr: 0x35E50, symBinAddr: 0x100037510, symSize: 0x40 }
  - { offset: 0x44DAB, size: 0x8, addend: 0x0, symName: __ZNSt3__19__advanceB8ne180100INS_16reverse_iteratorIPNS_12basic_stringIcNS_11char_traitsIcEENS_9allocatorIcEEEEEEEEvRT_NS_15iterator_traitsISA_E15difference_typeENS_26random_access_iterator_tagE, symObjAddr: 0x35EC0, symBinAddr: 0x100037580, symSize: 0x30 }
  - { offset: 0x44DF7, size: 0x8, addend: 0x0, symName: __ZNSt3__1lsB8ne180100INS_11char_traitsIcEEEERNS_13basic_ostreamIcT_EES6_h, symObjAddr: 0x368F0, symBinAddr: 0x100037FB0, symSize: 0x30 }
  - { offset: 0x44E3E, size: 0x8, addend: 0x0, symName: __ZNSt3__1lsB8ne180100IcNS_11char_traitsIcEEEERNS_13basic_ostreamIT_T0_EES7_RKNS_8__iom_t6E, symObjAddr: 0x36B80, symBinAddr: 0x100038240, symSize: 0x40 }
  - { offset: 0x44E8D, size: 0x8, addend: 0x0, symName: __ZNSt3__1lsB8ne180100INS_11char_traitsIcEEEERNS_13basic_ostreamIcT_EES6_RKNS_8__iom_t4IcEE, symObjAddr: 0x36BC0, symBinAddr: 0x100038280, symSize: 0x40 }
  - { offset: 0x44ED2, size: 0x8, addend: 0x0, symName: __ZNSt3__19uppercaseB8ne180100ERNS_8ios_baseE, symObjAddr: 0x36C30, symBinAddr: 0x1000382F0, symSize: 0x30 }
  - { offset: 0x44F00, size: 0x8, addend: 0x0, symName: __ZNSt3__13hexB8ne180100ERNS_8ios_baseE, symObjAddr: 0x36C60, symBinAddr: 0x100038320, symSize: 0x30 }
  - { offset: 0x44F2F, size: 0x8, addend: 0x0, symName: __ZNSt3__17setfillB8ne180100IcEENS_8__iom_t4IT_EES2_, symObjAddr: 0x36C90, symBinAddr: 0x100038350, symSize: 0x30 }
  - { offset: 0x44F66, size: 0x8, addend: 0x0, symName: __ZNSt3__14setwB8ne180100Ei, symObjAddr: 0x36CC0, symBinAddr: 0x100038380, symSize: 0x20 }
  - { offset: 0x4503B, size: 0x8, addend: 0x0, symName: __ZNSt3__1neB8ne180100IPN7doctest12_GLOBAL__N_113JUnitReporter17JUnitTestCaseData13JUnitTestCaseEEEbRKNS_11__wrap_iterIT_EESB_, symObjAddr: 0x39DE0, symBinAddr: 0x10003B4A0, symSize: 0x30 }
  - { offset: 0x45081, size: 0x8, addend: 0x0, symName: __ZNSt3__1neB8ne180100IPKN7doctest12_GLOBAL__N_113JUnitReporter17JUnitTestCaseData16JUnitTestMessageEEEbRKNS_11__wrap_iterIT_EESC_, symObjAddr: 0x39E90, symBinAddr: 0x10003B550, symSize: 0x30 }
  - { offset: 0x450C7, size: 0x8, addend: 0x0, symName: __ZNSt3__1eqB8ne180100IPN7doctest12_GLOBAL__N_113JUnitReporter17JUnitTestCaseData13JUnitTestCaseEEEbRKNS_11__wrap_iterIT_EESB_, symObjAddr: 0x39FE0, symBinAddr: 0x10003B6A0, symSize: 0x40 }
  - { offset: 0x4510D, size: 0x8, addend: 0x0, symName: __ZNSt3__1eqB8ne180100IPKN7doctest12_GLOBAL__N_113JUnitReporter17JUnitTestCaseData16JUnitTestMessageEEEbRKNS_11__wrap_iterIT_EESC_, symObjAddr: 0x3A0C0, symBinAddr: 0x10003B780, symSize: 0x40 }
  - { offset: 0x45153, size: 0x8, addend: 0x0, symName: __ZNSt3__112__to_addressB8ne180100IN7doctest12_GLOBAL__N_113JUnitReporter17JUnitTestCaseData13JUnitTestCaseEEEPT_S7_, symObjAddr: 0x3A450, symBinAddr: 0x10003BB10, symSize: 0x10 }
  - { offset: 0x4518A, size: 0x8, addend: 0x0, symName: __ZNSt3__114__construct_atB8ne180100IN7doctest12_GLOBAL__N_113JUnitReporter17JUnitTestCaseData13JUnitTestCaseEJRKNS_12basic_stringIcNS_11char_traitsIcEENS_9allocatorIcEEEESD_EPS5_EEPT_SG_DpOT0_, symObjAddr: 0x3A4C0, symBinAddr: 0x10003BB80, symSize: 0x30 }
  - { offset: 0x451F4, size: 0x8, addend: 0x0, symName: __ZNSt3__112construct_atB8ne180100IN7doctest12_GLOBAL__N_113JUnitReporter17JUnitTestCaseData13JUnitTestCaseEJRKNS_12basic_stringIcNS_11char_traitsIcEENS_9allocatorIcEEEESD_EPS5_EEPT_SG_DpOT0_, symObjAddr: 0x3A4F0, symBinAddr: 0x10003BBB0, symSize: 0x40 }
  - { offset: 0x4525E, size: 0x8, addend: 0x0, symName: __ZNSt3__119__allocate_at_leastB8ne180100INS_9allocatorIN7doctest12_GLOBAL__N_113JUnitReporter17JUnitTestCaseData13JUnitTestCaseEEEEENS_19__allocation_resultINS_16allocator_traitsIT_E7pointerEEERSA_m, symObjAddr: 0x3AC50, symBinAddr: 0x10003C310, symSize: 0x40 }
  - { offset: 0x452A3, size: 0x8, addend: 0x0, symName: __ZNSt3__142__uninitialized_allocator_move_if_noexceptB8ne180100INS_9allocatorIN7doctest12_GLOBAL__N_113JUnitReporter17JUnitTestCaseData13JUnitTestCaseEEENS_16reverse_iteratorIPS6_EESA_SA_EET2_RT_T0_T1_SB_, symObjAddr: 0x3ADF0, symBinAddr: 0x10003C4B0, symSize: 0x180 }
  - { offset: 0x45343, size: 0x8, addend: 0x0, symName: __ZNSt3__14swapB8ne180100IPN7doctest12_GLOBAL__N_113JUnitReporter17JUnitTestCaseData13JUnitTestCaseEEENS_9enable_ifIXaasr21is_move_constructibleIT_EE5valuesr18is_move_assignableIS8_EE5valueEvE4typeERS8_SB_, symObjAddr: 0x3AFC0, symBinAddr: 0x10003C680, symSize: 0x40 }
  - { offset: 0x45398, size: 0x8, addend: 0x0, symName: __ZNSt3__122__make_exception_guardB8ne180100INS_29_AllocatorDestroyRangeReverseINS_9allocatorIN7doctest12_GLOBAL__N_113JUnitReporter17JUnitTestCaseData13JUnitTestCaseEEENS_16reverse_iteratorIPS7_EEEEEENS_28__exception_guard_exceptionsIT_EESE_, symObjAddr: 0x3B010, symBinAddr: 0x10003C6D0, symSize: 0x60 }
  - { offset: 0x453CF, size: 0x8, addend: 0x0, symName: __ZNSt3__1neB8ne180100IPN7doctest12_GLOBAL__N_113JUnitReporter17JUnitTestCaseData13JUnitTestCaseES6_EEbRKNS_16reverse_iteratorIT_EERKNS7_IT0_EE, symObjAddr: 0x3B0B0, symBinAddr: 0x10003C770, symSize: 0x40 }
  - { offset: 0x4541E, size: 0x8, addend: 0x0, symName: __ZNSt3__112__to_addressB8ne180100INS_16reverse_iteratorIPN7doctest12_GLOBAL__N_113JUnitReporter17JUnitTestCaseData13JUnitTestCaseEEEvEEu7__decayIDTclsr19__to_address_helperIT_EE6__callclsr3stdE7declvalIRKS9_EEEEESB_, symObjAddr: 0x3B120, symBinAddr: 0x10003C7E0, symSize: 0x20 }
  - { offset: 0x45456, size: 0x8, addend: 0x0, symName: __ZNSt3__114__construct_atB8ne180100IN7doctest12_GLOBAL__N_113JUnitReporter17JUnitTestCaseData13JUnitTestCaseEJS5_EPS5_EEPT_S8_DpOT0_, symObjAddr: 0x3B280, symBinAddr: 0x10003C940, symSize: 0x30 }
  - { offset: 0x454AC, size: 0x8, addend: 0x0, symName: __ZNSt3__112construct_atB8ne180100IN7doctest12_GLOBAL__N_113JUnitReporter17JUnitTestCaseData13JUnitTestCaseEJS5_EPS5_EEPT_S8_DpOT0_, symObjAddr: 0x3B2B0, symBinAddr: 0x10003C970, symSize: 0x30 }
  - { offset: 0x4552D, size: 0x8, addend: 0x0, symName: __ZNSt3__14prevB8ne180100IPN7doctest12_GLOBAL__N_113JUnitReporter17JUnitTestCaseData13JUnitTestCaseELi0EEET_S7_NS_15iterator_traitsIS7_E15difference_typeE, symObjAddr: 0x3B620, symBinAddr: 0x10003CCE0, symSize: 0x30 }
  - { offset: 0x4557A, size: 0x8, addend: 0x0, symName: __ZNSt3__19__advanceB8ne180100IPN7doctest12_GLOBAL__N_113JUnitReporter17JUnitTestCaseData13JUnitTestCaseEEEvRT_NS_15iterator_traitsIS7_E15difference_typeENS_26random_access_iterator_tagE, symObjAddr: 0x3B680, symBinAddr: 0x10003CD40, symSize: 0x20 }
  - { offset: 0x455C6, size: 0x8, addend: 0x0, symName: __ZNSt3__119__allocator_destroyB8ne180100INS_9allocatorIN7doctest12_GLOBAL__N_113JUnitReporter17JUnitTestCaseData13JUnitTestCaseEEENS_16reverse_iteratorINS8_IPS6_EEEESB_EEvRT_T0_T1_, symObjAddr: 0x3B7D0, symBinAddr: 0x10003CE90, symSize: 0x70 }
  - { offset: 0x4562A, size: 0x8, addend: 0x0, symName: __ZNSt3__1neB8ne180100INS_16reverse_iteratorIPN7doctest12_GLOBAL__N_113JUnitReporter17JUnitTestCaseData13JUnitTestCaseEEES8_EEbRKNS1_IT_EERKNS1_IT0_EE, symObjAddr: 0x3B870, symBinAddr: 0x10003CF30, symSize: 0x50 }
  - { offset: 0x45679, size: 0x8, addend: 0x0, symName: __ZNSt3__112__to_addressB8ne180100INS_16reverse_iteratorINS1_IPN7doctest12_GLOBAL__N_113JUnitReporter17JUnitTestCaseData13JUnitTestCaseEEEEEvEEu7__decayIDTclsr19__to_address_helperIT_EE6__callclsr3stdE7declvalIRKSA_EEEEESC_, symObjAddr: 0x3B8E0, symBinAddr: 0x10003CFA0, symSize: 0x20 }
  - { offset: 0x456B1, size: 0x8, addend: 0x0, symName: __ZNSt3__112__destroy_atB8ne180100IN7doctest12_GLOBAL__N_113JUnitReporter17JUnitTestCaseData13JUnitTestCaseELi0EEEvPT_, symObjAddr: 0x3B950, symBinAddr: 0x10003D010, symSize: 0x20 }
  - { offset: 0x456EB, size: 0x8, addend: 0x0, symName: __ZNSt3__112__to_addressB8ne180100IN7doctest12_GLOBAL__N_113JUnitReporter17JUnitTestCaseData16JUnitTestMessageEEEPT_S7_, symObjAddr: 0x3BC50, symBinAddr: 0x10003D310, symSize: 0x10 }
  - { offset: 0x45722, size: 0x8, addend: 0x0, symName: __ZNSt3__112__destroy_atB8ne180100IN7doctest12_GLOBAL__N_113JUnitReporter17JUnitTestCaseData16JUnitTestMessageELi0EEEvPT_, symObjAddr: 0x3BC60, symBinAddr: 0x10003D320, symSize: 0x20 }
  - { offset: 0x45787, size: 0x8, addend: 0x0, symName: __ZNSt3__14prevB8ne180100INS_16reverse_iteratorIPN7doctest12_GLOBAL__N_113JUnitReporter17JUnitTestCaseData13JUnitTestCaseEEELi0EEET_S9_NS_15iterator_traitsIS9_E15difference_typeE, symObjAddr: 0x3BE10, symBinAddr: 0x10003D4D0, symSize: 0x40 }
  - { offset: 0x457D4, size: 0x8, addend: 0x0, symName: __ZNSt3__19__advanceB8ne180100INS_16reverse_iteratorIPN7doctest12_GLOBAL__N_113JUnitReporter17JUnitTestCaseData13JUnitTestCaseEEEEEvRT_NS_15iterator_traitsIS9_E15difference_typeENS_26random_access_iterator_tagE, symObjAddr: 0x3BE80, symBinAddr: 0x10003D540, symSize: 0x30 }
  - { offset: 0x45821, size: 0x8, addend: 0x0, symName: __ZNSt3__1neB8ne180100IPN7doctest6StringEEEbRKNS_11__wrap_iterIT_EES8_, symObjAddr: 0x3C400, symBinAddr: 0x10003DAC0, symSize: 0x30 }
  - { offset: 0x45866, size: 0x8, addend: 0x0, symName: __ZNSt3__1plB8ne180100IcNS_11char_traitsIcEENS_9allocatorIcEEEENS_12basic_stringIT_T0_T1_EEOS9_PKS6_, symObjAddr: 0x3C450, symBinAddr: 0x10003DB10, symSize: 0x50 }
  - { offset: 0x458BF, size: 0x8, addend: 0x0, symName: __ZNSt3__1eqB8ne180100IPN7doctest6StringEEEbRKNS_11__wrap_iterIT_EES8_, symObjAddr: 0x3C570, symBinAddr: 0x10003DC30, symSize: 0x40 }
  - { offset: 0x45905, size: 0x8, addend: 0x0, symName: __ZNSt3__122__make_exception_guardB8ne180100INS_6vectorIN7doctest6StringENS_9allocatorIS3_EEE16__destroy_vectorEEENS_28__exception_guard_exceptionsIT_EES9_, symObjAddr: 0x3C800, symBinAddr: 0x10003DEC0, symSize: 0x40 }
  - { offset: 0x4593B, size: 0x8, addend: 0x0, symName: __ZNSt3__130__uninitialized_allocator_copyB8ne180100INS_9allocatorIN7doctest6StringEEEPS3_S5_S5_EET2_RT_T0_T1_S6_, symObjAddr: 0x3CA00, symBinAddr: 0x10003E0C0, symSize: 0x80 }
  - { offset: 0x459D9, size: 0x8, addend: 0x0, symName: __ZNSt3__114__unwrap_rangeB8ne180100IPN7doctest6StringES3_EEDaT_T0_, symObjAddr: 0x3CA80, symBinAddr: 0x10003E140, symSize: 0x40 }
  - { offset: 0x45A27, size: 0x8, addend: 0x0, symName: __ZNSt3__135__uninitialized_allocator_copy_implB8ne180100INS_9allocatorIN7doctest6StringEEEPS3_S5_S5_EET2_RT_T0_T1_S6_, symObjAddr: 0x3CAC0, symBinAddr: 0x10003E180, symSize: 0x100 }
  - { offset: 0x45AC6, size: 0x8, addend: 0x0, symName: __ZNSt3__113__unwrap_iterB8ne180100IPN7doctest6StringENS_18__unwrap_iter_implIS3_Lb1EEELi0EEEDTclsrT0_8__unwrapclsr3stdE7declvalIT_EEEES7_, symObjAddr: 0x3CBC0, symBinAddr: 0x10003E280, symSize: 0x20 }
  - { offset: 0x45B0D, size: 0x8, addend: 0x0, symName: __ZNSt3__113__rewrap_iterB8ne180100IPN7doctest6StringES3_NS_18__unwrap_iter_implIS3_Lb1EEEEET_S6_T0_, symObjAddr: 0x3CBE0, symBinAddr: 0x10003E2A0, symSize: 0x40 }
  - { offset: 0x45C68, size: 0x8, addend: 0x0, symName: __ZNSt3__122__make_exception_guardB8ne180100INS_29_AllocatorDestroyRangeReverseINS_9allocatorIN7doctest6StringEEEPS4_EEEENS_28__exception_guard_exceptionsIT_EES9_, symObjAddr: 0x3CCD0, symBinAddr: 0x10003E390, symSize: 0x60 }
  - { offset: 0x45C9F, size: 0x8, addend: 0x0, symName: __ZNSt3__114__construct_atB8ne180100IN7doctest6StringEJRS2_EPS2_EEPT_S6_DpOT0_, symObjAddr: 0x3CE90, symBinAddr: 0x10003E550, symSize: 0x30 }
  - { offset: 0x45CF5, size: 0x8, addend: 0x0, symName: __ZNSt3__112construct_atB8ne180100IN7doctest6StringEJRS2_EPS2_EEPT_S6_DpOT0_, symObjAddr: 0x3CEC0, symBinAddr: 0x10003E580, symSize: 0x30 }
  - { offset: 0x45D4A, size: 0x8, addend: 0x0, symName: __ZNSt3__119__allocator_destroyB8ne180100INS_9allocatorIN7doctest6StringEEENS_16reverse_iteratorIPS3_EES7_EEvRT_T0_T1_, symObjAddr: 0x3CF90, symBinAddr: 0x10003E650, symSize: 0x70 }
  - { offset: 0x45E01, size: 0x8, addend: 0x0, symName: __ZNSt3__114__construct_atB8ne180100IN7doctest12_GLOBAL__N_113JUnitReporter17JUnitTestCaseData16JUnitTestMessageEJRKNS_12basic_stringIcNS_11char_traitsIcEENS_9allocatorIcEEEESD_EPS5_EEPT_SG_DpOT0_, symObjAddr: 0x3D3F0, symBinAddr: 0x10003EAB0, symSize: 0x30 }
  - { offset: 0x45E6B, size: 0x8, addend: 0x0, symName: __ZNSt3__112construct_atB8ne180100IN7doctest12_GLOBAL__N_113JUnitReporter17JUnitTestCaseData16JUnitTestMessageEJRKNS_12basic_stringIcNS_11char_traitsIcEENS_9allocatorIcEEEESD_EPS5_EEPT_SG_DpOT0_, symObjAddr: 0x3D420, symBinAddr: 0x10003EAE0, symSize: 0x40 }
  - { offset: 0x45ED5, size: 0x8, addend: 0x0, symName: __ZNSt3__119__allocate_at_leastB8ne180100INS_9allocatorIN7doctest12_GLOBAL__N_113JUnitReporter17JUnitTestCaseData16JUnitTestMessageEEEEENS_19__allocation_resultINS_16allocator_traitsIT_E7pointerEEERSA_m, symObjAddr: 0x3D960, symBinAddr: 0x10003F020, symSize: 0x40 }
  - { offset: 0x45F1A, size: 0x8, addend: 0x0, symName: __ZNSt3__142__uninitialized_allocator_move_if_noexceptB8ne180100INS_9allocatorIN7doctest12_GLOBAL__N_113JUnitReporter17JUnitTestCaseData16JUnitTestMessageEEENS_16reverse_iteratorIPS6_EESA_SA_EET2_RT_T0_T1_SB_, symObjAddr: 0x3DAF0, symBinAddr: 0x10003F1B0, symSize: 0x180 }
  - { offset: 0x45FBA, size: 0x8, addend: 0x0, symName: __ZNSt3__14swapB8ne180100IPN7doctest12_GLOBAL__N_113JUnitReporter17JUnitTestCaseData16JUnitTestMessageEEENS_9enable_ifIXaasr21is_move_constructibleIT_EE5valuesr18is_move_assignableIS8_EE5valueEvE4typeERS8_SB_, symObjAddr: 0x3DCC0, symBinAddr: 0x10003F380, symSize: 0x40 }
  - { offset: 0x4600F, size: 0x8, addend: 0x0, symName: __ZNSt3__122__make_exception_guardB8ne180100INS_29_AllocatorDestroyRangeReverseINS_9allocatorIN7doctest12_GLOBAL__N_113JUnitReporter17JUnitTestCaseData16JUnitTestMessageEEENS_16reverse_iteratorIPS7_EEEEEENS_28__exception_guard_exceptionsIT_EESE_, symObjAddr: 0x3DD10, symBinAddr: 0x10003F3D0, symSize: 0x60 }
  - { offset: 0x46046, size: 0x8, addend: 0x0, symName: __ZNSt3__1neB8ne180100IPN7doctest12_GLOBAL__N_113JUnitReporter17JUnitTestCaseData16JUnitTestMessageES6_EEbRKNS_16reverse_iteratorIT_EERKNS7_IT0_EE, symObjAddr: 0x3DDB0, symBinAddr: 0x10003F470, symSize: 0x40 }
  - { offset: 0x46095, size: 0x8, addend: 0x0, symName: __ZNSt3__112__to_addressB8ne180100INS_16reverse_iteratorIPN7doctest12_GLOBAL__N_113JUnitReporter17JUnitTestCaseData16JUnitTestMessageEEEvEEu7__decayIDTclsr19__to_address_helperIT_EE6__callclsr3stdE7declvalIRKS9_EEEEESB_, symObjAddr: 0x3DE20, symBinAddr: 0x10003F4E0, symSize: 0x20 }
  - { offset: 0x460CD, size: 0x8, addend: 0x0, symName: __ZNSt3__114__construct_atB8ne180100IN7doctest12_GLOBAL__N_113JUnitReporter17JUnitTestCaseData16JUnitTestMessageEJS5_EPS5_EEPT_S8_DpOT0_, symObjAddr: 0x3DF80, symBinAddr: 0x10003F640, symSize: 0x30 }
  - { offset: 0x46123, size: 0x8, addend: 0x0, symName: __ZNSt3__112construct_atB8ne180100IN7doctest12_GLOBAL__N_113JUnitReporter17JUnitTestCaseData16JUnitTestMessageEJS5_EPS5_EEPT_S8_DpOT0_, symObjAddr: 0x3DFB0, symBinAddr: 0x10003F670, symSize: 0x30 }
  - { offset: 0x461A4, size: 0x8, addend: 0x0, symName: __ZNSt3__14prevB8ne180100IPN7doctest12_GLOBAL__N_113JUnitReporter17JUnitTestCaseData16JUnitTestMessageELi0EEET_S7_NS_15iterator_traitsIS7_E15difference_typeE, symObjAddr: 0x3E0E0, symBinAddr: 0x10003F7A0, symSize: 0x30 }
  - { offset: 0x461F1, size: 0x8, addend: 0x0, symName: __ZNSt3__19__advanceB8ne180100IPN7doctest12_GLOBAL__N_113JUnitReporter17JUnitTestCaseData16JUnitTestMessageEEEvRT_NS_15iterator_traitsIS7_E15difference_typeENS_26random_access_iterator_tagE, symObjAddr: 0x3E140, symBinAddr: 0x10003F800, symSize: 0x20 }
  - { offset: 0x4623D, size: 0x8, addend: 0x0, symName: __ZNSt3__119__allocator_destroyB8ne180100INS_9allocatorIN7doctest12_GLOBAL__N_113JUnitReporter17JUnitTestCaseData16JUnitTestMessageEEENS_16reverse_iteratorINS8_IPS6_EEEESB_EEvRT_T0_T1_, symObjAddr: 0x3E290, symBinAddr: 0x10003F950, symSize: 0x70 }
  - { offset: 0x462A1, size: 0x8, addend: 0x0, symName: __ZNSt3__1neB8ne180100INS_16reverse_iteratorIPN7doctest12_GLOBAL__N_113JUnitReporter17JUnitTestCaseData16JUnitTestMessageEEES8_EEbRKNS1_IT_EERKNS1_IT0_EE, symObjAddr: 0x3E330, symBinAddr: 0x10003F9F0, symSize: 0x50 }
  - { offset: 0x462F0, size: 0x8, addend: 0x0, symName: __ZNSt3__112__to_addressB8ne180100INS_16reverse_iteratorINS1_IPN7doctest12_GLOBAL__N_113JUnitReporter17JUnitTestCaseData16JUnitTestMessageEEEEEvEEu7__decayIDTclsr19__to_address_helperIT_EE6__callclsr3stdE7declvalIRKSA_EEEEESC_, symObjAddr: 0x3E380, symBinAddr: 0x10003FA40, symSize: 0x20 }
  - { offset: 0x46353, size: 0x8, addend: 0x0, symName: __ZNSt3__14prevB8ne180100INS_16reverse_iteratorIPN7doctest12_GLOBAL__N_113JUnitReporter17JUnitTestCaseData16JUnitTestMessageEEELi0EEET_S9_NS_15iterator_traitsIS9_E15difference_typeE, symObjAddr: 0x3E480, symBinAddr: 0x10003FB40, symSize: 0x40 }
  - { offset: 0x463A0, size: 0x8, addend: 0x0, symName: __ZNSt3__19__advanceB8ne180100INS_16reverse_iteratorIPN7doctest12_GLOBAL__N_113JUnitReporter17JUnitTestCaseData16JUnitTestMessageEEEEEvRT_NS_15iterator_traitsIS9_E15difference_typeENS_26random_access_iterator_tagE, symObjAddr: 0x3E4F0, symBinAddr: 0x10003FBB0, symSize: 0x30 }
  - { offset: 0x463ED, size: 0x8, addend: 0x0, symName: __ZNSt3__114__construct_atB8ne180100IN7doctest6StringEJRKS2_EPS2_EEPT_S7_DpOT0_, symObjAddr: 0x3E9C0, symBinAddr: 0x100040080, symSize: 0x30 }
  - { offset: 0x46443, size: 0x8, addend: 0x0, symName: __ZNSt3__112construct_atB8ne180100IN7doctest6StringEJRKS2_EPS2_EEPT_S7_DpOT0_, symObjAddr: 0x3E9F0, symBinAddr: 0x1000400B0, symSize: 0x30 }
  - { offset: 0x46499, size: 0x8, addend: 0x0, symName: __ZNSt3__114__construct_atB8ne180100IN7doctest12_GLOBAL__N_113JUnitReporter17JUnitTestCaseData16JUnitTestMessageEJRKNS_12basic_stringIcNS_11char_traitsIcEENS_9allocatorIcEEEESD_SD_EPS5_EEPT_SG_DpOT0_, symObjAddr: 0x3F3C0, symBinAddr: 0x100040A80, symSize: 0x40 }
  - { offset: 0x46517, size: 0x8, addend: 0x0, symName: __ZNSt3__112construct_atB8ne180100IN7doctest12_GLOBAL__N_113JUnitReporter17JUnitTestCaseData16JUnitTestMessageEJRKNS_12basic_stringIcNS_11char_traitsIcEENS_9allocatorIcEEEESD_SD_EPS5_EEPT_SG_DpOT0_, symObjAddr: 0x3F400, symBinAddr: 0x100040AC0, symSize: 0x40 }
  - { offset: 0x46594, size: 0x8, addend: 0x0, symName: __ZNSt3__1neB8ne180100ERKNS_20__map_const_iteratorINS_21__tree_const_iteratorINS_12__value_typeINS_4pairIiN7doctest6StringEEEPFPNS4_9IReporterERKNS4_14ContextOptionsEEEEPNS_11__tree_nodeISE_PvEElEEEESM_, symObjAddr: 0x420B0, symBinAddr: 0x100043770, symSize: 0x30 }
  - { offset: 0x465D1, size: 0x8, addend: 0x0, symName: __ZNSt3__1neB8ne180100ERKNS_21__tree_const_iteratorINS_12__value_typeINS_4pairIiN7doctest6StringEEEPFPNS3_9IReporterERKNS3_14ContextOptionsEEEEPNS_11__tree_nodeISD_PvEElEESK_, symObjAddr: 0x42290, symBinAddr: 0x100043950, symSize: 0x30 }
  - { offset: 0x4660E, size: 0x8, addend: 0x0, symName: __ZNSt3__1eqB8ne180100ERKNS_21__tree_const_iteratorINS_12__value_typeINS_4pairIiN7doctest6StringEEEPFPNS3_9IReporterERKNS3_14ContextOptionsEEEEPNS_11__tree_nodeISD_PvEElEESK_, symObjAddr: 0x422C0, symBinAddr: 0x100043980, symSize: 0x30 }
  - { offset: 0x4667E, size: 0x8, addend: 0x0, symName: __ZNSt3__17launderB8ne180100IKNS_4pairIKNS1_IiN7doctest6StringEEEPFPNS2_9IReporterERKNS2_14ContextOptionsEEEEEEPT_SG_, symObjAddr: 0x42370, symBinAddr: 0x100043A30, symSize: 0x20 }
  - { offset: 0x466B5, size: 0x8, addend: 0x0, symName: __ZNSt3__19__launderB8ne180100IKNS_4pairIKNS1_IiN7doctest6StringEEEPFPNS2_9IReporterERKNS2_14ContextOptionsEEEEEEPT_SG_, symObjAddr: 0x42390, symBinAddr: 0x100043A50, symSize: 0x10 }
  - { offset: 0x466EC, size: 0x8, addend: 0x0, symName: __ZNSt3__13decB8ne180100ERNS_8ios_baseE, symObjAddr: 0x42450, symBinAddr: 0x100043B10, symSize: 0x30 }
  - { offset: 0x4671B, size: 0x8, addend: 0x0, symName: __ZNSt3__13maxB8ne180100IjEERKT_S3_S3_, symObjAddr: 0x42480, symBinAddr: 0x100043B40, symSize: 0x30 }
  - { offset: 0x46761, size: 0x8, addend: 0x0, symName: __ZNSt3__13maxB8ne180100IjNS_6__lessIvvEEEERKT_S5_S5_T0_, symObjAddr: 0x424B0, symBinAddr: 0x100043B70, symSize: 0x50 }
  - { offset: 0x467BF, size: 0x8, addend: 0x0, symName: __ZNSt3__1lsB8ne180100IcNS_11char_traitsIcEEEERNS_13basic_ostreamIT_T0_EES7_RKNS_8__iom_t5E, symObjAddr: 0x42890, symBinAddr: 0x100043F50, symSize: 0x40 }
  - { offset: 0x4680E, size: 0x8, addend: 0x0, symName: __ZNSt3__112setprecisionB8ne180100Ei, symObjAddr: 0x428D0, symBinAddr: 0x100043F90, symSize: 0x20 }
  - { offset: 0x4683B, size: 0x8, addend: 0x0, symName: __ZNSt3__15fixedB8ne180100ERNS_8ios_baseE, symObjAddr: 0x428F0, symBinAddr: 0x100043FB0, symSize: 0x30 }
  - { offset: 0x46869, size: 0x8, addend: 0x0, symName: __ZNSt3__1eqB8ne180100ERKNS_21__tree_const_iteratorIN7doctest6detail8TestCaseEPNS_11__tree_nodeIS3_PvEElEESA_, symObjAddr: 0x42CF0, symBinAddr: 0x1000443B0, symSize: 0x30 }
  - { offset: 0x468C4, size: 0x8, addend: 0x0, symName: __ZNSt3__118__cxx_atomic_storeB8ne180100IiEEvPNS_22__cxx_atomic_base_implIT_EES2_NS_12memory_orderE, symObjAddr: 0x43F80, symBinAddr: 0x100045640, symSize: 0x70 }
  - { offset: 0x46916, size: 0x8, addend: 0x0, symName: __ZNSt3__1ltB8ne180100ENS_13weak_orderingENS_20_CmpUnspecifiedParamE, symObjAddr: 0x44780, symBinAddr: 0x100045E40, symSize: 0x20 }
  - { offset: 0x4694E, size: 0x8, addend: 0x0, symName: __ZNSt3__1ssB8ne180100IiN7doctest6StringEiS2_EENS_26common_comparison_categoryIJDTclsr3stdE17__synth_three_wayclsr3stdE7declvalIRT_EEclsr3stdE7declvalIRT1_EEEEDTclsr3stdE17__synth_three_wayclsr3stdE7declvalIRT0_EEclsr3stdE7declvalIRT2_EEEEEE4typeERKNS_4pairIS4_S9_EERKNSG_IS6_SB_EE, symObjAddr: 0x447A0, symBinAddr: 0x100045E60, symSize: 0x80 }
  - { offset: 0x469E9, size: 0x8, addend: 0x0, symName: __ZNSt3__117__synth_three_wayB8ne180100IiiEEDaRKT_RKT0_, symObjAddr: 0x44850, symBinAddr: 0x100045F10, symSize: 0x70 }
  - { offset: 0x46A38, size: 0x8, addend: 0x0, symName: __ZNSt3__1eqB8ne180100ENS_15strong_orderingENS_20_CmpUnspecifiedParamE, symObjAddr: 0x448C0, symBinAddr: 0x100045F80, symSize: 0x20 }
  - { offset: 0x46B05, size: 0x8, addend: 0x0, symName: __ZNSt3__117__synth_three_wayB8ne180100IN7doctest6StringES2_EEDaRKT_RKT0_, symObjAddr: 0x44960, symBinAddr: 0x100046020, symSize: 0x80 }
  - { offset: 0x46B72, size: 0x8, addend: 0x0, symName: __ZNSt3__114__construct_atB8ne180100INS_4pairIKNS1_IiN7doctest6StringEEEPFPNS2_9IReporterERKNS2_14ContextOptionsEEEEJSD_EPSD_EEPT_SG_DpOT0_, symObjAddr: 0x44CB0, symBinAddr: 0x100046370, symSize: 0x30 }
  - { offset: 0x46BC8, size: 0x8, addend: 0x0, symName: __ZNSt3__112construct_atB8ne180100INS_4pairIKNS1_IiN7doctest6StringEEEPFPNS2_9IReporterERKNS2_14ContextOptionsEEEEJSD_EPSD_EEPT_SG_DpOT0_, symObjAddr: 0x44CE0, symBinAddr: 0x1000463A0, symSize: 0x30 }
  - { offset: 0x485F3, size: 0x8, addend: 0x0, symName: __ZSt28__throw_bad_array_new_lengthB8ne180100v, symObjAddr: 0x123C0, symBinAddr: 0x100013A80, symSize: 0x40 }
  - { offset: 0x49C9A, size: 0x8, addend: 0x0, symName: __ZN28doctest_detail_test_suite_ns19getCurrentTestSuiteEv, symObjAddr: 0x3DB0, symBinAddr: 0x100005470, symSize: 0x10 }
  - { offset: 0x49CC5, size: 0x8, addend: 0x0, symName: __ZZN28doctest_detail_test_suite_ns19getCurrentTestSuiteEvE4data, symObjAddr: 0x221F38, symBinAddr: 0x10005F278, symSize: 0x0 }
  - { offset: 0x4A2E2, size: 0x8, addend: 0x0, symName: __ZL19DOCTEST_ANON_VAR_15, symObjAddr: 0x222470, symBinAddr: 0x10005F7B0, symSize: 0x0 }
  - { offset: 0x4A2FC, size: 0x8, addend: 0x0, symName: __ZL19DOCTEST_ANON_VAR_22, symObjAddr: 0x222474, symBinAddr: 0x10005F7B4, symSize: 0x0 }
  - { offset: 0x4A316, size: 0x8, addend: 0x0, symName: __ZL19DOCTEST_ANON_VAR_29, symObjAddr: 0x222478, symBinAddr: 0x10005F7B8, symSize: 0x0 }
  - { offset: 0x4A4FD, size: 0x8, addend: 0x0, symName: __ZN7doctest6detail15MultiLaneAtomicIiE8myAtomicEv, symObjAddr: 0x1BC30, symBinAddr: 0x10001D2F0, symSize: 0x80 }
  - { offset: 0x4A522, size: 0x8, addend: 0x0, symName: __ZZN7doctest6detail15MultiLaneAtomicIiE8myAtomicEvE11laneCounter, symObjAddr: 0x4ACE0, symBinAddr: 0x10005F000, symSize: 0x0 }
  - { offset: 0x4A539, size: 0x8, addend: 0x0, symName: __ZZN7doctest6detail15MultiLaneAtomicIiE8myAtomicEvE10tlsLaneIdx, symObjAddr: 0x4A3A8, symBinAddr: 0x10005F0B8, symSize: 0x0 }
  - { offset: 0x4ACED, size: 0x8, addend: 0x0, symName: __ZN2dslsERNSt3__113basic_ostreamIcNS0_11char_traitsIcEEEERKNS_5TokenE, symObjAddr: 0xF250, symBinAddr: 0x100010910, symSize: 0xB0 }
  - { offset: 0x4AD17, size: 0x8, addend: 0x0, symName: __ZZN2dslsERNSt3__113basic_ostreamIcNS0_11char_traitsIcEEEERKNS_5TokenEE5names, symObjAddr: 0x4AAD0, symBinAddr: 0x10005DFE0, symSize: 0x0 }
  - { offset: 0x4AF8A, size: 0x8, addend: 0x0, symName: __ZN2dslsERNSt3__113basic_ostreamIcNS0_11char_traitsIcEEEERKNS_6BigIntE, symObjAddr: 0x2D670, symBinAddr: 0x10002ED30, symSize: 0x80 }
  - { offset: 0x4BA93, size: 0x8, addend: 0x0, symName: __ZNSt3__16vectorINS_4fposI11__mbstate_tEENS_9allocatorIS3_EEE26__swap_out_circular_bufferERNS_14__split_bufferIS3_RS5_EE, symObjAddr: 0x11D00, symBinAddr: 0x1000133C0, symSize: 0x120 }
  - { offset: 0x4BAED, size: 0x8, addend: 0x0, symName: __ZNSt3__16vectorIN7doctest16SubcaseSignatureENS_9allocatorIS2_EEE26__swap_out_circular_bufferERNS_14__split_bufferIS2_RS4_EE, symObjAddr: 0x13D60, symBinAddr: 0x100015420, symSize: 0x120 }
  - { offset: 0x4BBBA, size: 0x8, addend: 0x0, symName: __ZNSt3__16vectorIN7doctest16SubcaseSignatureENS_9allocatorIS2_EEE26__swap_out_circular_bufferERNS_14__split_bufferIS2_RS4_EEPS2_, symObjAddr: 0x15B20, symBinAddr: 0x1000171E0, symSize: 0x160 }
  - { offset: 0x4BC21, size: 0x8, addend: 0x0, symName: __ZNSt3__16vectorIPKN7doctest6detail20IExceptionTranslatorENS_9allocatorIS5_EEE26__swap_out_circular_bufferERNS_14__split_bufferIS5_RS7_EE, symObjAddr: 0x17A00, symBinAddr: 0x1000190C0, symSize: 0x120 }
  - { offset: 0x4BC81, size: 0x8, addend: 0x0, symName: __ZNSt3__16vectorIPN7doctest13IContextScopeENS_9allocatorIS3_EEE26__swap_out_circular_bufferERNS_14__split_bufferIS3_RS5_EE, symObjAddr: 0x19130, symBinAddr: 0x10001A7F0, symSize: 0x120 }
  - { offset: 0x4BCDB, size: 0x8, addend: 0x0, symName: __ZNSt3__16vectorIN7doctest6StringENS_9allocatorIS2_EEE26__swap_out_circular_bufferERNS_14__split_bufferIS2_RS4_EE, symObjAddr: 0x1A590, symBinAddr: 0x10001BC50, symSize: 0x120 }
  - { offset: 0x4BDAF, size: 0x8, addend: 0x0, symName: __ZNSt3__16vectorIPN7doctest9IReporterENS_9allocatorIS3_EEE26__swap_out_circular_bufferERNS_14__split_bufferIS3_RS5_EE, symObjAddr: 0x20030, symBinAddr: 0x1000216F0, symSize: 0x120 }
  - { offset: 0x4BE26, size: 0x8, addend: 0x0, symName: __ZNSt3__16vectorIPN7doctest9IReporterENS_9allocatorIS3_EEE26__swap_out_circular_bufferERNS_14__split_bufferIS3_RS5_EEPS3_, symObjAddr: 0x21440, symBinAddr: 0x100022B00, symSize: 0x160 }
  - { offset: 0x4C037, size: 0x8, addend: 0x0, symName: __ZNSt3__16vectorIPKN7doctest6detail8TestCaseENS_9allocatorIS5_EEE26__swap_out_circular_bufferERNS_14__split_bufferIS5_RS7_EE, symObjAddr: 0x228A0, symBinAddr: 0x100023F60, symSize: 0x120 }
  - { offset: 0x4C224, size: 0x8, addend: 0x0, symName: __ZNSt3__16vectorIPKN7doctest12TestCaseDataENS_9allocatorIS4_EEE26__swap_out_circular_bufferERNS_14__split_bufferIS4_RS6_EE, symObjAddr: 0x26650, symBinAddr: 0x100027D10, symSize: 0x120 }
  - { offset: 0x4C3FC, size: 0x8, addend: 0x0, symName: __ZNSt3__16vectorIN2ds5TokenENS_9allocatorIS2_EEE26__swap_out_circular_bufferERNS_14__split_bufferIS2_RS4_EE, symObjAddr: 0x2B3A0, symBinAddr: 0x10002CA60, symSize: 0x120 }
  - { offset: 0x4C768, size: 0x8, addend: 0x0, symName: __ZNSt3__16vectorINS_12basic_stringIcNS_11char_traitsIcEENS_9allocatorIcEEEENS4_IS6_EEE26__swap_out_circular_bufferERNS_14__split_bufferIS6_RS7_EE, symObjAddr: 0x34FB0, symBinAddr: 0x100036670, symSize: 0x120 }
  - { offset: 0x4CC79, size: 0x8, addend: 0x0, symName: __ZNSt3__16vectorIN7doctest12_GLOBAL__N_113JUnitReporter17JUnitTestCaseData13JUnitTestCaseENS_9allocatorIS5_EEE26__swap_out_circular_bufferERNS_14__split_bufferIS5_RS7_EE, symObjAddr: 0x3A890, symBinAddr: 0x10003BF50, symSize: 0x120 }
  - { offset: 0x4CD69, size: 0x8, addend: 0x0, symName: __ZNSt3__16vectorIN7doctest12_GLOBAL__N_113JUnitReporter17JUnitTestCaseData16JUnitTestMessageENS_9allocatorIS5_EEE26__swap_out_circular_bufferERNS_14__split_bufferIS5_RS7_EE, symObjAddr: 0x3D630, symBinAddr: 0x10003ECF0, symSize: 0x120 }
  - { offset: 0x4D0FB, size: 0x8, addend: 0x0, symName: __ZN7doctest6detail9TestSuiteC1Ev, symObjAddr: 0x50, symBinAddr: 0x100001710, symSize: 0x20 }
  - { offset: 0x4D128, size: 0x8, addend: 0x0, symName: __ZN7doctest6detail9TestSuitemlEPKc, symObjAddr: 0x70, symBinAddr: 0x100001730, symSize: 0x20 }
  - { offset: 0x4D15F, size: 0x8, addend: 0x0, symName: __ZN7doctest5IsNaNIfEC2Efb, symObjAddr: 0x90, symBinAddr: 0x100001750, symSize: 0x30 }
  - { offset: 0x4D1A7, size: 0x8, addend: 0x0, symName: __ZN7doctest5IsNaNIfEC1Efb, symObjAddr: 0xC0, symBinAddr: 0x100001780, symSize: 0x40 }
  - { offset: 0x4D1EF, size: 0x8, addend: 0x0, symName: __ZNK7doctest5IsNaNIfEntEv, symObjAddr: 0x100, symBinAddr: 0x1000017C0, symSize: 0x40 }
  - { offset: 0x4D215, size: 0x8, addend: 0x0, symName: __ZNK7doctest5IsNaNIfEcvbEv, symObjAddr: 0x140, symBinAddr: 0x100001800, symSize: 0x50 }
  - { offset: 0x4D23D, size: 0x8, addend: 0x0, symName: __ZN7doctest5IsNaNIdEC2Edb, symObjAddr: 0x1B0, symBinAddr: 0x100001870, symSize: 0x30 }
  - { offset: 0x4D285, size: 0x8, addend: 0x0, symName: __ZN7doctest5IsNaNIdEC1Edb, symObjAddr: 0x1E0, symBinAddr: 0x1000018A0, symSize: 0x40 }
  - { offset: 0x4D2CD, size: 0x8, addend: 0x0, symName: __ZNK7doctest5IsNaNIdEntEv, symObjAddr: 0x220, symBinAddr: 0x1000018E0, symSize: 0x40 }
  - { offset: 0x4D2F3, size: 0x8, addend: 0x0, symName: __ZNK7doctest5IsNaNIdEcvbEv, symObjAddr: 0x260, symBinAddr: 0x100001920, symSize: 0x50 }
  - { offset: 0x4D31B, size: 0x8, addend: 0x0, symName: __ZN7doctest5IsNaNIeEC2Eeb, symObjAddr: 0x2D0, symBinAddr: 0x100001990, symSize: 0x30 }
  - { offset: 0x4D363, size: 0x8, addend: 0x0, symName: __ZN7doctest5IsNaNIeEC1Eeb, symObjAddr: 0x300, symBinAddr: 0x1000019C0, symSize: 0x40 }
  - { offset: 0x4D3AB, size: 0x8, addend: 0x0, symName: __ZNK7doctest5IsNaNIeEntEv, symObjAddr: 0x340, symBinAddr: 0x100001A00, symSize: 0x40 }
  - { offset: 0x4D3D1, size: 0x8, addend: 0x0, symName: __ZNK7doctest5IsNaNIeEcvbEv, symObjAddr: 0x380, symBinAddr: 0x100001A40, symSize: 0x50 }
  - { offset: 0x4D3F9, size: 0x8, addend: 0x0, symName: '__ZN7doctest6detail3$_0C1Ev', symObjAddr: 0x3F0, symBinAddr: 0x100001AB0, symSize: 0x20 }
  - { offset: 0x4D426, size: 0x8, addend: 0x0, symName: '__ZN7doctest6detail3$_0D1Ev', symObjAddr: 0x410, symBinAddr: 0x100001AD0, symSize: 0x20 }
  - { offset: 0x4D453, size: 0x8, addend: 0x0, symName: '__ZN7doctest6detail3$_04pushEv', symObjAddr: 0x470, symBinAddr: 0x100001B30, symSize: 0xD0 }
  - { offset: 0x4D47A, size: 0x8, addend: 0x0, symName: '__ZN7doctest6detail3$_03popEv', symObjAddr: 0x580, symBinAddr: 0x100001C40, symSize: 0x230 }
  - { offset: 0x4D4C1, size: 0x8, addend: 0x0, symName: __ZN7doctest6String8allocateEj, symObjAddr: 0x7E0, symBinAddr: 0x100001EA0, symSize: 0xA0 }
  - { offset: 0x4D4F8, size: 0x8, addend: 0x0, symName: __ZN7doctest6String7setLastEj, symObjAddr: 0x880, symBinAddr: 0x100001F40, symSize: 0x20 }
  - { offset: 0x4D52F, size: 0x8, addend: 0x0, symName: __ZN7doctest6String9setOnHeapEv, symObjAddr: 0x8A0, symBinAddr: 0x100001F60, symSize: 0x20 }
  - { offset: 0x4D557, size: 0x8, addend: 0x0, symName: __ZN7doctest6String7setSizeEj, symObjAddr: 0x8C0, symBinAddr: 0x100001F80, symSize: 0x60 }
  - { offset: 0x4D58E, size: 0x8, addend: 0x0, symName: __ZNK7doctest6String9isOnStackEv, symObjAddr: 0x920, symBinAddr: 0x100001FE0, symSize: 0x30 }
  - { offset: 0x4D5B4, size: 0x8, addend: 0x0, symName: __ZN7doctest6String4copyERKS0_, symObjAddr: 0x950, symBinAddr: 0x100002010, symSize: 0x80 }
  - { offset: 0x4D5EB, size: 0x8, addend: 0x0, symName: __ZN7doctest6StringC2Ev, symObjAddr: 0x9D0, symBinAddr: 0x100002090, symSize: 0x30 }
  - { offset: 0x4D617, size: 0x8, addend: 0x0, symName: __ZN7doctest6StringC1Ev, symObjAddr: 0xA00, symBinAddr: 0x1000020C0, symSize: 0x20 }
  - { offset: 0x4D643, size: 0x8, addend: 0x0, symName: __ZN7doctest6StringD2Ev, symObjAddr: 0xA20, symBinAddr: 0x1000020E0, symSize: 0x50 }
  - { offset: 0x4D66F, size: 0x8, addend: 0x0, symName: __ZN7doctest6StringD1Ev, symObjAddr: 0xA70, symBinAddr: 0x100002130, symSize: 0x20 }
  - { offset: 0x4D69B, size: 0x8, addend: 0x0, symName: __ZN7doctest6StringC2EPKc, symObjAddr: 0xA90, symBinAddr: 0x100002150, symSize: 0x40 }
  - { offset: 0x4D6D6, size: 0x8, addend: 0x0, symName: __ZN7doctest6StringC2EPKcj, symObjAddr: 0xAD0, symBinAddr: 0x100002190, symSize: 0x40 }
  - { offset: 0x4D720, size: 0x8, addend: 0x0, symName: __ZN7doctest6StringC1EPKc, symObjAddr: 0xB10, symBinAddr: 0x1000021D0, symSize: 0x40 }
  - { offset: 0x4D75B, size: 0x8, addend: 0x0, symName: __ZN7doctest6StringC1EPKcj, symObjAddr: 0xB50, symBinAddr: 0x100002210, symSize: 0x30 }
  - { offset: 0x4D7A5, size: 0x8, addend: 0x0, symName: __ZN7doctest6StringC2ERNSt3__113basic_istreamIcNS1_11char_traitsIcEEEEj, symObjAddr: 0xB80, symBinAddr: 0x100002240, symSize: 0x40 }
  - { offset: 0x4D7EF, size: 0x8, addend: 0x0, symName: __ZN7doctest6StringC1ERNSt3__113basic_istreamIcNS1_11char_traitsIcEEEEj, symObjAddr: 0xBC0, symBinAddr: 0x100002280, symSize: 0x30 }
  - { offset: 0x4D839, size: 0x8, addend: 0x0, symName: __ZN7doctest6StringC2ERKS0_, symObjAddr: 0xBF0, symBinAddr: 0x1000022B0, symSize: 0x30 }
  - { offset: 0x4D874, size: 0x8, addend: 0x0, symName: __ZN7doctest6StringC1ERKS0_, symObjAddr: 0xC20, symBinAddr: 0x1000022E0, symSize: 0x30 }
  - { offset: 0x4D8AF, size: 0x8, addend: 0x0, symName: __ZN7doctest6StringaSERKS0_, symObjAddr: 0xC50, symBinAddr: 0x100002310, symSize: 0x70 }
  - { offset: 0x4D8E6, size: 0x8, addend: 0x0, symName: __ZN7doctest6StringpLERKS0_, symObjAddr: 0xCC0, symBinAddr: 0x100002380, symSize: 0x220 }
  - { offset: 0x4D984, size: 0x8, addend: 0x0, symName: __ZNK7doctest6String4sizeEv, symObjAddr: 0xEE0, symBinAddr: 0x1000025A0, symSize: 0x60 }
  - { offset: 0x4D9AC, size: 0x8, addend: 0x0, symName: __ZNK7doctest6String5c_strEv, symObjAddr: 0xF40, symBinAddr: 0x100002600, symSize: 0x20 }
  - { offset: 0x4D9D2, size: 0x8, addend: 0x0, symName: __ZN7doctest6StringC2EOS0_, symObjAddr: 0xF60, symBinAddr: 0x100002620, symSize: 0x50 }
  - { offset: 0x4DA0D, size: 0x8, addend: 0x0, symName: __ZN7doctest6StringC1EOS0_, symObjAddr: 0xFB0, symBinAddr: 0x100002670, symSize: 0x30 }
  - { offset: 0x4DA48, size: 0x8, addend: 0x0, symName: __ZN7doctest6StringaSEOS0_, symObjAddr: 0xFE0, symBinAddr: 0x1000026A0, symSize: 0xA0 }
  - { offset: 0x4DA7F, size: 0x8, addend: 0x0, symName: __ZNK7doctest6StringixEj, symObjAddr: 0x1080, symBinAddr: 0x100002740, symSize: 0x30 }
  - { offset: 0x4DAB6, size: 0x8, addend: 0x0, symName: __ZN7doctest6StringixEj, symObjAddr: 0x10B0, symBinAddr: 0x100002770, symSize: 0x60 }
  - { offset: 0x4DAED, size: 0x8, addend: 0x0, symName: __ZNK7doctest6String8capacityEv, symObjAddr: 0x1110, symBinAddr: 0x1000027D0, symSize: 0x50 }
  - { offset: 0x4DB15, size: 0x8, addend: 0x0, symName: __ZNO7doctest6String6substrEjj, symObjAddr: 0x1160, symBinAddr: 0x100002820, symSize: 0xA0 }
  - { offset: 0x4DB6A, size: 0x8, addend: 0x0, symName: __ZN7doctest6String5c_strEv, symObjAddr: 0x1230, symBinAddr: 0x1000028F0, symSize: 0x50 }
  - { offset: 0x4DB90, size: 0x8, addend: 0x0, symName: __ZNKR7doctest6String6substrEjj, symObjAddr: 0x1280, symBinAddr: 0x100002940, symSize: 0x80 }
  - { offset: 0x4DBD6, size: 0x8, addend: 0x0, symName: __ZNK7doctest6String4findEcj, symObjAddr: 0x1300, symBinAddr: 0x1000029C0, symSize: 0xE0 }
  - { offset: 0x4DC49, size: 0x8, addend: 0x0, symName: __ZNK7doctest6String5rfindEcj, symObjAddr: 0x13E0, symBinAddr: 0x100002AA0, symSize: 0xE0 }
  - { offset: 0x4DCAD, size: 0x8, addend: 0x0, symName: __ZNK7doctest6String7compareEPKcb, symObjAddr: 0x14C0, symBinAddr: 0x100002B80, symSize: 0x70 }
  - { offset: 0x4DCF3, size: 0x8, addend: 0x0, symName: __ZNK7doctest6String7compareERKS0_b, symObjAddr: 0x15B0, symBinAddr: 0x100002C70, symSize: 0x50 }
  - { offset: 0x4DD39, size: 0x8, addend: 0x0, symName: __ZN7doctest8ContainsC2ERKNS_6StringE, symObjAddr: 0x1900, symBinAddr: 0x100002FC0, symSize: 0x30 }
  - { offset: 0x4DD74, size: 0x8, addend: 0x0, symName: __ZN7doctest8ContainsC1ERKNS_6StringE, symObjAddr: 0x1930, symBinAddr: 0x100002FF0, symSize: 0x30 }
  - { offset: 0x4DDAF, size: 0x8, addend: 0x0, symName: __ZNK7doctest8Contains9checkWithERKNS_6StringE, symObjAddr: 0x1960, symBinAddr: 0x100003020, symSize: 0x50 }
  - { offset: 0x4DDE6, size: 0x8, addend: 0x0, symName: __Z6strstrB8ne180100Ua9enable_ifIXLb1EEEPKcS0_, symObjAddr: 0x19B0, symBinAddr: 0x100003070, symSize: 0x30 }
  - { offset: 0x4DE23, size: 0x8, addend: 0x0, symName: __Z7strrchrB8ne180100Ua9enable_ifIXLb1EEEPKci, symObjAddr: 0x25D0, symBinAddr: 0x100003C90, symSize: 0x30 }
  - { offset: 0x4DE60, size: 0x8, addend: 0x0, symName: __ZNK7doctest16SubcaseSignatureeqERKS0_, symObjAddr: 0x2600, symBinAddr: 0x100003CC0, symSize: 0x70 }
  - { offset: 0x4DE97, size: 0x8, addend: 0x0, symName: __ZNK7doctest16SubcaseSignatureltERKS0_, symObjAddr: 0x2670, symBinAddr: 0x100003D30, symSize: 0xB0 }
  - { offset: 0x4DECE, size: 0x8, addend: 0x0, symName: __ZN7doctest13IContextScopeD2Ev, symObjAddr: 0x2720, symBinAddr: 0x100003DE0, symSize: 0x10 }
  - { offset: 0x4DEFA, size: 0x8, addend: 0x0, symName: __ZN7doctest13IContextScopeD1Ev, symObjAddr: 0x2730, symBinAddr: 0x100003DF0, symSize: 0x10 }
  - { offset: 0x4DF26, size: 0x8, addend: 0x0, symName: __ZN7doctest13IContextScopeD0Ev, symObjAddr: 0x2740, symBinAddr: 0x100003E00, symSize: 0x10 }
  - { offset: 0x4DF52, size: 0x8, addend: 0x0, symName: __ZN7doctest6detail8filldataIPKvE4fillEPNSt3__113basic_ostreamIcNS5_11char_traitsIcEEEES3_, symObjAddr: 0x2750, symBinAddr: 0x100003E10, symSize: 0x50 }
  - { offset: 0x4DF87, size: 0x8, addend: 0x0, symName: __ZN7doctest6ApproxC2Ed, symObjAddr: 0x2E60, symBinAddr: 0x100004520, symSize: 0x60 }
  - { offset: 0x4DFC2, size: 0x8, addend: 0x0, symName: __ZNSt3__114numeric_limitsIfE7epsilonB8ne180100Ev, symObjAddr: 0x2EC0, symBinAddr: 0x100004580, symSize: 0x10 }
  - { offset: 0x4DFD6, size: 0x8, addend: 0x0, symName: __ZN7doctest6ApproxC1Ed, symObjAddr: 0x2ED0, symBinAddr: 0x100004590, symSize: 0x30 }
  - { offset: 0x4E011, size: 0x8, addend: 0x0, symName: __ZNK7doctest6ApproxclEd, symObjAddr: 0x2F00, symBinAddr: 0x1000045C0, symSize: 0x60 }
  - { offset: 0x4E058, size: 0x8, addend: 0x0, symName: __ZN7doctest6Approx7epsilonEd, symObjAddr: 0x2F60, symBinAddr: 0x100004620, symSize: 0x20 }
  - { offset: 0x4E08F, size: 0x8, addend: 0x0, symName: __ZN7doctest6Approx5scaleEd, symObjAddr: 0x2F80, symBinAddr: 0x100004640, symSize: 0x20 }
  - { offset: 0x4E0C6, size: 0x8, addend: 0x0, symName: __ZNK7doctest6detail15MultiLaneAtomicIiEcviEv, symObjAddr: 0x3E60, symBinAddr: 0x100005520, symSize: 0x20 }
  - { offset: 0x4E0EC, size: 0x8, addend: 0x0, symName: __ZNSt3__16atomicIbEaSB8ne180100Eb, symObjAddr: 0x3EC0, symBinAddr: 0x100005580, symSize: 0x40 }
  - { offset: 0x4E144, size: 0x8, addend: 0x0, symName: __ZN7doctest6detail7Subcase12checkFiltersEv, symObjAddr: 0x3F00, symBinAddr: 0x1000055C0, symSize: 0x100 }
  - { offset: 0x4E16C, size: 0x8, addend: 0x0, symName: __ZNKSt3__16vectorIN7doctest16SubcaseSignatureENS_9allocatorIS2_EEE4sizeB8ne180100Ev, symObjAddr: 0x4000, symBinAddr: 0x1000056C0, symSize: 0x30 }
  - { offset: 0x4E192, size: 0x8, addend: 0x0, symName: __ZNSt3__16vectorINS0_IN7doctest6StringENS_9allocatorIS2_EEEENS3_IS5_EEEixB8ne180100Em, symObjAddr: 0x4120, symBinAddr: 0x1000057E0, symSize: 0x20 }
  - { offset: 0x4E1C9, size: 0x8, addend: 0x0, symName: __ZN7doctest6detail7SubcaseC2ERKNS_6StringEPKci, symObjAddr: 0x4140, symBinAddr: 0x100005800, symSize: 0x580 }
  - { offset: 0x4E2C6, size: 0x8, addend: 0x0, symName: __ZNSt3__16vectorIN7doctest16SubcaseSignatureENS_9allocatorIS2_EEEixB8ne180100Em, symObjAddr: 0x46C0, symBinAddr: 0x100005D80, symSize: 0x20 }
  - { offset: 0x4E2FD, size: 0x8, addend: 0x0, symName: __ZNSt3__16vectorIN7doctest16SubcaseSignatureENS_9allocatorIS2_EEE9push_backB8ne180100ERKS2_, symObjAddr: 0x46E0, symBinAddr: 0x100005DA0, symSize: 0x80 }
  - { offset: 0x4E343, size: 0x8, addend: 0x0, symName: __ZNSt3__16vectorIPN7doctest9IReporterENS_9allocatorIS3_EEE5beginB8ne180100Ev, symObjAddr: 0x4760, symBinAddr: 0x100005E20, symSize: 0x30 }
  - { offset: 0x4E36B, size: 0x8, addend: 0x0, symName: __ZNSt3__16vectorIPN7doctest9IReporterENS_9allocatorIS3_EEE3endB8ne180100Ev, symObjAddr: 0x4790, symBinAddr: 0x100005E50, symSize: 0x30 }
  - { offset: 0x4E393, size: 0x8, addend: 0x0, symName: __ZNKSt3__111__wrap_iterIPPN7doctest9IReporterEEdeB8ne180100Ev, symObjAddr: 0x47F0, symBinAddr: 0x100005EB0, symSize: 0x20 }
  - { offset: 0x4E3B9, size: 0x8, addend: 0x0, symName: __ZNSt3__111__wrap_iterIPPN7doctest9IReporterEEppB8ne180100Ev, symObjAddr: 0x4810, symBinAddr: 0x100005ED0, symSize: 0x20 }
  - { offset: 0x4E3DF, size: 0x8, addend: 0x0, symName: __ZNSt3__113unordered_setIyNS_4hashIyEENS_8equal_toIyEENS_9allocatorIyEEE4findB8ne180100ERKy, symObjAddr: 0x4860, symBinAddr: 0x100005F20, symSize: 0x40 }
  - { offset: 0x4E414, size: 0x8, addend: 0x0, symName: __ZNSt3__113unordered_setIyNS_4hashIyEENS_8equal_toIyEENS_9allocatorIyEEE3endB8ne180100Ev, symObjAddr: 0x49C0, symBinAddr: 0x100006080, symSize: 0x30 }
  - { offset: 0x4E43A, size: 0x8, addend: 0x0, symName: __ZNSt3__16vectorIN7doctest16SubcaseSignatureENS_9allocatorIS2_EEE5clearB8ne180100Ev, symObjAddr: 0x49F0, symBinAddr: 0x1000060B0, symSize: 0x40 }
  - { offset: 0x4E46F, size: 0x8, addend: 0x0, symName: __ZNSt3__16vectorIN7doctest16SubcaseSignatureENS_9allocatorIS2_EEE6insertINS_11__wrap_iterIPS2_EELi0EEES9_NS7_IPKS2_EET_SD_, symObjAddr: 0x4A30, symBinAddr: 0x1000060F0, symSize: 0x80 }
  - { offset: 0x4E4D4, size: 0x8, addend: 0x0, symName: __ZNSt3__16vectorIN7doctest16SubcaseSignatureENS_9allocatorIS2_EEE3endB8ne180100Ev, symObjAddr: 0x4AB0, symBinAddr: 0x100006170, symSize: 0x30 }
  - { offset: 0x4E502, size: 0x8, addend: 0x0, symName: __ZNSt3__111__wrap_iterIPKN7doctest16SubcaseSignatureEEC1B8ne180100IPS2_Li0EEERKNS0_IT_EE, symObjAddr: 0x4AE0, symBinAddr: 0x1000061A0, symSize: 0x30 }
  - { offset: 0x4E54B, size: 0x8, addend: 0x0, symName: __ZNSt3__16vectorIN7doctest16SubcaseSignatureENS_9allocatorIS2_EEE5beginB8ne180100Ev, symObjAddr: 0x4B10, symBinAddr: 0x1000061D0, symSize: 0x30 }
  - { offset: 0x4E573, size: 0x8, addend: 0x0, symName: __ZNKSt3__111__wrap_iterIPN7doctest16SubcaseSignatureEEplB8ne180100El, symObjAddr: 0x4B40, symBinAddr: 0x100006200, symSize: 0x40 }
  - { offset: 0x4E5BD, size: 0x8, addend: 0x0, symName: __ZN7doctest16SubcaseSignatureD1Ev, symObjAddr: 0x4B80, symBinAddr: 0x100006240, symSize: 0x20 }
  - { offset: 0x4E5EA, size: 0x8, addend: 0x0, symName: __ZN7doctest6detail7SubcaseC1ERKNS_6StringEPKci, symObjAddr: 0x4BA0, symBinAddr: 0x100006260, symSize: 0x40 }
  - { offset: 0x4E643, size: 0x8, addend: 0x0, symName: __ZN7doctest6detail7SubcaseD2Ev, symObjAddr: 0x4BE0, symBinAddr: 0x1000062A0, symSize: 0x390 }
  - { offset: 0x4E715, size: 0x8, addend: 0x0, symName: __ZNSt3__113unordered_setIyNS_4hashIyEENS_8equal_toIyEENS_9allocatorIyEEE6insertB8ne180100EOy, symObjAddr: 0x4F70, symBinAddr: 0x100006630, symSize: 0x40 }
  - { offset: 0x4E74A, size: 0x8, addend: 0x0, symName: __ZNKSt3__16vectorIN7doctest16SubcaseSignatureENS_9allocatorIS2_EEE5emptyB8ne180100Ev, symObjAddr: 0x5060, symBinAddr: 0x100006720, symSize: 0x20 }
  - { offset: 0x4E770, size: 0x8, addend: 0x0, symName: __ZNKSt3__113__atomic_baseIbLb0EEcvbB8ne180100Ev, symObjAddr: 0x5080, symBinAddr: 0x100006740, symSize: 0x30 }
  - { offset: 0x4E79C, size: 0x8, addend: 0x0, symName: __ZN7doctest17TestCaseExceptionD1Ev, symObjAddr: 0x50B0, symBinAddr: 0x100006770, symSize: 0x20 }
  - { offset: 0x4E7C9, size: 0x8, addend: 0x0, symName: __ZN7doctest6detail7SubcaseD1Ev, symObjAddr: 0x50D0, symBinAddr: 0x100006790, symSize: 0x20 }
  - { offset: 0x4E7F5, size: 0x8, addend: 0x0, symName: __ZNK7doctest6detail7SubcasecvbEv, symObjAddr: 0x50F0, symBinAddr: 0x1000067B0, symSize: 0x20 }
  - { offset: 0x4E81D, size: 0x8, addend: 0x0, symName: __ZN7doctest6detail6ResultC2EbRKNS_6StringE, symObjAddr: 0x5110, symBinAddr: 0x1000067D0, symSize: 0x40 }
  - { offset: 0x4E867, size: 0x8, addend: 0x0, symName: __ZN7doctest6detail6ResultC1EbRKNS_6StringE, symObjAddr: 0x5150, symBinAddr: 0x100006810, symSize: 0x40 }
  - { offset: 0x4E8B1, size: 0x8, addend: 0x0, symName: __ZN7doctest6detail20ExpressionDecomposerC2ENS_10assertType4EnumE, symObjAddr: 0x5190, symBinAddr: 0x100006850, symSize: 0x20 }
  - { offset: 0x4E8EC, size: 0x8, addend: 0x0, symName: __ZN7doctest6detail20ExpressionDecomposerC1ENS_10assertType4EnumE, symObjAddr: 0x51B0, symBinAddr: 0x100006870, symSize: 0x30 }
  - { offset: 0x4E927, size: 0x8, addend: 0x0, symName: __ZN7doctest6detail8TestCaseC2EPFvvEPKcjRKNS0_9TestSuiteERKNS_6StringEi, symObjAddr: 0x51E0, symBinAddr: 0x1000068A0, symSize: 0x1B0 }
  - { offset: 0x4E9B5, size: 0x8, addend: 0x0, symName: __ZN7doctest12TestCaseDataC2Ev, symObjAddr: 0x5390, symBinAddr: 0x100006A50, symSize: 0x20 }
  - { offset: 0x4E9E2, size: 0x8, addend: 0x0, symName: __ZN7doctest12TestCaseDataD2Ev, symObjAddr: 0x53B0, symBinAddr: 0x100006A70, symSize: 0x20 }
  - { offset: 0x4EA0F, size: 0x8, addend: 0x0, symName: __ZN7doctest6detail8TestCaseC1EPFvvEPKcjRKNS0_9TestSuiteERKNS_6StringEi, symObjAddr: 0x53D0, symBinAddr: 0x100006A90, symSize: 0x50 }
  - { offset: 0x4EA95, size: 0x8, addend: 0x0, symName: __ZN7doctest6detail8TestCaseC2ERKS1_, symObjAddr: 0x5420, symBinAddr: 0x100006AE0, symSize: 0xA0 }
  - { offset: 0x4EAD0, size: 0x8, addend: 0x0, symName: __ZN7doctest6detail8TestCaseaSERKS1_, symObjAddr: 0x54C0, symBinAddr: 0x100006B80, symSize: 0xA0 }
  - { offset: 0x4EB07, size: 0x8, addend: 0x0, symName: __ZN7doctest6detail8TestCaseC1ERKS1_, symObjAddr: 0x5560, symBinAddr: 0x100006C20, symSize: 0x30 }
  - { offset: 0x4EB48, size: 0x8, addend: 0x0, symName: __ZN7doctest12TestCaseDataaSERKS0_, symObjAddr: 0x5590, symBinAddr: 0x100006C50, symSize: 0x50 }
  - { offset: 0x4EB7A, size: 0x8, addend: 0x0, symName: __ZN7doctest6detail8TestCasemlEPKc, symObjAddr: 0x55E0, symBinAddr: 0x100006CA0, symSize: 0x270 }
  - { offset: 0x4EBB3, size: 0x8, addend: 0x0, symName: __ZNK7doctest6detail8TestCaseltERKS1_, symObjAddr: 0x5850, symBinAddr: 0x100006F10, symSize: 0xD0 }
  - { offset: 0x4EC08, size: 0x8, addend: 0x0, symName: __ZNSt3__13setIN7doctest6detail8TestCaseENS_4lessIS3_EENS_9allocatorIS3_EEEC1B8ne180100Ev, symObjAddr: 0x5990, symBinAddr: 0x100007050, symSize: 0x20 }
  - { offset: 0x4EC32, size: 0x8, addend: 0x0, symName: __ZNSt3__13setIN7doctest6detail8TestCaseENS_4lessIS3_EENS_9allocatorIS3_EEED1B8ne180100Ev, symObjAddr: 0x59B0, symBinAddr: 0x100007070, symSize: 0x20 }
  - { offset: 0x4EC5C, size: 0x8, addend: 0x0, symName: __ZNSt3__13setIN7doctest6detail8TestCaseENS_4lessIS3_EENS_9allocatorIS3_EEE6insertB8ne180100ERKS3_, symObjAddr: 0x5A00, symBinAddr: 0x1000070C0, symSize: 0x40 }
  - { offset: 0x4EC91, size: 0x8, addend: 0x0, symName: __ZNSt3__16vectorIPKN7doctest6detail20IExceptionTranslatorENS_9allocatorIS5_EEE5beginB8ne180100Ev, symObjAddr: 0x5CD0, symBinAddr: 0x100007390, symSize: 0x30 }
  - { offset: 0x4ECB9, size: 0x8, addend: 0x0, symName: __ZNSt3__16vectorIPKN7doctest6detail20IExceptionTranslatorENS_9allocatorIS5_EEE3endB8ne180100Ev, symObjAddr: 0x5D00, symBinAddr: 0x1000073C0, symSize: 0x30 }
  - { offset: 0x4ECE1, size: 0x8, addend: 0x0, symName: __ZNSt3__16vectorIPKN7doctest6detail20IExceptionTranslatorENS_9allocatorIS5_EEE9push_backB8ne180100ERKS5_, symObjAddr: 0x5D30, symBinAddr: 0x1000073F0, symSize: 0x80 }
  - { offset: 0x4ED27, size: 0x8, addend: 0x0, symName: __ZNSt3__16vectorIPN7doctest13IContextScopeENS_9allocatorIS3_EEED1B8ne180100Ev, symObjAddr: 0x5DB0, symBinAddr: 0x100007470, symSize: 0x20 }
  - { offset: 0x4ED6E, size: 0x8, addend: 0x0, symName: __ZN7doctest6detail16ContextScopeBaseC2Ev, symObjAddr: 0x5DD0, symBinAddr: 0x100007490, symSize: 0x80 }
  - { offset: 0x4ED9A, size: 0x8, addend: 0x0, symName: __ZN7doctest13IContextScopeC2Ev, symObjAddr: 0x5E50, symBinAddr: 0x100007510, symSize: 0x20 }
  - { offset: 0x4EDC4, size: 0x8, addend: 0x0, symName: __ZNSt3__16vectorIPN7doctest13IContextScopeENS_9allocatorIS3_EEE9push_backB8ne180100EOS3_, symObjAddr: 0x5E90, symBinAddr: 0x100007550, symSize: 0x80 }
  - { offset: 0x4EE0A, size: 0x8, addend: 0x0, symName: __ZN7doctest6detail16ContextScopeBaseC2EOS1_, symObjAddr: 0x5F10, symBinAddr: 0x1000075D0, symSize: 0x90 }
  - { offset: 0x4EE45, size: 0x8, addend: 0x0, symName: __ZN7doctest6detail16ContextScopeBase7destroyEv, symObjAddr: 0x5FA0, symBinAddr: 0x100007660, symSize: 0x1D0 }
  - { offset: 0x4EE83, size: 0x8, addend: 0x0, symName: __ZNSt3__119basic_ostringstreamIcNS_11char_traitsIcEENS_9allocatorIcEEEC1B8ne180100Ev, symObjAddr: 0x6170, symBinAddr: 0x100007830, symSize: 0xE0 }
  - { offset: 0x4EEAD, size: 0x8, addend: 0x0, symName: __ZNSt3__16vectorIN7doctest6StringENS_9allocatorIS2_EEE9push_backB8ne180100EOS2_, symObjAddr: 0x6250, symBinAddr: 0x100007910, symSize: 0x80 }
  - { offset: 0x4EEF3, size: 0x8, addend: 0x0, symName: __ZNKRSt3__119basic_ostringstreamIcNS_11char_traitsIcEENS_9allocatorIcEEE3strB8ne180100Ev, symObjAddr: 0x62D0, symBinAddr: 0x100007990, symSize: 0x30 }
  - { offset: 0x4EF19, size: 0x8, addend: 0x0, symName: __ZNKSt3__112basic_stringIcNS_11char_traitsIcEENS_9allocatorIcEEE5c_strB8ne180100Ev, symObjAddr: 0x6300, symBinAddr: 0x1000079C0, symSize: 0x20 }
  - { offset: 0x4EF45, size: 0x8, addend: 0x0, symName: __ZNSt3__119basic_ostringstreamIcNS_11char_traitsIcEENS_9allocatorIcEEED1Ev, symObjAddr: 0x6320, symBinAddr: 0x1000079E0, symSize: 0x40 }
  - { offset: 0x4EF72, size: 0x8, addend: 0x0, symName: __ZNSt3__16vectorIPN7doctest13IContextScopeENS_9allocatorIS3_EEE8pop_backEv, symObjAddr: 0x6360, symBinAddr: 0x100007A20, symSize: 0x30 }
  - { offset: 0x4EF9A, size: 0x8, addend: 0x0, symName: __ZN7doctest10AssertDataC2ENS_10assertType4EnumEPKciS4_S4_RKNS0_14StringContainsE, symObjAddr: 0x6390, symBinAddr: 0x100007A50, symSize: 0xD0 }
  - { offset: 0x4F020, size: 0x8, addend: 0x0, symName: __ZN7doctest10AssertData14StringContainsC1ERKS1_, symObjAddr: 0x6460, symBinAddr: 0x100007B20, symSize: 0x30 }
  - { offset: 0x4F056, size: 0x8, addend: 0x0, symName: __ZN7doctest10AssertDataC1ENS_10assertType4EnumEPKciS4_S4_RKNS0_14StringContainsE, symObjAddr: 0x6490, symBinAddr: 0x100007B50, symSize: 0x50 }
  - { offset: 0x4F0FE, size: 0x8, addend: 0x0, symName: __ZN7doctest6detail13ResultBuilderC2ENS_10assertType4EnumEPKciS5_S5_RKNS_6StringE, symObjAddr: 0x64E0, symBinAddr: 0x100007BA0, symSize: 0x140 }
  - { offset: 0x4F187, size: 0x8, addend: 0x0, symName: __ZN7doctest10AssertData14StringContainsC1ERKNS_6StringE, symObjAddr: 0x6620, symBinAddr: 0x100007CE0, symSize: 0x30 }
  - { offset: 0x4F1C0, size: 0x8, addend: 0x0, symName: __ZN7doctest10AssertData14StringContainsD1Ev, symObjAddr: 0x6650, symBinAddr: 0x100007D10, symSize: 0x20 }
  - { offset: 0x4F1ED, size: 0x8, addend: 0x0, symName: __ZN7doctest6detail13ResultBuilderC1ENS_10assertType4EnumEPKciS5_S5_RKNS_6StringE, symObjAddr: 0x6670, symBinAddr: 0x100007D30, symSize: 0x50 }
  - { offset: 0x4F273, size: 0x8, addend: 0x0, symName: __ZN7doctest6detail13ResultBuilderC2ENS_10assertType4EnumEPKciS5_S5_RKNS_8ContainsE, symObjAddr: 0x66C0, symBinAddr: 0x100007D80, symSize: 0x180 }
  - { offset: 0x4F2FF, size: 0x8, addend: 0x0, symName: __ZN7doctest8ContainsC1ERKS0_, symObjAddr: 0x6840, symBinAddr: 0x100007F00, symSize: 0x30 }
  - { offset: 0x4F335, size: 0x8, addend: 0x0, symName: __ZN7doctest10AssertData14StringContainsC1ENS_8ContainsE, symObjAddr: 0x6870, symBinAddr: 0x100007F30, symSize: 0x20 }
  - { offset: 0x4F36F, size: 0x8, addend: 0x0, symName: __ZN7doctest8ContainsD1Ev, symObjAddr: 0x6890, symBinAddr: 0x100007F50, symSize: 0x20 }
  - { offset: 0x4F39C, size: 0x8, addend: 0x0, symName: __ZN7doctest6detail13ResultBuilderC1ENS_10assertType4EnumEPKciS5_S5_RKNS_8ContainsE, symObjAddr: 0x68B0, symBinAddr: 0x100007F70, symSize: 0x50 }
  - { offset: 0x4F422, size: 0x8, addend: 0x0, symName: __ZN7doctest6detail13ResultBuilder9setResultERKNS0_6ResultE, symObjAddr: 0x6900, symBinAddr: 0x100007FC0, symSize: 0x50 }
  - { offset: 0x4F459, size: 0x8, addend: 0x0, symName: __ZN7doctest6detail13ResultBuilder18translateExceptionEv, symObjAddr: 0x6950, symBinAddr: 0x100008010, symSize: 0x70 }
  - { offset: 0x4F481, size: 0x8, addend: 0x0, symName: __ZN7doctest6detail13ResultBuilder3logEv, symObjAddr: 0x6D60, symBinAddr: 0x100008420, symSize: 0x4D0 }
  - { offset: 0x4F4FD, size: 0x8, addend: 0x0, symName: __ZN7doctest10AssertData14StringContains5checkERKNS_6StringE, symObjAddr: 0x7230, symBinAddr: 0x1000088F0, symSize: 0x60 }
  - { offset: 0x4F532, size: 0x8, addend: 0x0, symName: __ZNK7doctest6detail13ResultBuilder5reactEv, symObjAddr: 0x7360, symBinAddr: 0x100008A20, symSize: 0x50 }
  - { offset: 0x4F55A, size: 0x8, addend: 0x0, symName: __ZN7doctest6detail13ResultBuilderD1Ev, symObjAddr: 0x7800, symBinAddr: 0x100008EC0, symSize: 0x20 }
  - { offset: 0x4F5A4, size: 0x8, addend: 0x0, symName: __ZN7doctest6detail14MessageBuilderC2EPKciNS_10assertType4EnumE, symObjAddr: 0x7820, symBinAddr: 0x100008EE0, symSize: 0x80 }
  - { offset: 0x4F603, size: 0x8, addend: 0x0, symName: __ZN7doctest11MessageDataC2Ev, symObjAddr: 0x78A0, symBinAddr: 0x100008F60, symSize: 0x20 }
  - { offset: 0x4F630, size: 0x8, addend: 0x0, symName: __ZN7doctest11MessageDataD2Ev, symObjAddr: 0x78C0, symBinAddr: 0x100008F80, symSize: 0x20 }
  - { offset: 0x4F65D, size: 0x8, addend: 0x0, symName: __ZN7doctest6detail14MessageBuilderC1EPKciNS_10assertType4EnumE, symObjAddr: 0x78E0, symBinAddr: 0x100008FA0, symSize: 0x30 }
  - { offset: 0x4F6B6, size: 0x8, addend: 0x0, symName: __ZN7doctest6detail14MessageBuilderD2Ev, symObjAddr: 0x7910, symBinAddr: 0x100008FD0, symSize: 0xB0 }
  - { offset: 0x4F6E2, size: 0x8, addend: 0x0, symName: __ZN7doctest6detail14MessageBuilderD1Ev, symObjAddr: 0x79C0, symBinAddr: 0x100009080, symSize: 0x20 }
  - { offset: 0x4F70E, size: 0x8, addend: 0x0, symName: __ZN7doctest6detail20IExceptionTranslatorD2Ev, symObjAddr: 0x79E0, symBinAddr: 0x1000090A0, symSize: 0x10 }
  - { offset: 0x4F73A, size: 0x8, addend: 0x0, symName: __ZN7doctest6detail20IExceptionTranslatorD1Ev, symObjAddr: 0x79F0, symBinAddr: 0x1000090B0, symSize: 0x10 }
  - { offset: 0x4F766, size: 0x8, addend: 0x0, symName: __ZN7doctest6detail20IExceptionTranslatorD0Ev, symObjAddr: 0x7A00, symBinAddr: 0x1000090C0, symSize: 0x10 }
  - { offset: 0x4F792, size: 0x8, addend: 0x0, symName: __ZN7doctest6detail14MessageBuilder3logEv, symObjAddr: 0x7A10, symBinAddr: 0x1000090D0, symSize: 0x1A0 }
  - { offset: 0x4F81A, size: 0x8, addend: 0x0, symName: __ZN7doctest6detail14MessageBuilder5reactEv, symObjAddr: 0x7BB0, symBinAddr: 0x100009270, symSize: 0x30 }
  - { offset: 0x4F865, size: 0x8, addend: 0x0, symName: __ZN7doctest7ContextC2EiPKPKc, symObjAddr: 0x7CA0, symBinAddr: 0x100009360, symSize: 0x130 }
  - { offset: 0x4F8AF, size: 0x8, addend: 0x0, symName: __ZN7doctest6detail12ContextStateC1Ev, symObjAddr: 0x7DD0, symBinAddr: 0x100009490, symSize: 0x20 }
  - { offset: 0x4F8DC, size: 0x8, addend: 0x0, symName: __ZN7doctest7Context9parseArgsEiPKPKcb, symObjAddr: 0x7DF0, symBinAddr: 0x1000094B0, symSize: 0x2CA0 }
  - { offset: 0x4F95C, size: 0x8, addend: 0x0, symName: __ZN7doctest7ContextC1EiPKPKc, symObjAddr: 0xAA90, symBinAddr: 0x10000C150, symSize: 0x30 }
  - { offset: 0x4F9A6, size: 0x8, addend: 0x0, symName: __ZN7doctest7ContextD2Ev, symObjAddr: 0xAAC0, symBinAddr: 0x10000C180, symSize: 0x60 }
  - { offset: 0x4F9D2, size: 0x8, addend: 0x0, symName: __ZN7doctest6detail12ContextStateD1Ev, symObjAddr: 0xAB20, symBinAddr: 0x10000C1E0, symSize: 0x20 }
  - { offset: 0x4F9FF, size: 0x8, addend: 0x0, symName: __ZN7doctest7ContextD1Ev, symObjAddr: 0xAB40, symBinAddr: 0x10000C200, symSize: 0x20 }
  - { offset: 0x4FA2B, size: 0x8, addend: 0x0, symName: __ZN7doctest7Context16applyCommandLineEiPKPKc, symObjAddr: 0xAB60, symBinAddr: 0x10000C220, symSize: 0x90 }
  - { offset: 0x4FA71, size: 0x8, addend: 0x0, symName: __ZN7doctest7Context9addFilterEPKcS2_, symObjAddr: 0xB400, symBinAddr: 0x10000CAC0, symSize: 0x30 }
  - { offset: 0x4FAB7, size: 0x8, addend: 0x0, symName: __ZN7doctest7Context9setOptionEPKcS2_, symObjAddr: 0xB430, symBinAddr: 0x10000CAF0, symSize: 0x2C0 }
  - { offset: 0x4FB1F, size: 0x8, addend: 0x0, symName: __ZN7doctest7Context12clearFiltersEv, symObjAddr: 0xB6F0, symBinAddr: 0x10000CDB0, symSize: 0x80 }
  - { offset: 0x4FB96, size: 0x8, addend: 0x0, symName: __ZNSt3__16vectorINS0_IN7doctest6StringENS_9allocatorIS2_EEEENS3_IS5_EEE5beginB8ne180100Ev, symObjAddr: 0xB770, symBinAddr: 0x10000CE30, symSize: 0x30 }
  - { offset: 0x4FBBE, size: 0x8, addend: 0x0, symName: __ZNSt3__16vectorINS0_IN7doctest6StringENS_9allocatorIS2_EEEENS3_IS5_EEE3endB8ne180100Ev, symObjAddr: 0xB7A0, symBinAddr: 0x10000CE60, symSize: 0x30 }
  - { offset: 0x4FBE6, size: 0x8, addend: 0x0, symName: __ZNKSt3__111__wrap_iterIPNS_6vectorIN7doctest6StringENS_9allocatorIS3_EEEEEdeB8ne180100Ev, symObjAddr: 0xB800, symBinAddr: 0x10000CEC0, symSize: 0x20 }
  - { offset: 0x4FC0C, size: 0x8, addend: 0x0, symName: __ZNSt3__16vectorIN7doctest6StringENS_9allocatorIS2_EEE5clearB8ne180100Ev, symObjAddr: 0xB820, symBinAddr: 0x10000CEE0, symSize: 0x40 }
  - { offset: 0x4FC41, size: 0x8, addend: 0x0, symName: __ZNSt3__111__wrap_iterIPNS_6vectorIN7doctest6StringENS_9allocatorIS3_EEEEEppB8ne180100Ev, symObjAddr: 0xB860, symBinAddr: 0x10000CF20, symSize: 0x20 }
  - { offset: 0x4FC67, size: 0x8, addend: 0x0, symName: __ZN7doctest7Context9setOptionEPKcb, symObjAddr: 0xB880, symBinAddr: 0x10000CF40, symSize: 0x50 }
  - { offset: 0x4FCAD, size: 0x8, addend: 0x0, symName: __ZN7doctest7Context9setOptionEPKci, symObjAddr: 0xB8D0, symBinAddr: 0x10000CF90, symSize: 0xF0 }
  - { offset: 0x4FCF3, size: 0x8, addend: 0x0, symName: __ZN7doctest7Context10shouldExitEv, symObjAddr: 0xB9C0, symBinAddr: 0x10000D080, symSize: 0x20 }
  - { offset: 0x4FD1B, size: 0x8, addend: 0x0, symName: __ZN7doctest7Context36setAsDefaultForAssertsOutOfTestCasesEv, symObjAddr: 0xB9E0, symBinAddr: 0x10000D0A0, symSize: 0x20 }
  - { offset: 0x4FD43, size: 0x8, addend: 0x0, symName: __ZN7doctest7Context16setAssertHandlerEPFvRKNS_10AssertDataEE, symObjAddr: 0xBA00, symBinAddr: 0x10000D0C0, symSize: 0x20 }
  - { offset: 0x4FD7A, size: 0x8, addend: 0x0, symName: __ZN7doctest7Context7setCoutEPNSt3__113basic_ostreamIcNS1_11char_traitsIcEEEE, symObjAddr: 0xBA20, symBinAddr: 0x10000D0E0, symSize: 0x20 }
  - { offset: 0x4FDB1, size: 0x8, addend: 0x0, symName: __ZN7doctest14DiscardOStreamC1Ev, symObjAddr: 0xBA40, symBinAddr: 0x10000D100, symSize: 0xE0 }
  - { offset: 0x4FDDB, size: 0x8, addend: 0x0, symName: __ZN7doctest14DiscardOStreamD1Ev, symObjAddr: 0xBB20, symBinAddr: 0x10000D1E0, symSize: 0x40 }
  - { offset: 0x4FE08, size: 0x8, addend: 0x0, symName: __ZN7doctest7Context3runEv, symObjAddr: 0xBB60, symBinAddr: 0x10000D220, symSize: 0x1CD0 }
  - { offset: 0x503EF, size: 0x8, addend: 0x0, symName: __ZN7doctest6detail12ContextState12resetRunDataEv, symObjAddr: 0xD830, symBinAddr: 0x10000EEF0, symSize: 0x60 }
  - { offset: 0x506C3, size: 0x8, addend: 0x0, symName: __ZNSt3__113basic_fstreamIcNS_11char_traitsIcEEEC1Ev, symObjAddr: 0xD890, symBinAddr: 0x10000EF50, symSize: 0xF0 }
  - { offset: 0x506EF, size: 0x8, addend: 0x0, symName: __ZNSt3__113basic_fstreamIcNS_11char_traitsIcEEE4openEPKcj, symObjAddr: 0xD980, symBinAddr: 0x10000F040, symSize: 0x70 }
  - { offset: 0x50735, size: 0x8, addend: 0x0, symName: __ZN7doctest12_GLOBAL__N_121FatalConditionHandler19allocateAltStackMemEv, symObjAddr: 0xD9F0, symBinAddr: 0x10000F0B0, symSize: 0x20 }
  - { offset: 0x50749, size: 0x8, addend: 0x0, symName: __ZNKSt3__16vectorIN7doctest6StringENS_9allocatorIS2_EEE5emptyB8ne180100Ev, symObjAddr: 0xDA10, symBinAddr: 0x10000F0D0, symSize: 0x20 }
  - { offset: 0x5076F, size: 0x8, addend: 0x0, symName: __ZNSt3__13mapINS_4pairIiN7doctest6StringEEEPFPNS2_9IReporterERKNS2_14ContextOptionsEENS_4lessIS4_EENS_9allocatorINS1_IKS4_SB_EEEEE5beginB8ne180100Ev, symObjAddr: 0xDAA0, symBinAddr: 0x10000F160, symSize: 0x30 }
  - { offset: 0x50795, size: 0x8, addend: 0x0, symName: __ZNSt3__13mapINS_4pairIiN7doctest6StringEEEPFPNS2_9IReporterERKNS2_14ContextOptionsEENS_4lessIS4_EENS_9allocatorINS1_IKS4_SB_EEEEE3endB8ne180100Ev, symObjAddr: 0xDAD0, symBinAddr: 0x10000F190, symSize: 0x30 }
  - { offset: 0x507BB, size: 0x8, addend: 0x0, symName: __ZNKSt3__114__map_iteratorINS_15__tree_iteratorINS_12__value_typeINS_4pairIiN7doctest6StringEEEPFPNS4_9IReporterERKNS4_14ContextOptionsEEEEPNS_11__tree_nodeISE_PvEElEEEdeB8ne180100Ev, symObjAddr: 0xDB30, symBinAddr: 0x10000F1F0, symSize: 0x30 }
  - { offset: 0x507E1, size: 0x8, addend: 0x0, symName: __ZNSt3__16vectorIPN7doctest9IReporterENS_9allocatorIS3_EEE9push_backB8ne180100EOS3_, symObjAddr: 0xDB60, symBinAddr: 0x10000F220, symSize: 0x80 }
  - { offset: 0x50827, size: 0x8, addend: 0x0, symName: __ZNSt3__114__map_iteratorINS_15__tree_iteratorINS_12__value_typeINS_4pairIiN7doctest6StringEEEPFPNS4_9IReporterERKNS4_14ContextOptionsEEEEPNS_11__tree_nodeISE_PvEElEEEppB8ne180100Ev, symObjAddr: 0xDBE0, symBinAddr: 0x10000F2A0, symSize: 0x30 }
  - { offset: 0x5084D, size: 0x8, addend: 0x0, symName: __ZNSt3__16vectorIPN7doctest9IReporterENS_9allocatorIS3_EEE6insertENS_11__wrap_iterIPKS3_EEOS3_, symObjAddr: 0xDC80, symBinAddr: 0x10000F340, symSize: 0x1C0 }
  - { offset: 0x508CD, size: 0x8, addend: 0x0, symName: __ZNSt3__111__wrap_iterIPKPN7doctest9IReporterEEC1B8ne180100IPS3_Li0EEERKNS0_IT_EE, symObjAddr: 0xDE40, symBinAddr: 0x10000F500, symSize: 0x30 }
  - { offset: 0x5091C, size: 0x8, addend: 0x0, symName: __ZN7doctest9QueryDataC1Ev, symObjAddr: 0xDE70, symBinAddr: 0x10000F530, symSize: 0x20 }
  - { offset: 0x50966, size: 0x8, addend: 0x0, symName: '__ZZN7doctest7Context3runEvENK3$_0clEv', symObjAddr: 0xDE90, symBinAddr: 0x10000F550, symSize: 0x140 }
  - { offset: 0x509DF, size: 0x8, addend: 0x0, symName: __ZNSt3__16vectorIPKN7doctest6detail8TestCaseENS_9allocatorIS5_EEEC1B8ne180100Ev, symObjAddr: 0xDFD0, symBinAddr: 0x10000F690, symSize: 0x20 }
  - { offset: 0x50A09, size: 0x8, addend: 0x0, symName: __ZNSt3__13setIN7doctest6detail8TestCaseENS_4lessIS3_EENS_9allocatorIS3_EEE5beginB8ne180100Ev, symObjAddr: 0xDFF0, symBinAddr: 0x10000F6B0, symSize: 0x30 }
  - { offset: 0x50A2F, size: 0x8, addend: 0x0, symName: __ZNSt3__13setIN7doctest6detail8TestCaseENS_4lessIS3_EENS_9allocatorIS3_EEE3endB8ne180100Ev, symObjAddr: 0xE020, symBinAddr: 0x10000F6E0, symSize: 0x30 }
  - { offset: 0x50A55, size: 0x8, addend: 0x0, symName: __ZNKSt3__121__tree_const_iteratorIN7doctest6detail8TestCaseEPNS_11__tree_nodeIS3_PvEElEdeB8ne180100Ev, symObjAddr: 0xE080, symBinAddr: 0x10000F740, symSize: 0x20 }
  - { offset: 0x50A7B, size: 0x8, addend: 0x0, symName: __ZNSt3__16vectorIPKN7doctest6detail8TestCaseENS_9allocatorIS5_EEE9push_backB8ne180100EOS5_, symObjAddr: 0xE0A0, symBinAddr: 0x10000F760, symSize: 0x80 }
  - { offset: 0x50AC1, size: 0x8, addend: 0x0, symName: __ZNSt3__121__tree_const_iteratorIN7doctest6detail8TestCaseEPNS_11__tree_nodeIS3_PvEElEppB8ne180100Ev, symObjAddr: 0xE120, symBinAddr: 0x10000F7E0, symSize: 0x30 }
  - { offset: 0x50AE7, size: 0x8, addend: 0x0, symName: __ZNKSt3__16vectorIPKN7doctest6detail8TestCaseENS_9allocatorIS5_EEE4sizeB8ne180100Ev, symObjAddr: 0xE150, symBinAddr: 0x10000F810, symSize: 0x20 }
  - { offset: 0x50B0D, size: 0x8, addend: 0x0, symName: __ZNKSt3__16vectorIPKN7doctest6detail8TestCaseENS_9allocatorIS5_EEE5emptyB8ne180100Ev, symObjAddr: 0xE170, symBinAddr: 0x10000F830, symSize: 0x20 }
  - { offset: 0x50B33, size: 0x8, addend: 0x0, symName: __ZNSt3__16vectorIPKN7doctest6detail8TestCaseENS_9allocatorIS5_EEE5beginB8ne180100Ev, symObjAddr: 0xE1D0, symBinAddr: 0x10000F890, symSize: 0x30 }
  - { offset: 0x50B5B, size: 0x8, addend: 0x0, symName: __ZNSt3__16vectorIPKN7doctest6detail8TestCaseENS_9allocatorIS5_EEE3endB8ne180100Ev, symObjAddr: 0xE200, symBinAddr: 0x10000F8C0, symSize: 0x30 }
  - { offset: 0x50B83, size: 0x8, addend: 0x0, symName: __ZNSt3__16vectorIPKN7doctest6detail8TestCaseENS_9allocatorIS5_EEEixB8ne180100Em, symObjAddr: 0xE3A0, symBinAddr: 0x10000FA60, symSize: 0x20 }
  - { offset: 0x50CEB, size: 0x8, addend: 0x0, symName: __ZNSt3__13setIN7doctest6StringENS_4lessIS2_EENS_9allocatorIS2_EEEC1B8ne180100Ev, symObjAddr: 0xE3C0, symBinAddr: 0x10000FA80, symSize: 0x20 }
  - { offset: 0x50D15, size: 0x8, addend: 0x0, symName: __ZNSt3__16vectorIPKN7doctest12TestCaseDataENS_9allocatorIS4_EEEC1B8ne180100Ev, symObjAddr: 0xE3E0, symBinAddr: 0x10000FAA0, symSize: 0x20 }
  - { offset: 0x50D3F, size: 0x8, addend: 0x0, symName: __ZNKSt3__111__wrap_iterIPPKN7doctest6detail8TestCaseEEdeB8ne180100Ev, symObjAddr: 0xE430, symBinAddr: 0x10000FAF0, symSize: 0x20 }
  - { offset: 0x50D65, size: 0x8, addend: 0x0, symName: __ZNSt3__16vectorIPKN7doctest12TestCaseDataENS_9allocatorIS4_EEE9push_backB8ne180100EOS4_, symObjAddr: 0xE450, symBinAddr: 0x10000FB10, symSize: 0x80 }
  - { offset: 0x50DAB, size: 0x8, addend: 0x0, symName: __ZNKSt3__13setIN7doctest6StringENS_4lessIS2_EENS_9allocatorIS2_EEE5countB8ne180100ERKS2_, symObjAddr: 0xE4D0, symBinAddr: 0x10000FB90, symSize: 0x30 }
  - { offset: 0x50DE0, size: 0x8, addend: 0x0, symName: __ZNSt3__13setIN7doctest6StringENS_4lessIS2_EENS_9allocatorIS2_EEE6insertB8ne180100EOS2_, symObjAddr: 0xE500, symBinAddr: 0x10000FBC0, symSize: 0x40 }
  - { offset: 0x50E15, size: 0x8, addend: 0x0, symName: __ZN7doctest6detail15MultiLaneAtomicIiEaSEi, symObjAddr: 0xE540, symBinAddr: 0x10000FC00, symSize: 0x30 }
  - { offset: 0x50E4A, size: 0x8, addend: 0x0, symName: __ZNSt3__113unordered_setIyNS_4hashIyEENS_8equal_toIyEENS_9allocatorIyEEE5clearB8ne180100Ev, symObjAddr: 0xE570, symBinAddr: 0x10000FC30, symSize: 0x20 }
  - { offset: 0x50E70, size: 0x8, addend: 0x0, symName: __ZN7doctest6detail5Timer5startEv, symObjAddr: 0xE590, symBinAddr: 0x10000FC50, symSize: 0x30 }
  - { offset: 0x50E96, size: 0x8, addend: 0x0, symName: __ZN7doctest12_GLOBAL__N_121FatalConditionHandlerC1Ev, symObjAddr: 0xE5C0, symBinAddr: 0x10000FC80, symSize: 0x20 }
  - { offset: 0x50EC0, size: 0x8, addend: 0x0, symName: __ZN7doctest12_GLOBAL__N_121FatalConditionHandler5resetEv, symObjAddr: 0xE5E0, symBinAddr: 0x10000FCA0, symSize: 0x90 }
  - { offset: 0x50EF2, size: 0x8, addend: 0x0, symName: __ZN7doctest12_GLOBAL__N_121FatalConditionHandlerD1Ev, symObjAddr: 0xE670, symBinAddr: 0x10000FD30, symSize: 0x20 }
  - { offset: 0x50F1C, size: 0x8, addend: 0x0, symName: __ZN7doctest6detail12ContextState20finalizeTestCaseDataEv, symObjAddr: 0xE690, symBinAddr: 0x10000FD50, symSize: 0x310 }
  - { offset: 0x50F52, size: 0x8, addend: 0x0, symName: __ZNSt3__111__wrap_iterIPPKN7doctest6detail8TestCaseEEppB8ne180100Ev, symObjAddr: 0xE9A0, symBinAddr: 0x100010060, symSize: 0x20 }
  - { offset: 0x50F78, size: 0x8, addend: 0x0, symName: __ZNSt3__16vectorIPKN7doctest12TestCaseDataENS_9allocatorIS4_EEE4dataB8ne180100Ev, symObjAddr: 0xE9C0, symBinAddr: 0x100010080, symSize: 0x20 }
  - { offset: 0x50F9E, size: 0x8, addend: 0x0, symName: __ZNKSt3__16vectorIPKN7doctest12TestCaseDataENS_9allocatorIS4_EEE4sizeB8ne180100Ev, symObjAddr: 0xE9E0, symBinAddr: 0x1000100A0, symSize: 0x20 }
  - { offset: 0x50FC4, size: 0x8, addend: 0x0, symName: __ZNSt3__16vectorIPKN7doctest12TestCaseDataENS_9allocatorIS4_EEED1B8ne180100Ev, symObjAddr: 0xEA00, symBinAddr: 0x1000100C0, symSize: 0x20 }
  - { offset: 0x50FEE, size: 0x8, addend: 0x0, symName: __ZNSt3__13setIN7doctest6StringENS_4lessIS2_EENS_9allocatorIS2_EEED1B8ne180100Ev, symObjAddr: 0xEA20, symBinAddr: 0x1000100E0, symSize: 0x20 }
  - { offset: 0x51018, size: 0x8, addend: 0x0, symName: __ZNSt3__16vectorIPKN7doctest6detail8TestCaseENS_9allocatorIS5_EEED1B8ne180100Ev, symObjAddr: 0xEA40, symBinAddr: 0x100010100, symSize: 0x20 }
  - { offset: 0x51048, size: 0x8, addend: 0x0, symName: __ZNSt3__113basic_fstreamIcNS_11char_traitsIcEEED1Ev, symObjAddr: 0xEA60, symBinAddr: 0x100010120, symSize: 0x40 }
  - { offset: 0x51074, size: 0x8, addend: 0x0, symName: __ZN7doctest9IReporterD2Ev, symObjAddr: 0xEAA0, symBinAddr: 0x100010160, symSize: 0x10 }
  - { offset: 0x510A0, size: 0x8, addend: 0x0, symName: __ZN7doctest9IReporterD1Ev, symObjAddr: 0xEAB0, symBinAddr: 0x100010170, symSize: 0x10 }
  - { offset: 0x510CC, size: 0x8, addend: 0x0, symName: __ZN7doctest9IReporterD0Ev, symObjAddr: 0xEAC0, symBinAddr: 0x100010180, symSize: 0x10 }
  - { offset: 0x510F8, size: 0x8, addend: 0x0, symName: __ZN7doctest9IReporter23get_num_active_contextsEv, symObjAddr: 0xEAD0, symBinAddr: 0x100010190, symSize: 0x20 }
  - { offset: 0x5110E, size: 0x8, addend: 0x0, symName: __ZNKSt3__16vectorIPN7doctest13IContextScopeENS_9allocatorIS3_EEE4sizeB8ne180100Ev, symObjAddr: 0xEAF0, symBinAddr: 0x1000101B0, symSize: 0x20 }
  - { offset: 0x51134, size: 0x8, addend: 0x0, symName: __ZN7doctest9IReporter19get_active_contextsEv, symObjAddr: 0xEB10, symBinAddr: 0x1000101D0, symSize: 0x50 }
  - { offset: 0x5114A, size: 0x8, addend: 0x0, symName: __ZNSt3__16vectorIPN7doctest13IContextScopeENS_9allocatorIS3_EEEixB8ne180100Em, symObjAddr: 0xEB60, symBinAddr: 0x100010220, symSize: 0x20 }
  - { offset: 0x51181, size: 0x8, addend: 0x0, symName: __ZN7doctest9IReporter28get_num_stringified_contextsEv, symObjAddr: 0xEB80, symBinAddr: 0x100010240, symSize: 0x20 }
  - { offset: 0x51197, size: 0x8, addend: 0x0, symName: __ZNKSt3__16vectorIN7doctest6StringENS_9allocatorIS2_EEE4sizeB8ne180100Ev, symObjAddr: 0xEBA0, symBinAddr: 0x100010260, symSize: 0x30 }
  - { offset: 0x511BD, size: 0x8, addend: 0x0, symName: __ZN7doctest9IReporter24get_stringified_contextsEv, symObjAddr: 0xEBD0, symBinAddr: 0x100010290, symSize: 0x50 }
  - { offset: 0x511D3, size: 0x8, addend: 0x0, symName: __ZNSt3__16vectorIN7doctest6StringENS_9allocatorIS2_EEEixB8ne180100Em, symObjAddr: 0xEC20, symBinAddr: 0x1000102E0, symSize: 0x20 }
  - { offset: 0x5120A, size: 0x8, addend: 0x0, symName: __ZNSt3__13mapINS_4pairIiN7doctest6StringEEEPFPNS2_9IReporterERKNS2_14ContextOptionsEENS_4lessIS4_EENS_9allocatorINS1_IKS4_SB_EEEEE6insertB8ne180100EOSG_, symObjAddr: 0xEE90, symBinAddr: 0x100010550, symSize: 0x40 }
  - { offset: 0x51245, size: 0x8, addend: 0x0, symName: __ZNSt3__14pairIiN7doctest6StringEEC1B8ne180100IRiRPKcLi0EEEOT_OT0_, symObjAddr: 0xEED0, symBinAddr: 0x100010590, symSize: 0x30 }
  - { offset: 0x512AC, size: 0x8, addend: 0x0, symName: __ZNSt3__14pairIKNS0_IiN7doctest6StringEEEPFPNS1_9IReporterERKNS1_14ContextOptionsEEEC1B8ne180100IS3_RSB_Li0EEEOT_OT0_, symObjAddr: 0xEF00, symBinAddr: 0x1000105C0, symSize: 0x30 }
  - { offset: 0x5130D, size: 0x8, addend: 0x0, symName: __ZNSt3__14pairIKNS0_IiN7doctest6StringEEEPFPNS1_9IReporterERKNS1_14ContextOptionsEEED1Ev, symObjAddr: 0xEF30, symBinAddr: 0x1000105F0, symSize: 0x20 }
  - { offset: 0x51339, size: 0x8, addend: 0x0, symName: __ZNSt3__14pairIiN7doctest6StringEED1Ev, symObjAddr: 0xEF50, symBinAddr: 0x100010610, symSize: 0x20 }
  - { offset: 0x51365, size: 0x8, addend: 0x0, symName: _main, symObjAddr: 0xEF70, symBinAddr: 0x100010630, symSize: 0x80 }
  - { offset: 0x5139F, size: 0x8, addend: 0x0, symName: __Z15printTokenStackNSt3__15stackIN2ds5TokenENS_5dequeIS2_NS_9allocatorIS2_EEEEEE, symObjAddr: 0xEFF0, symBinAddr: 0x1000106B0, symSize: 0x140 }
  - { offset: 0x513DE, size: 0x8, addend: 0x0, symName: __ZNSt3__118basic_stringstreamIcNS_11char_traitsIcEENS_9allocatorIcEEEC1B8ne180100Ev, symObjAddr: 0xF130, symBinAddr: 0x1000107F0, symSize: 0x100 }
  - { offset: 0x5144D, size: 0x8, addend: 0x0, symName: __ZNKSt3__15stackIN2ds5TokenENS_5dequeIS2_NS_9allocatorIS2_EEEEE5emptyB8ne180100Ev, symObjAddr: 0xF230, symBinAddr: 0x1000108F0, symSize: 0x20 }
  - { offset: 0x51473, size: 0x8, addend: 0x0, symName: __ZNSt3__15stackIN2ds5TokenENS_5dequeIS2_NS_9allocatorIS2_EEEEE3topB8ne180100Ev, symObjAddr: 0xF300, symBinAddr: 0x1000109C0, symSize: 0x20 }
  - { offset: 0x51499, size: 0x8, addend: 0x0, symName: __ZNSt3__15stackIN2ds5TokenENS_5dequeIS2_NS_9allocatorIS2_EEEEE3popB8ne180100Ev, symObjAddr: 0xF320, symBinAddr: 0x1000109E0, symSize: 0x20 }
  - { offset: 0x514BF, size: 0x8, addend: 0x0, symName: __ZNKRSt3__118basic_stringstreamIcNS_11char_traitsIcEENS_9allocatorIcEEE3strB8ne180100Ev, symObjAddr: 0xF340, symBinAddr: 0x100010A00, symSize: 0x30 }
  - { offset: 0x514EB, size: 0x8, addend: 0x0, symName: __ZNSt3__118basic_stringstreamIcNS_11char_traitsIcEENS_9allocatorIcEEED1Ev, symObjAddr: 0xF370, symBinAddr: 0x100010A30, symSize: 0x40 }
  - { offset: 0x51518, size: 0x8, addend: 0x0, symName: __ZL20DOCTEST_ANON_FUNC_14v, symObjAddr: 0xF3B0, symBinAddr: 0x100010A70, symSize: 0x980 }
  - { offset: 0x515D7, size: 0x8, addend: 0x0, symName: __ZN7doctest6detail8TestCaseD1Ev, symObjAddr: 0xFD30, symBinAddr: 0x1000113F0, symSize: 0x20 }
  - { offset: 0x51601, size: 0x8, addend: 0x0, symName: __ZL20DOCTEST_ANON_FUNC_21v, symObjAddr: 0xFD50, symBinAddr: 0x100011410, symSize: 0x9F0 }
  - { offset: 0x516E0, size: 0x8, addend: 0x0, symName: __ZL20DOCTEST_ANON_FUNC_28v, symObjAddr: 0x10740, symBinAddr: 0x100011E00, symSize: 0x9F0 }
  - { offset: 0x517BF, size: 0x8, addend: 0x0, symName: __ZN7doctest6detail16ContextScopeBaseD1Ev, symObjAddr: 0x11130, symBinAddr: 0x1000127F0, symSize: 0x10 }
  - { offset: 0x517E9, size: 0x8, addend: 0x0, symName: __ZN7doctest6detail16ContextScopeBaseD0Ev, symObjAddr: 0x11140, symBinAddr: 0x100012800, symSize: 0x10 }
  - { offset: 0x51813, size: 0x8, addend: 0x0, symName: __ZN7doctest6detail9TestSuiteC2Ev, symObjAddr: 0x11150, symBinAddr: 0x100012810, symSize: 0x40 }
  - { offset: 0x51840, size: 0x8, addend: 0x0, symName: '__ZN7doctest6detail3$_0C2Ev', symObjAddr: 0x11190, symBinAddr: 0x100012850, symSize: 0x50 }
  - { offset: 0x5186D, size: 0x8, addend: 0x0, symName: __ZNSt3__16vectorINS_4fposI11__mbstate_tEENS_9allocatorIS3_EEEC1B8ne180100Ev, symObjAddr: 0x111E0, symBinAddr: 0x1000128A0, symSize: 0x20 }
  - { offset: 0x51897, size: 0x8, addend: 0x0, symName: __ZNSt3__16vectorINS_4fposI11__mbstate_tEENS_9allocatorIS3_EEED1B8ne180100Ev, symObjAddr: 0x11200, symBinAddr: 0x1000128C0, symSize: 0x20 }
  - { offset: 0x518C1, size: 0x8, addend: 0x0, symName: __ZNSt3__16vectorINS_4fposI11__mbstate_tEENS_9allocatorIS3_EEEC2B8ne180100Ev, symObjAddr: 0x11220, symBinAddr: 0x1000128E0, symSize: 0x50 }
  - { offset: 0x518F7, size: 0x8, addend: 0x0, symName: __ZNSt3__117__compressed_pairIPNS_4fposI11__mbstate_tEENS_9allocatorIS3_EEEC1B8ne180100IDnNS_18__default_init_tagEEEOT_OT0_, symObjAddr: 0x11270, symBinAddr: 0x100012930, symSize: 0x30 }
  - { offset: 0x51951, size: 0x8, addend: 0x0, symName: __ZNSt3__117__compressed_pairIPNS_4fposI11__mbstate_tEENS_9allocatorIS3_EEEC2B8ne180100IDnNS_18__default_init_tagEEEOT_OT0_, symObjAddr: 0x112A0, symBinAddr: 0x100012960, symSize: 0x40 }
  - { offset: 0x519AB, size: 0x8, addend: 0x0, symName: __ZNSt3__122__compressed_pair_elemIPNS_4fposI11__mbstate_tEELi0ELb0EEC2B8ne180100IDnvEEOT_, symObjAddr: 0x112E0, symBinAddr: 0x1000129A0, symSize: 0x20 }
  - { offset: 0x519EE, size: 0x8, addend: 0x0, symName: __ZNSt3__122__compressed_pair_elemINS_9allocatorINS_4fposI11__mbstate_tEEEELi1ELb1EEC2B8ne180100ENS_18__default_init_tagE, symObjAddr: 0x11300, symBinAddr: 0x1000129C0, symSize: 0x20 }
  - { offset: 0x51A23, size: 0x8, addend: 0x0, symName: __ZNSt3__19allocatorINS_4fposI11__mbstate_tEEEC2B8ne180100Ev, symObjAddr: 0x11320, symBinAddr: 0x1000129E0, symSize: 0x20 }
  - { offset: 0x51A4D, size: 0x8, addend: 0x0, symName: __ZNSt3__116__non_trivial_ifILb1ENS_9allocatorINS_4fposI11__mbstate_tEEEEEC2B8ne180100Ev, symObjAddr: 0x11340, symBinAddr: 0x100012A00, symSize: 0x10 }
  - { offset: 0x51A77, size: 0x8, addend: 0x0, symName: __ZNSt3__16vectorINS_4fposI11__mbstate_tEENS_9allocatorIS3_EEED2B8ne180100Ev, symObjAddr: 0x11350, symBinAddr: 0x100012A10, symSize: 0x40 }
  - { offset: 0x51AA1, size: 0x8, addend: 0x0, symName: __ZNSt3__16vectorINS_4fposI11__mbstate_tEENS_9allocatorIS3_EEE16__destroy_vectorC1B8ne180100ERS6_, symObjAddr: 0x11390, symBinAddr: 0x100012A50, symSize: 0x30 }
  - { offset: 0x51ADA, size: 0x8, addend: 0x0, symName: __ZNSt3__16vectorINS_4fposI11__mbstate_tEENS_9allocatorIS3_EEE16__destroy_vectorclB8ne180100Ev, symObjAddr: 0x113C0, symBinAddr: 0x100012A80, symSize: 0x80 }
  - { offset: 0x51B00, size: 0x8, addend: 0x0, symName: __ZNSt3__16vectorINS_4fposI11__mbstate_tEENS_9allocatorIS3_EEE16__destroy_vectorC2B8ne180100ERS6_, symObjAddr: 0x11440, symBinAddr: 0x100012B00, symSize: 0x20 }
  - { offset: 0x51B39, size: 0x8, addend: 0x0, symName: __ZNSt3__16vectorINS_4fposI11__mbstate_tEENS_9allocatorIS3_EEE7__clearB8ne180100Ev, symObjAddr: 0x11460, symBinAddr: 0x100012B20, symSize: 0x20 }
  - { offset: 0x51B5F, size: 0x8, addend: 0x0, symName: __ZNKSt3__16vectorINS_4fposI11__mbstate_tEENS_9allocatorIS3_EEE17__annotate_deleteB8ne180100Ev, symObjAddr: 0x11480, symBinAddr: 0x100012B40, symSize: 0x10 }
  - { offset: 0x51B85, size: 0x8, addend: 0x0, symName: __ZNSt3__116allocator_traitsINS_9allocatorINS_4fposI11__mbstate_tEEEEE10deallocateB8ne180100ERS5_PS4_m, symObjAddr: 0x11490, symBinAddr: 0x100012B50, symSize: 0x30 }
  - { offset: 0x51BC7, size: 0x8, addend: 0x0, symName: __ZNSt3__16vectorINS_4fposI11__mbstate_tEENS_9allocatorIS3_EEE7__allocB8ne180100Ev, symObjAddr: 0x114C0, symBinAddr: 0x100012B80, symSize: 0x20 }
  - { offset: 0x51BED, size: 0x8, addend: 0x0, symName: __ZNKSt3__16vectorINS_4fposI11__mbstate_tEENS_9allocatorIS3_EEE8capacityB8ne180100Ev, symObjAddr: 0x114E0, symBinAddr: 0x100012BA0, symSize: 0x40 }
  - { offset: 0x51C13, size: 0x8, addend: 0x0, symName: __ZNSt3__16vectorINS_4fposI11__mbstate_tEENS_9allocatorIS3_EEE22__base_destruct_at_endB8ne180100EPS3_, symObjAddr: 0x11520, symBinAddr: 0x100012BE0, symSize: 0x80 }
  - { offset: 0x51C57, size: 0x8, addend: 0x0, symName: __ZNSt3__116allocator_traitsINS_9allocatorINS_4fposI11__mbstate_tEEEEE7destroyB8ne180100IS4_vvEEvRS5_PT_, symObjAddr: 0x115A0, symBinAddr: 0x100012C60, symSize: 0x20 }
  - { offset: 0x51C91, size: 0x8, addend: 0x0, symName: __ZNSt3__19allocatorINS_4fposI11__mbstate_tEEE10deallocateB8ne180100EPS3_m, symObjAddr: 0x115E0, symBinAddr: 0x100012CA0, symSize: 0x50 }
  - { offset: 0x51CD5, size: 0x8, addend: 0x0, symName: __ZNSt3__117__compressed_pairIPNS_4fposI11__mbstate_tEENS_9allocatorIS3_EEE6secondB8ne180100Ev, symObjAddr: 0x11750, symBinAddr: 0x100012E10, symSize: 0x20 }
  - { offset: 0x51CFB, size: 0x8, addend: 0x0, symName: __ZNSt3__122__compressed_pair_elemINS_9allocatorINS_4fposI11__mbstate_tEEEELi1ELb1EE5__getB8ne180100Ev, symObjAddr: 0x11770, symBinAddr: 0x100012E30, symSize: 0x10 }
  - { offset: 0x51D21, size: 0x8, addend: 0x0, symName: __ZNKSt3__16vectorINS_4fposI11__mbstate_tEENS_9allocatorIS3_EEE9__end_capB8ne180100Ev, symObjAddr: 0x11780, symBinAddr: 0x100012E40, symSize: 0x20 }
  - { offset: 0x51D47, size: 0x8, addend: 0x0, symName: __ZNKSt3__117__compressed_pairIPNS_4fposI11__mbstate_tEENS_9allocatorIS3_EEE5firstB8ne180100Ev, symObjAddr: 0x117A0, symBinAddr: 0x100012E60, symSize: 0x20 }
  - { offset: 0x51D6D, size: 0x8, addend: 0x0, symName: __ZNKSt3__122__compressed_pair_elemIPNS_4fposI11__mbstate_tEELi0ELb0EE5__getB8ne180100Ev, symObjAddr: 0x117C0, symBinAddr: 0x100012E80, symSize: 0x10 }
  - { offset: 0x51D93, size: 0x8, addend: 0x0, symName: '__ZN7doctest6detail3$_0D2Ev', symObjAddr: 0x117D0, symBinAddr: 0x100012E90, symSize: 0x30 }
  - { offset: 0x51DC0, size: 0x8, addend: 0x0, symName: __ZNSt3__16vectorINS_4fposI11__mbstate_tEENS_9allocatorIS3_EEE9push_backB8ne180100EOS3_, symObjAddr: 0x11800, symBinAddr: 0x100012EC0, symSize: 0x80 }
  - { offset: 0x51E06, size: 0x8, addend: 0x0, symName: __ZNSt3__113basic_ostreamIcNS_11char_traitsIcEEE5tellpEv, symObjAddr: 0x11880, symBinAddr: 0x100012F40, symSize: 0x80 }
  - { offset: 0x51E2E, size: 0x8, addend: 0x0, symName: __ZNSt3__16vectorINS_4fposI11__mbstate_tEENS_9allocatorIS3_EEE9__end_capB8ne180100Ev, symObjAddr: 0x11900, symBinAddr: 0x100012FC0, symSize: 0x20 }
  - { offset: 0x51E5A, size: 0x8, addend: 0x0, symName: __ZNSt3__16vectorINS_4fposI11__mbstate_tEENS_9allocatorIS3_EEE22__construct_one_at_endB8ne180100IJS3_EEEvDpOT_, symObjAddr: 0x11920, symBinAddr: 0x100012FE0, symSize: 0x90 }
  - { offset: 0x51EA9, size: 0x8, addend: 0x0, symName: __ZNSt3__16vectorINS_4fposI11__mbstate_tEENS_9allocatorIS3_EEE21__push_back_slow_pathIS3_EEPS3_OT_, symObjAddr: 0x119B0, symBinAddr: 0x100013070, symSize: 0xE0 }
  - { offset: 0x51F07, size: 0x8, addend: 0x0, symName: __ZNSt3__117__compressed_pairIPNS_4fposI11__mbstate_tEENS_9allocatorIS3_EEE5firstB8ne180100Ev, symObjAddr: 0x11A90, symBinAddr: 0x100013150, symSize: 0x20 }
  - { offset: 0x51F2D, size: 0x8, addend: 0x0, symName: __ZNSt3__122__compressed_pair_elemIPNS_4fposI11__mbstate_tEELi0ELb0EE5__getB8ne180100Ev, symObjAddr: 0x11AB0, symBinAddr: 0x100013170, symSize: 0x10 }
  - { offset: 0x51F6F, size: 0x8, addend: 0x0, symName: __ZNSt3__16vectorINS_4fposI11__mbstate_tEENS_9allocatorIS3_EEE21_ConstructTransactionC1B8ne180100ERS6_m, symObjAddr: 0x11AC0, symBinAddr: 0x100013180, symSize: 0x30 }
  - { offset: 0x51FB7, size: 0x8, addend: 0x0, symName: __ZNSt3__116allocator_traitsINS_9allocatorINS_4fposI11__mbstate_tEEEEE9constructB8ne180100IS4_JS4_EvvEEvRS5_PT_DpOT0_, symObjAddr: 0x11AF0, symBinAddr: 0x1000131B0, symSize: 0x30 }
  - { offset: 0x5200B, size: 0x8, addend: 0x0, symName: __ZNSt3__16vectorINS_4fposI11__mbstate_tEENS_9allocatorIS3_EEE21_ConstructTransactionD1B8ne180100Ev, symObjAddr: 0x11B20, symBinAddr: 0x1000131E0, symSize: 0x20 }
  - { offset: 0x52035, size: 0x8, addend: 0x0, symName: __ZNSt3__16vectorINS_4fposI11__mbstate_tEENS_9allocatorIS3_EEE21_ConstructTransactionC2B8ne180100ERS6_m, symObjAddr: 0x11B40, symBinAddr: 0x100013200, symSize: 0x40 }
  - { offset: 0x5207D, size: 0x8, addend: 0x0, symName: __ZNSt3__16vectorINS_4fposI11__mbstate_tEENS_9allocatorIS3_EEE21_ConstructTransactionD2B8ne180100Ev, symObjAddr: 0x11BE0, symBinAddr: 0x1000132A0, symSize: 0x20 }
  - { offset: 0x520A7, size: 0x8, addend: 0x0, symName: __ZNKSt3__16vectorINS_4fposI11__mbstate_tEENS_9allocatorIS3_EEE11__recommendB8ne180100Em, symObjAddr: 0x11C00, symBinAddr: 0x1000132C0, symSize: 0x90 }
  - { offset: 0x520FC, size: 0x8, addend: 0x0, symName: __ZNKSt3__16vectorINS_4fposI11__mbstate_tEENS_9allocatorIS3_EEE4sizeB8ne180100Ev, symObjAddr: 0x11C90, symBinAddr: 0x100013350, symSize: 0x30 }
  - { offset: 0x52122, size: 0x8, addend: 0x0, symName: __ZNSt3__114__split_bufferINS_4fposI11__mbstate_tEERNS_9allocatorIS3_EEEC1EmmS6_, symObjAddr: 0x11CC0, symBinAddr: 0x100013380, symSize: 0x40 }
  - { offset: 0x5217B, size: 0x8, addend: 0x0, symName: __ZNSt3__114__split_bufferINS_4fposI11__mbstate_tEERNS_9allocatorIS3_EEED1Ev, symObjAddr: 0x11E20, symBinAddr: 0x1000134E0, symSize: 0x20 }
  - { offset: 0x521A7, size: 0x8, addend: 0x0, symName: __ZNKSt3__16vectorINS_4fposI11__mbstate_tEENS_9allocatorIS3_EEE8max_sizeEv, symObjAddr: 0x11E40, symBinAddr: 0x100013500, symSize: 0x60 }
  - { offset: 0x521CF, size: 0x8, addend: 0x0, symName: __ZNKSt3__16vectorINS_4fposI11__mbstate_tEENS_9allocatorIS3_EEE20__throw_length_errorB8ne180100Ev, symObjAddr: 0x11EA0, symBinAddr: 0x100013560, symSize: 0x20 }
  - { offset: 0x52200, size: 0x8, addend: 0x0, symName: __ZNSt3__116allocator_traitsINS_9allocatorINS_4fposI11__mbstate_tEEEEE8max_sizeB8ne180100IS5_vvEEmRKS5_, symObjAddr: 0x11F20, symBinAddr: 0x1000135E0, symSize: 0x30 }
  - { offset: 0x5222B, size: 0x8, addend: 0x0, symName: __ZNKSt3__16vectorINS_4fposI11__mbstate_tEENS_9allocatorIS3_EEE7__allocB8ne180100Ev, symObjAddr: 0x11F50, symBinAddr: 0x100013610, symSize: 0x20 }
  - { offset: 0x52251, size: 0x8, addend: 0x0, symName: __ZNSt3__114numeric_limitsIlE3maxB8ne180100Ev, symObjAddr: 0x11F70, symBinAddr: 0x100013630, symSize: 0x10 }
  - { offset: 0x52270, size: 0x8, addend: 0x0, symName: __ZNKSt3__16__lessIvvEclB8ne180100ImmEEbRKT_RKT0_, symObjAddr: 0x11FD0, symBinAddr: 0x100013690, symSize: 0x30 }
  - { offset: 0x522C6, size: 0x8, addend: 0x0, symName: __ZNSt3__114numeric_limitsImE3maxB8ne180100Ev, symObjAddr: 0x12000, symBinAddr: 0x1000136C0, symSize: 0x10 }
  - { offset: 0x522DA, size: 0x8, addend: 0x0, symName: __ZNSt3__123__libcpp_numeric_limitsImLb1EE3maxB8ne180100Ev, symObjAddr: 0x12010, symBinAddr: 0x1000136D0, symSize: 0x10 }
  - { offset: 0x522EE, size: 0x8, addend: 0x0, symName: __ZNKSt3__117__compressed_pairIPNS_4fposI11__mbstate_tEENS_9allocatorIS3_EEE6secondB8ne180100Ev, symObjAddr: 0x12020, symBinAddr: 0x1000136E0, symSize: 0x20 }
  - { offset: 0x52314, size: 0x8, addend: 0x0, symName: __ZNKSt3__122__compressed_pair_elemINS_9allocatorINS_4fposI11__mbstate_tEEEELi1ELb1EE5__getB8ne180100Ev, symObjAddr: 0x12040, symBinAddr: 0x100013700, symSize: 0x10 }
  - { offset: 0x5233A, size: 0x8, addend: 0x0, symName: __ZNSt3__123__libcpp_numeric_limitsIlLb1EE3maxB8ne180100Ev, symObjAddr: 0x12050, symBinAddr: 0x100013710, symSize: 0x10 }
  - { offset: 0x5234E, size: 0x8, addend: 0x0, symName: __ZNSt12length_errorC1B8ne180100EPKc, symObjAddr: 0x120D0, symBinAddr: 0x100013790, symSize: 0x30 }
  - { offset: 0x52387, size: 0x8, addend: 0x0, symName: __ZNSt12length_errorC2B8ne180100EPKc, symObjAddr: 0x12100, symBinAddr: 0x1000137C0, symSize: 0x40 }
  - { offset: 0x523C0, size: 0x8, addend: 0x0, symName: __ZNSt3__114__split_bufferINS_4fposI11__mbstate_tEERNS_9allocatorIS3_EEEC2EmmS6_, symObjAddr: 0x12190, symBinAddr: 0x100013850, symSize: 0xD0 }
  - { offset: 0x52436, size: 0x8, addend: 0x0, symName: __ZNSt3__117__compressed_pairIPNS_4fposI11__mbstate_tEERNS_9allocatorIS3_EEEC1B8ne180100IDnS7_EEOT_OT0_, symObjAddr: 0x12260, symBinAddr: 0x100013920, symSize: 0x30 }
  - { offset: 0x52490, size: 0x8, addend: 0x0, symName: __ZNSt3__114__split_bufferINS_4fposI11__mbstate_tEERNS_9allocatorIS3_EEE7__allocB8ne180100Ev, symObjAddr: 0x122D0, symBinAddr: 0x100013990, symSize: 0x20 }
  - { offset: 0x524B6, size: 0x8, addend: 0x0, symName: __ZNSt3__114__split_bufferINS_4fposI11__mbstate_tEERNS_9allocatorIS3_EEE9__end_capB8ne180100Ev, symObjAddr: 0x122F0, symBinAddr: 0x1000139B0, symSize: 0x20 }
  - { offset: 0x524DC, size: 0x8, addend: 0x0, symName: __ZNSt3__117__compressed_pairIPNS_4fposI11__mbstate_tEERNS_9allocatorIS3_EEEC2B8ne180100IDnS7_EEOT_OT0_, symObjAddr: 0x12310, symBinAddr: 0x1000139D0, symSize: 0x40 }
  - { offset: 0x52536, size: 0x8, addend: 0x0, symName: __ZNSt3__122__compressed_pair_elemIRNS_9allocatorINS_4fposI11__mbstate_tEEEELi1ELb0EEC2B8ne180100IS6_vEEOT_, symObjAddr: 0x12350, symBinAddr: 0x100013A10, symSize: 0x20 }
  - { offset: 0x52579, size: 0x8, addend: 0x0, symName: __ZNSt3__19allocatorINS_4fposI11__mbstate_tEEE8allocateB8ne180100Em, symObjAddr: 0x12370, symBinAddr: 0x100013A30, symSize: 0x50 }
  - { offset: 0x525AE, size: 0x8, addend: 0x0, symName: __ZNSt3__117__compressed_pairIPNS_4fposI11__mbstate_tEERNS_9allocatorIS3_EEE6secondB8ne180100Ev, symObjAddr: 0x124B0, symBinAddr: 0x100013B70, symSize: 0x20 }
  - { offset: 0x525D4, size: 0x8, addend: 0x0, symName: __ZNSt3__122__compressed_pair_elemIRNS_9allocatorINS_4fposI11__mbstate_tEEEELi1ELb0EE5__getB8ne180100Ev, symObjAddr: 0x124D0, symBinAddr: 0x100013B90, symSize: 0x20 }
  - { offset: 0x525FA, size: 0x8, addend: 0x0, symName: __ZNSt3__117__compressed_pairIPNS_4fposI11__mbstate_tEERNS_9allocatorIS3_EEE5firstB8ne180100Ev, symObjAddr: 0x124F0, symBinAddr: 0x100013BB0, symSize: 0x20 }
  - { offset: 0x52620, size: 0x8, addend: 0x0, symName: __ZNSt3__116reverse_iteratorIPNS_4fposI11__mbstate_tEEEC1B8ne180100ES4_, symObjAddr: 0x12580, symBinAddr: 0x100013C40, symSize: 0x30 }
  - { offset: 0x52659, size: 0x8, addend: 0x0, symName: __ZNKSt3__116reverse_iteratorIPNS_4fposI11__mbstate_tEEE4baseB8ne180100Ev, symObjAddr: 0x125B0, symBinAddr: 0x100013C70, symSize: 0x20 }
  - { offset: 0x5267F, size: 0x8, addend: 0x0, symName: __ZNKSt3__16vectorINS_4fposI11__mbstate_tEENS_9allocatorIS3_EEE14__annotate_newB8ne180100Em, symObjAddr: 0x12610, symBinAddr: 0x100013CD0, symSize: 0x10 }
  - { offset: 0x526DC, size: 0x8, addend: 0x0, symName: __ZNKSt3__111__move_loopINS_17_ClassicAlgPolicyEEclB8ne180100INS_16reverse_iteratorIPNS_4fposI11__mbstate_tEEEES9_S9_EENS_4pairIT_T1_EESB_T0_SC_, symObjAddr: 0x12A30, symBinAddr: 0x1000140F0, symSize: 0xA0 }
  - { offset: 0x5274A, size: 0x8, addend: 0x0, symName: __ZNSt3__119__unwrap_range_implINS_16reverse_iteratorIPNS_4fposI11__mbstate_tEEEES6_E8__unwrapB8ne180100ES6_S6_, symObjAddr: 0x12C10, symBinAddr: 0x1000142D0, symSize: 0x90 }
  - { offset: 0x52783, size: 0x8, addend: 0x0, symName: __ZNSt3__14pairINS_16reverse_iteratorIPNS_4fposI11__mbstate_tEEEES6_EC1B8ne180100IS6_S6_Li0EEEOT_OT0_, symObjAddr: 0x12CA0, symBinAddr: 0x100014360, symSize: 0x30 }
  - { offset: 0x527E4, size: 0x8, addend: 0x0, symName: __ZNSt3__14pairINS_16reverse_iteratorIPNS_4fposI11__mbstate_tEEEES6_EC2B8ne180100IS6_S6_Li0EEEOT_OT0_, symObjAddr: 0x12CD0, symBinAddr: 0x100014390, symSize: 0x40 }
  - { offset: 0x5284B, size: 0x8, addend: 0x0, symName: __ZNSt3__18_IterOpsINS_17_ClassicAlgPolicyEE11__iter_moveB8ne180100IRNS_16reverse_iteratorIPNS_4fposI11__mbstate_tEEEELi0EEEDTclsr3stdE4movedeclsr3stdE7declvalIRT_EEEEOSB_, symObjAddr: 0x12D50, symBinAddr: 0x100014410, symSize: 0x20 }
  - { offset: 0x5287F, size: 0x8, addend: 0x0, symName: __ZNKSt3__116reverse_iteratorIPNS_4fposI11__mbstate_tEEEdeB8ne180100Ev, symObjAddr: 0x12D70, symBinAddr: 0x100014430, symSize: 0x30 }
  - { offset: 0x528B4, size: 0x8, addend: 0x0, symName: __ZNSt3__116reverse_iteratorIPNS_4fposI11__mbstate_tEEEppB8ne180100Ev, symObjAddr: 0x12DA0, symBinAddr: 0x100014460, symSize: 0x20 }
  - { offset: 0x528DA, size: 0x8, addend: 0x0, symName: __ZNSt3__18_IterOpsINS_17_ClassicAlgPolicyEE25__validate_iter_referenceB8ne180100IRNS_16reverse_iteratorIPNS_4fposI11__mbstate_tEEEEEEvv, symObjAddr: 0x12DC0, symBinAddr: 0x100014480, symSize: 0x10 }
  - { offset: 0x528F8, size: 0x8, addend: 0x0, symName: __ZNSt3__118__unwrap_iter_implINS_16reverse_iteratorIPNS_4fposI11__mbstate_tEEEELb0EE8__unwrapB8ne180100ES6_, symObjAddr: 0x12DD0, symBinAddr: 0x100014490, symSize: 0x20 }
  - { offset: 0x5291C, size: 0x8, addend: 0x0, symName: __ZNSt3__119__unwrap_range_implINS_16reverse_iteratorIPNS_4fposI11__mbstate_tEEEES6_E8__rewrapB8ne180100ES6_S6_, symObjAddr: 0x12DF0, symBinAddr: 0x1000144B0, symSize: 0x60 }
  - { offset: 0x5294F, size: 0x8, addend: 0x0, symName: __ZNSt3__118__unwrap_iter_implINS_16reverse_iteratorIPNS_4fposI11__mbstate_tEEEELb0EE8__rewrapB8ne180100ES6_S6_, symObjAddr: 0x12E50, symBinAddr: 0x100014510, symSize: 0x30 }
  - { offset: 0x5297E, size: 0x8, addend: 0x0, symName: __ZNSt3__116reverse_iteratorIPNS_4fposI11__mbstate_tEEEC2B8ne180100ES4_, symObjAddr: 0x12E80, symBinAddr: 0x100014540, symSize: 0x30 }
  - { offset: 0x529B7, size: 0x8, addend: 0x0, symName: __ZNSt3__114__split_bufferINS_4fposI11__mbstate_tEERNS_9allocatorIS3_EEED2Ev, symObjAddr: 0x12EB0, symBinAddr: 0x100014570, symSize: 0x70 }
  - { offset: 0x529E3, size: 0x8, addend: 0x0, symName: __ZNSt3__114__split_bufferINS_4fposI11__mbstate_tEERNS_9allocatorIS3_EEE5clearB8ne180100Ev, symObjAddr: 0x12F20, symBinAddr: 0x1000145E0, symSize: 0x20 }
  - { offset: 0x52A09, size: 0x8, addend: 0x0, symName: __ZNKSt3__114__split_bufferINS_4fposI11__mbstate_tEERNS_9allocatorIS3_EEE8capacityB8ne180100Ev, symObjAddr: 0x12F40, symBinAddr: 0x100014600, symSize: 0x40 }
  - { offset: 0x52A2F, size: 0x8, addend: 0x0, symName: __ZNSt3__114__split_bufferINS_4fposI11__mbstate_tEERNS_9allocatorIS3_EEE17__destruct_at_endB8ne180100EPS3_, symObjAddr: 0x12F80, symBinAddr: 0x100014640, symSize: 0x30 }
  - { offset: 0x52A64, size: 0x8, addend: 0x0, symName: __ZNSt3__114__split_bufferINS_4fposI11__mbstate_tEERNS_9allocatorIS3_EEE17__destruct_at_endB8ne180100EPS3_NS_17integral_constantIbLb0EEE, symObjAddr: 0x12FB0, symBinAddr: 0x100014670, symSize: 0x80 }
  - { offset: 0x52AA6, size: 0x8, addend: 0x0, symName: __ZNKSt3__114__split_bufferINS_4fposI11__mbstate_tEERNS_9allocatorIS3_EEE9__end_capB8ne180100Ev, symObjAddr: 0x13030, symBinAddr: 0x1000146F0, symSize: 0x20 }
  - { offset: 0x52ACC, size: 0x8, addend: 0x0, symName: __ZNKSt3__117__compressed_pairIPNS_4fposI11__mbstate_tEERNS_9allocatorIS3_EEE5firstB8ne180100Ev, symObjAddr: 0x13050, symBinAddr: 0x100014710, symSize: 0x20 }
  - { offset: 0x52AF2, size: 0x8, addend: 0x0, symName: __ZNKSt3__19basic_iosIcNS_11char_traitsIcEEE4failB8ne180100Ev, symObjAddr: 0x13070, symBinAddr: 0x100014730, symSize: 0x20 }
  - { offset: 0x52B18, size: 0x8, addend: 0x0, symName: __ZNSt3__14fposI11__mbstate_tEC1B8ne180100Ex, symObjAddr: 0x13090, symBinAddr: 0x100014750, symSize: 0x30 }
  - { offset: 0x52B51, size: 0x8, addend: 0x0, symName: __ZNKSt3__19basic_iosIcNS_11char_traitsIcEEE5rdbufB8ne180100Ev, symObjAddr: 0x130C0, symBinAddr: 0x100014780, symSize: 0x20 }
  - { offset: 0x52B79, size: 0x8, addend: 0x0, symName: __ZNSt3__115basic_streambufIcNS_11char_traitsIcEEE10pubseekoffB8ne180100ExNS_8ios_base7seekdirEj, symObjAddr: 0x130E0, symBinAddr: 0x1000147A0, symSize: 0x40 }
  - { offset: 0x52BCC, size: 0x8, addend: 0x0, symName: __ZNKSt3__18ios_base4failB8ne180100Ev, symObjAddr: 0x13120, symBinAddr: 0x1000147E0, symSize: 0x20 }
  - { offset: 0x52BF4, size: 0x8, addend: 0x0, symName: __ZNSt3__14fposI11__mbstate_tEC2B8ne180100Ex, symObjAddr: 0x13140, symBinAddr: 0x100014800, symSize: 0x40 }
  - { offset: 0x52C2D, size: 0x8, addend: 0x0, symName: __ZNKSt3__18ios_base5rdbufB8ne180100Ev, symObjAddr: 0x13180, symBinAddr: 0x100014840, symSize: 0x20 }
  - { offset: 0x52C53, size: 0x8, addend: 0x0, symName: __ZNKSt3__16vectorINS_4fposI11__mbstate_tEENS_9allocatorIS3_EEE5emptyB8ne180100Ev, symObjAddr: 0x131A0, symBinAddr: 0x100014860, symSize: 0x20 }
  - { offset: 0x52C79, size: 0x8, addend: 0x0, symName: __ZNSt3__16vectorINS_4fposI11__mbstate_tEENS_9allocatorIS3_EEE4backB8ne180100Ev, symObjAddr: 0x131C0, symBinAddr: 0x100014880, symSize: 0x20 }
  - { offset: 0x52C9F, size: 0x8, addend: 0x0, symName: __ZNSt3__16vectorINS_4fposI11__mbstate_tEENS_9allocatorIS3_EEE8pop_backEv, symObjAddr: 0x131E0, symBinAddr: 0x1000148A0, symSize: 0x30 }
  - { offset: 0x52CC7, size: 0x8, addend: 0x0, symName: __ZNKSt3__118basic_stringstreamIcNS_11char_traitsIcEENS_9allocatorIcEEE5rdbufB8ne180100Ev, symObjAddr: 0x13250, symBinAddr: 0x100014910, symSize: 0x20 }
  - { offset: 0x52CED, size: 0x8, addend: 0x0, symName: __ZNSt3__115basic_streambufIcNS_11char_traitsIcEEE10pubseekposB8ne180100ENS_4fposI11__mbstate_tEEj, symObjAddr: 0x13270, symBinAddr: 0x100014930, symSize: 0xC0 }
  - { offset: 0x52D33, size: 0x8, addend: 0x0, symName: __ZNSt3__16vectorINS_4fposI11__mbstate_tEENS_9allocatorIS3_EEE17__destruct_at_endB8ne180100EPS3_, symObjAddr: 0x13330, symBinAddr: 0x1000149F0, symSize: 0x50 }
  - { offset: 0x52D77, size: 0x8, addend: 0x0, symName: __ZNKSt3__16vectorINS_4fposI11__mbstate_tEENS_9allocatorIS3_EEE17__annotate_shrinkB8ne180100Em, symObjAddr: 0x13380, symBinAddr: 0x100014A40, symSize: 0x10 }
  - { offset: 0x52DAC, size: 0x8, addend: 0x0, symName: __ZNKSt3__14fposI11__mbstate_tEcvxB8ne180100Ev, symObjAddr: 0x13390, symBinAddr: 0x100014A50, symSize: 0x20 }
  - { offset: 0x52DDD, size: 0x8, addend: 0x0, symName: __ZNKSt3__16__lessIvvEclB8ne180100IjjEEbRKT_RKT0_, symObjAddr: 0x13400, symBinAddr: 0x100014AC0, symSize: 0x30 }
  - { offset: 0x52E32, size: 0x8, addend: 0x0, symName: __Z7toloweri, symObjAddr: 0x13430, symBinAddr: 0x100014AF0, symSize: 0x20 }
  - { offset: 0x52E61, size: 0x8, addend: 0x0, symName: __ZNSt3__123__libcpp_numeric_limitsIfLb1EE7epsilonB8ne180100Ev, symObjAddr: 0x13450, symBinAddr: 0x100014B10, symSize: 0x10 }
  - { offset: 0x52E80, size: 0x8, addend: 0x0, symName: __ZNKSt3__16__lessIvvEclB8ne180100IddEEbRKT_RKT0_, symObjAddr: 0x134B0, symBinAddr: 0x100014B70, symSize: 0x30 }
  - { offset: 0x52ED6, size: 0x8, addend: 0x0, symName: __ZNKSt3__16vectorIN7doctest6StringENS_9allocatorIS2_EEE5beginB8ne180100Ev, symObjAddr: 0x134E0, symBinAddr: 0x100014BA0, symSize: 0x30 }
  - { offset: 0x52EFE, size: 0x8, addend: 0x0, symName: __ZNKSt3__16vectorIN7doctest6StringENS_9allocatorIS2_EEE3endB8ne180100Ev, symObjAddr: 0x13510, symBinAddr: 0x100014BD0, symSize: 0x30 }
  - { offset: 0x52F26, size: 0x8, addend: 0x0, symName: __ZNKSt3__111__wrap_iterIPKN7doctest6StringEEdeB8ne180100Ev, symObjAddr: 0x13570, symBinAddr: 0x100014C30, symSize: 0x20 }
  - { offset: 0x52F4C, size: 0x8, addend: 0x0, symName: __ZNSt3__111__wrap_iterIPKN7doctest6StringEEppB8ne180100Ev, symObjAddr: 0x137C0, symBinAddr: 0x100014E80, symSize: 0x20 }
  - { offset: 0x52F72, size: 0x8, addend: 0x0, symName: __ZNKSt3__16vectorIN7doctest6StringENS_9allocatorIS2_EEE11__make_iterB8ne180100EPKS2_, symObjAddr: 0x137E0, symBinAddr: 0x100014EA0, symSize: 0x30 }
  - { offset: 0x52FA7, size: 0x8, addend: 0x0, symName: __ZNSt3__111__wrap_iterIPKN7doctest6StringEEC1B8ne180100ES4_, symObjAddr: 0x13810, symBinAddr: 0x100014ED0, symSize: 0x30 }
  - { offset: 0x52FE0, size: 0x8, addend: 0x0, symName: __ZNSt3__111__wrap_iterIPKN7doctest6StringEEC2B8ne180100ES4_, symObjAddr: 0x13840, symBinAddr: 0x100014F00, symSize: 0x20 }
  - { offset: 0x53019, size: 0x8, addend: 0x0, symName: __ZNKSt3__111__wrap_iterIPKN7doctest6StringEE4baseB8ne180100Ev, symObjAddr: 0x138A0, symBinAddr: 0x100014F60, symSize: 0x20 }
  - { offset: 0x5303F, size: 0x8, addend: 0x0, symName: __ZNSt3__16vectorIN7doctest16SubcaseSignatureENS_9allocatorIS2_EEE9__end_capB8ne180100Ev, symObjAddr: 0x138C0, symBinAddr: 0x100014F80, symSize: 0x20 }
  - { offset: 0x53065, size: 0x8, addend: 0x0, symName: __ZNSt3__16vectorIN7doctest16SubcaseSignatureENS_9allocatorIS2_EEE22__construct_one_at_endB8ne180100IJRKS2_EEEvDpOT_, symObjAddr: 0x138E0, symBinAddr: 0x100014FA0, symSize: 0x90 }
  - { offset: 0x530B4, size: 0x8, addend: 0x0, symName: __ZNSt3__16vectorIN7doctest16SubcaseSignatureENS_9allocatorIS2_EEE21__push_back_slow_pathIRKS2_EEPS2_OT_, symObjAddr: 0x13970, symBinAddr: 0x100015030, symSize: 0xE0 }
  - { offset: 0x53112, size: 0x8, addend: 0x0, symName: __ZNSt3__117__compressed_pairIPN7doctest16SubcaseSignatureENS_9allocatorIS2_EEE5firstB8ne180100Ev, symObjAddr: 0x13A50, symBinAddr: 0x100015110, symSize: 0x20 }
  - { offset: 0x53138, size: 0x8, addend: 0x0, symName: __ZNSt3__122__compressed_pair_elemIPN7doctest16SubcaseSignatureELi0ELb0EE5__getB8ne180100Ev, symObjAddr: 0x13A70, symBinAddr: 0x100015130, symSize: 0x10 }
  - { offset: 0x5317A, size: 0x8, addend: 0x0, symName: __ZNSt3__16vectorIN7doctest16SubcaseSignatureENS_9allocatorIS2_EEE21_ConstructTransactionC1B8ne180100ERS5_m, symObjAddr: 0x13A80, symBinAddr: 0x100015140, symSize: 0x30 }
  - { offset: 0x531C2, size: 0x8, addend: 0x0, symName: __ZNSt3__116allocator_traitsINS_9allocatorIN7doctest16SubcaseSignatureEEEE9constructB8ne180100IS3_JRKS3_EvvEEvRS4_PT_DpOT0_, symObjAddr: 0x13AB0, symBinAddr: 0x100015170, symSize: 0x30 }
  - { offset: 0x53216, size: 0x8, addend: 0x0, symName: __ZNSt3__16vectorIN7doctest16SubcaseSignatureENS_9allocatorIS2_EEE7__allocB8ne180100Ev, symObjAddr: 0x13AE0, symBinAddr: 0x1000151A0, symSize: 0x20 }
  - { offset: 0x5323C, size: 0x8, addend: 0x0, symName: __ZNSt3__16vectorIN7doctest16SubcaseSignatureENS_9allocatorIS2_EEE21_ConstructTransactionD1B8ne180100Ev, symObjAddr: 0x13B10, symBinAddr: 0x1000151D0, symSize: 0x20 }
  - { offset: 0x53266, size: 0x8, addend: 0x0, symName: __ZNSt3__16vectorIN7doctest16SubcaseSignatureENS_9allocatorIS2_EEE21_ConstructTransactionC2B8ne180100ERS5_m, symObjAddr: 0x13B30, symBinAddr: 0x1000151F0, symSize: 0x40 }
  - { offset: 0x532AE, size: 0x8, addend: 0x0, symName: __ZN7doctest16SubcaseSignatureC1ERKS0_, symObjAddr: 0x13BD0, symBinAddr: 0x100015290, symSize: 0x30 }
  - { offset: 0x532E4, size: 0x8, addend: 0x0, symName: __ZN7doctest16SubcaseSignatureC2ERKS0_, symObjAddr: 0x13C00, symBinAddr: 0x1000152C0, symSize: 0x40 }
  - { offset: 0x5331A, size: 0x8, addend: 0x0, symName: __ZNSt3__117__compressed_pairIPN7doctest16SubcaseSignatureENS_9allocatorIS2_EEE6secondB8ne180100Ev, symObjAddr: 0x13C40, symBinAddr: 0x100015300, symSize: 0x20 }
  - { offset: 0x53340, size: 0x8, addend: 0x0, symName: __ZNSt3__122__compressed_pair_elemINS_9allocatorIN7doctest16SubcaseSignatureEEELi1ELb1EE5__getB8ne180100Ev, symObjAddr: 0x13C60, symBinAddr: 0x100015320, symSize: 0x10 }
  - { offset: 0x53366, size: 0x8, addend: 0x0, symName: __ZNSt3__16vectorIN7doctest16SubcaseSignatureENS_9allocatorIS2_EEE21_ConstructTransactionD2B8ne180100Ev, symObjAddr: 0x13C70, symBinAddr: 0x100015330, symSize: 0x20 }
  - { offset: 0x53390, size: 0x8, addend: 0x0, symName: __ZNKSt3__16vectorIN7doctest16SubcaseSignatureENS_9allocatorIS2_EEE11__recommendB8ne180100Em, symObjAddr: 0x13C90, symBinAddr: 0x100015350, symSize: 0x90 }
  - { offset: 0x533E5, size: 0x8, addend: 0x0, symName: __ZNSt3__114__split_bufferIN7doctest16SubcaseSignatureERNS_9allocatorIS2_EEEC1EmmS5_, symObjAddr: 0x13D20, symBinAddr: 0x1000153E0, symSize: 0x40 }
  - { offset: 0x5343E, size: 0x8, addend: 0x0, symName: __ZNSt3__114__split_bufferIN7doctest16SubcaseSignatureERNS_9allocatorIS2_EEED1Ev, symObjAddr: 0x13E80, symBinAddr: 0x100015540, symSize: 0x20 }
  - { offset: 0x5346A, size: 0x8, addend: 0x0, symName: __ZNKSt3__16vectorIN7doctest16SubcaseSignatureENS_9allocatorIS2_EEE8max_sizeEv, symObjAddr: 0x13EA0, symBinAddr: 0x100015560, symSize: 0x60 }
  - { offset: 0x53492, size: 0x8, addend: 0x0, symName: __ZNKSt3__16vectorIN7doctest16SubcaseSignatureENS_9allocatorIS2_EEE20__throw_length_errorB8ne180100Ev, symObjAddr: 0x13F00, symBinAddr: 0x1000155C0, symSize: 0x20 }
  - { offset: 0x534B8, size: 0x8, addend: 0x0, symName: __ZNKSt3__16vectorIN7doctest16SubcaseSignatureENS_9allocatorIS2_EEE8capacityB8ne180100Ev, symObjAddr: 0x13F20, symBinAddr: 0x1000155E0, symSize: 0x40 }
  - { offset: 0x534E9, size: 0x8, addend: 0x0, symName: __ZNSt3__116allocator_traitsINS_9allocatorIN7doctest16SubcaseSignatureEEEE8max_sizeB8ne180100IS4_vvEEmRKS4_, symObjAddr: 0x13F60, symBinAddr: 0x100015620, symSize: 0x30 }
  - { offset: 0x53514, size: 0x8, addend: 0x0, symName: __ZNKSt3__16vectorIN7doctest16SubcaseSignatureENS_9allocatorIS2_EEE7__allocB8ne180100Ev, symObjAddr: 0x13F90, symBinAddr: 0x100015650, symSize: 0x20 }
  - { offset: 0x5353A, size: 0x8, addend: 0x0, symName: __ZNKSt3__117__compressed_pairIPN7doctest16SubcaseSignatureENS_9allocatorIS2_EEE6secondB8ne180100Ev, symObjAddr: 0x13FB0, symBinAddr: 0x100015670, symSize: 0x20 }
  - { offset: 0x53560, size: 0x8, addend: 0x0, symName: __ZNKSt3__122__compressed_pair_elemINS_9allocatorIN7doctest16SubcaseSignatureEEELi1ELb1EE5__getB8ne180100Ev, symObjAddr: 0x13FD0, symBinAddr: 0x100015690, symSize: 0x10 }
  - { offset: 0x53586, size: 0x8, addend: 0x0, symName: __ZNKSt3__16vectorIN7doctest16SubcaseSignatureENS_9allocatorIS2_EEE9__end_capB8ne180100Ev, symObjAddr: 0x13FE0, symBinAddr: 0x1000156A0, symSize: 0x20 }
  - { offset: 0x535AC, size: 0x8, addend: 0x0, symName: __ZNKSt3__117__compressed_pairIPN7doctest16SubcaseSignatureENS_9allocatorIS2_EEE5firstB8ne180100Ev, symObjAddr: 0x14000, symBinAddr: 0x1000156C0, symSize: 0x20 }
  - { offset: 0x535D2, size: 0x8, addend: 0x0, symName: __ZNKSt3__122__compressed_pair_elemIPN7doctest16SubcaseSignatureELi0ELb0EE5__getB8ne180100Ev, symObjAddr: 0x14020, symBinAddr: 0x1000156E0, symSize: 0x10 }
  - { offset: 0x535F8, size: 0x8, addend: 0x0, symName: __ZNSt3__114__split_bufferIN7doctest16SubcaseSignatureERNS_9allocatorIS2_EEEC2EmmS5_, symObjAddr: 0x14030, symBinAddr: 0x1000156F0, symSize: 0xC0 }
  - { offset: 0x5366E, size: 0x8, addend: 0x0, symName: __ZNSt3__117__compressed_pairIPN7doctest16SubcaseSignatureERNS_9allocatorIS2_EEEC1B8ne180100IDnS6_EEOT_OT0_, symObjAddr: 0x140F0, symBinAddr: 0x1000157B0, symSize: 0x30 }
  - { offset: 0x536C8, size: 0x8, addend: 0x0, symName: __ZNSt3__114__split_bufferIN7doctest16SubcaseSignatureERNS_9allocatorIS2_EEE7__allocB8ne180100Ev, symObjAddr: 0x14160, symBinAddr: 0x100015820, symSize: 0x20 }
  - { offset: 0x536EE, size: 0x8, addend: 0x0, symName: __ZNSt3__114__split_bufferIN7doctest16SubcaseSignatureERNS_9allocatorIS2_EEE9__end_capB8ne180100Ev, symObjAddr: 0x14180, symBinAddr: 0x100015840, symSize: 0x20 }
  - { offset: 0x53714, size: 0x8, addend: 0x0, symName: __ZNSt3__117__compressed_pairIPN7doctest16SubcaseSignatureERNS_9allocatorIS2_EEEC2B8ne180100IDnS6_EEOT_OT0_, symObjAddr: 0x141A0, symBinAddr: 0x100015860, symSize: 0x40 }
  - { offset: 0x5376E, size: 0x8, addend: 0x0, symName: __ZNSt3__122__compressed_pair_elemIPN7doctest16SubcaseSignatureELi0ELb0EEC2B8ne180100IDnvEEOT_, symObjAddr: 0x141E0, symBinAddr: 0x1000158A0, symSize: 0x20 }
  - { offset: 0x537B1, size: 0x8, addend: 0x0, symName: __ZNSt3__122__compressed_pair_elemIRNS_9allocatorIN7doctest16SubcaseSignatureEEELi1ELb0EEC2B8ne180100IS5_vEEOT_, symObjAddr: 0x14200, symBinAddr: 0x1000158C0, symSize: 0x20 }
  - { offset: 0x537F4, size: 0x8, addend: 0x0, symName: __ZNSt3__19allocatorIN7doctest16SubcaseSignatureEE8allocateB8ne180100Em, symObjAddr: 0x14220, symBinAddr: 0x1000158E0, symSize: 0x50 }
  - { offset: 0x53829, size: 0x8, addend: 0x0, symName: __ZNSt3__117__compressed_pairIPN7doctest16SubcaseSignatureERNS_9allocatorIS2_EEE6secondB8ne180100Ev, symObjAddr: 0x14270, symBinAddr: 0x100015930, symSize: 0x20 }
  - { offset: 0x5384F, size: 0x8, addend: 0x0, symName: __ZNSt3__122__compressed_pair_elemIRNS_9allocatorIN7doctest16SubcaseSignatureEEELi1ELb0EE5__getB8ne180100Ev, symObjAddr: 0x14290, symBinAddr: 0x100015950, symSize: 0x20 }
  - { offset: 0x53875, size: 0x8, addend: 0x0, symName: __ZNSt3__117__compressed_pairIPN7doctest16SubcaseSignatureERNS_9allocatorIS2_EEE5firstB8ne180100Ev, symObjAddr: 0x142B0, symBinAddr: 0x100015970, symSize: 0x20 }
  - { offset: 0x5389B, size: 0x8, addend: 0x0, symName: __ZNKSt3__16vectorIN7doctest16SubcaseSignatureENS_9allocatorIS2_EEE17__annotate_deleteB8ne180100Ev, symObjAddr: 0x142D0, symBinAddr: 0x100015990, symSize: 0x10 }
  - { offset: 0x538C1, size: 0x8, addend: 0x0, symName: __ZNSt3__116reverse_iteratorIPN7doctest16SubcaseSignatureEEC1B8ne180100ES3_, symObjAddr: 0x14460, symBinAddr: 0x100015B20, symSize: 0x30 }
  - { offset: 0x538FA, size: 0x8, addend: 0x0, symName: __ZNKSt3__116reverse_iteratorIPN7doctest16SubcaseSignatureEE4baseB8ne180100Ev, symObjAddr: 0x14490, symBinAddr: 0x100015B50, symSize: 0x20 }
  - { offset: 0x53920, size: 0x8, addend: 0x0, symName: __ZNKSt3__16vectorIN7doctest16SubcaseSignatureENS_9allocatorIS2_EEE14__annotate_newB8ne180100Em, symObjAddr: 0x144F0, symBinAddr: 0x100015BB0, symSize: 0x10 }
  - { offset: 0x53955, size: 0x8, addend: 0x0, symName: __ZNSt3__129_AllocatorDestroyRangeReverseINS_9allocatorIN7doctest16SubcaseSignatureEEENS_16reverse_iteratorIPS3_EEEC1B8ne180100ERS4_RS7_SA_, symObjAddr: 0x14560, symBinAddr: 0x100015C20, symSize: 0x40 }
  - { offset: 0x539B2, size: 0x8, addend: 0x0, symName: __ZNSt3__116allocator_traitsINS_9allocatorIN7doctest16SubcaseSignatureEEEE9constructB8ne180100IS3_JS3_EvvEEvRS4_PT_DpOT0_, symObjAddr: 0x145E0, symBinAddr: 0x100015CA0, symSize: 0x30 }
  - { offset: 0x53A06, size: 0x8, addend: 0x0, symName: __ZNKSt3__116reverse_iteratorIPN7doctest16SubcaseSignatureEEdeB8ne180100Ev, symObjAddr: 0x14630, symBinAddr: 0x100015CF0, symSize: 0x30 }
  - { offset: 0x53A3B, size: 0x8, addend: 0x0, symName: __ZNSt3__116reverse_iteratorIPN7doctest16SubcaseSignatureEEppB8ne180100Ev, symObjAddr: 0x14660, symBinAddr: 0x100015D20, symSize: 0x20 }
  - { offset: 0x53A61, size: 0x8, addend: 0x0, symName: __ZNSt3__128__exception_guard_exceptionsINS_29_AllocatorDestroyRangeReverseINS_9allocatorIN7doctest16SubcaseSignatureEEENS_16reverse_iteratorIPS4_EEEEE10__completeB8ne180100Ev, symObjAddr: 0x14680, symBinAddr: 0x100015D40, symSize: 0x20 }
  - { offset: 0x53A87, size: 0x8, addend: 0x0, symName: __ZNSt3__128__exception_guard_exceptionsINS_29_AllocatorDestroyRangeReverseINS_9allocatorIN7doctest16SubcaseSignatureEEENS_16reverse_iteratorIPS4_EEEEED1B8ne180100Ev, symObjAddr: 0x146A0, symBinAddr: 0x100015D60, symSize: 0x20 }
  - { offset: 0x53AB1, size: 0x8, addend: 0x0, symName: __ZNSt3__128__exception_guard_exceptionsINS_29_AllocatorDestroyRangeReverseINS_9allocatorIN7doctest16SubcaseSignatureEEENS_16reverse_iteratorIPS4_EEEEEC1B8ne180100ES9_, symObjAddr: 0x146C0, symBinAddr: 0x100015D80, symSize: 0x40 }
  - { offset: 0x53AEA, size: 0x8, addend: 0x0, symName: __ZNSt3__128__exception_guard_exceptionsINS_29_AllocatorDestroyRangeReverseINS_9allocatorIN7doctest16SubcaseSignatureEEENS_16reverse_iteratorIPS4_EEEEEC2B8ne180100ES9_, symObjAddr: 0x14700, symBinAddr: 0x100015DC0, symSize: 0x30 }
  - { offset: 0x53B23, size: 0x8, addend: 0x0, symName: __ZNSt3__129_AllocatorDestroyRangeReverseINS_9allocatorIN7doctest16SubcaseSignatureEEENS_16reverse_iteratorIPS3_EEEC2B8ne180100ERS4_RS7_SA_, symObjAddr: 0x14730, symBinAddr: 0x100015DF0, symSize: 0x40 }
  - { offset: 0x53B7A, size: 0x8, addend: 0x0, symName: __ZN7doctest16SubcaseSignatureC1EOS0_, symObjAddr: 0x147D0, symBinAddr: 0x100015E90, symSize: 0x30 }
  - { offset: 0x53BB0, size: 0x8, addend: 0x0, symName: __ZN7doctest16SubcaseSignatureC2EOS0_, symObjAddr: 0x14800, symBinAddr: 0x100015EC0, symSize: 0x40 }
  - { offset: 0x53BEC, size: 0x8, addend: 0x0, symName: __ZNSt3__119__to_address_helperINS_16reverse_iteratorIPN7doctest16SubcaseSignatureEEEvE6__callB8ne180100ERKS5_, symObjAddr: 0x14840, symBinAddr: 0x100015F00, symSize: 0x40 }
  - { offset: 0x53C10, size: 0x8, addend: 0x0, symName: __ZNKSt3__116reverse_iteratorIPN7doctest16SubcaseSignatureEEptB8ne180100Ev, symObjAddr: 0x14880, symBinAddr: 0x100015F40, symSize: 0x30 }
  - { offset: 0x53C36, size: 0x8, addend: 0x0, symName: __ZNSt3__128__exception_guard_exceptionsINS_29_AllocatorDestroyRangeReverseINS_9allocatorIN7doctest16SubcaseSignatureEEENS_16reverse_iteratorIPS4_EEEEED2B8ne180100Ev, symObjAddr: 0x14940, symBinAddr: 0x100016000, symSize: 0x40 }
  - { offset: 0x53C60, size: 0x8, addend: 0x0, symName: __ZNKSt3__129_AllocatorDestroyRangeReverseINS_9allocatorIN7doctest16SubcaseSignatureEEENS_16reverse_iteratorIPS3_EEEclB8ne180100Ev, symObjAddr: 0x14980, symBinAddr: 0x100016040, symSize: 0xF0 }
  - { offset: 0x53C87, size: 0x8, addend: 0x0, symName: __ZNSt3__116reverse_iteratorINS0_IPN7doctest16SubcaseSignatureEEEEC1B8ne180100ES4_, symObjAddr: 0x14AE0, symBinAddr: 0x1000161A0, symSize: 0x30 }
  - { offset: 0x53CC0, size: 0x8, addend: 0x0, symName: __ZNSt3__116allocator_traitsINS_9allocatorIN7doctest16SubcaseSignatureEEEE7destroyB8ne180100IS3_vvEEvRS4_PT_, symObjAddr: 0x14B60, symBinAddr: 0x100016220, symSize: 0x20 }
  - { offset: 0x53CFA, size: 0x8, addend: 0x0, symName: __ZNSt3__116reverse_iteratorINS0_IPN7doctest16SubcaseSignatureEEEEppB8ne180100Ev, symObjAddr: 0x14BA0, symBinAddr: 0x100016260, symSize: 0x30 }
  - { offset: 0x53D20, size: 0x8, addend: 0x0, symName: __ZNKSt3__116reverse_iteratorINS0_IPN7doctest16SubcaseSignatureEEEE4baseB8ne180100Ev, symObjAddr: 0x14BD0, symBinAddr: 0x100016290, symSize: 0x20 }
  - { offset: 0x53D4C, size: 0x8, addend: 0x0, symName: __ZNSt3__119__to_address_helperINS_16reverse_iteratorINS1_IPN7doctest16SubcaseSignatureEEEEEvE6__callB8ne180100ERKS6_, symObjAddr: 0x14C10, symBinAddr: 0x1000162D0, symSize: 0x40 }
  - { offset: 0x53D70, size: 0x8, addend: 0x0, symName: __ZNKSt3__116reverse_iteratorINS0_IPN7doctest16SubcaseSignatureEEEEptB8ne180100Ev, symObjAddr: 0x14C50, symBinAddr: 0x100016310, symSize: 0x50 }
  - { offset: 0x53D96, size: 0x8, addend: 0x0, symName: __ZNSt3__116reverse_iteratorIPN7doctest16SubcaseSignatureEEpLB8ne180100El, symObjAddr: 0x14D40, symBinAddr: 0x100016400, symSize: 0x30 }
  - { offset: 0x53DCB, size: 0x8, addend: 0x0, symName: __ZNSt3__116reverse_iteratorIPN7doctest16SubcaseSignatureEEmmB8ne180100Ev, symObjAddr: 0x14D70, symBinAddr: 0x100016430, symSize: 0x20 }
  - { offset: 0x53DF1, size: 0x8, addend: 0x0, symName: __ZNSt3__116reverse_iteratorINS0_IPN7doctest16SubcaseSignatureEEEEC2B8ne180100ES4_, symObjAddr: 0x14D90, symBinAddr: 0x100016450, symSize: 0x40 }
  - { offset: 0x53E2A, size: 0x8, addend: 0x0, symName: __ZNSt3__116reverse_iteratorIPN7doctest16SubcaseSignatureEEC2B8ne180100ES3_, symObjAddr: 0x14DD0, symBinAddr: 0x100016490, symSize: 0x30 }
  - { offset: 0x53E63, size: 0x8, addend: 0x0, symName: __ZNSt3__114__split_bufferIN7doctest16SubcaseSignatureERNS_9allocatorIS2_EEED2Ev, symObjAddr: 0x14E00, symBinAddr: 0x1000164C0, symSize: 0x70 }
  - { offset: 0x53E8F, size: 0x8, addend: 0x0, symName: __ZNSt3__114__split_bufferIN7doctest16SubcaseSignatureERNS_9allocatorIS2_EEE5clearB8ne180100Ev, symObjAddr: 0x14E70, symBinAddr: 0x100016530, symSize: 0x20 }
  - { offset: 0x53EB5, size: 0x8, addend: 0x0, symName: __ZNSt3__116allocator_traitsINS_9allocatorIN7doctest16SubcaseSignatureEEEE10deallocateB8ne180100ERS4_PS3_m, symObjAddr: 0x14E90, symBinAddr: 0x100016550, symSize: 0x30 }
  - { offset: 0x53EF7, size: 0x8, addend: 0x0, symName: __ZNKSt3__114__split_bufferIN7doctest16SubcaseSignatureERNS_9allocatorIS2_EEE8capacityB8ne180100Ev, symObjAddr: 0x14EC0, symBinAddr: 0x100016580, symSize: 0x40 }
  - { offset: 0x53F1D, size: 0x8, addend: 0x0, symName: __ZNSt3__114__split_bufferIN7doctest16SubcaseSignatureERNS_9allocatorIS2_EEE17__destruct_at_endB8ne180100EPS2_, symObjAddr: 0x14F00, symBinAddr: 0x1000165C0, symSize: 0x30 }
  - { offset: 0x53F52, size: 0x8, addend: 0x0, symName: __ZNSt3__114__split_bufferIN7doctest16SubcaseSignatureERNS_9allocatorIS2_EEE17__destruct_at_endB8ne180100EPS2_NS_17integral_constantIbLb0EEE, symObjAddr: 0x14F30, symBinAddr: 0x1000165F0, symSize: 0x80 }
  - { offset: 0x53F94, size: 0x8, addend: 0x0, symName: __ZNSt3__19allocatorIN7doctest16SubcaseSignatureEE10deallocateB8ne180100EPS2_m, symObjAddr: 0x14FB0, symBinAddr: 0x100016670, symSize: 0x50 }
  - { offset: 0x53FD8, size: 0x8, addend: 0x0, symName: __ZNKSt3__114__split_bufferIN7doctest16SubcaseSignatureERNS_9allocatorIS2_EEE9__end_capB8ne180100Ev, symObjAddr: 0x15000, symBinAddr: 0x1000166C0, symSize: 0x20 }
  - { offset: 0x53FFE, size: 0x8, addend: 0x0, symName: __ZNKSt3__117__compressed_pairIPN7doctest16SubcaseSignatureERNS_9allocatorIS2_EEE5firstB8ne180100Ev, symObjAddr: 0x15020, symBinAddr: 0x1000166E0, symSize: 0x20 }
  - { offset: 0x54024, size: 0x8, addend: 0x0, symName: __ZNSt3__16vectorIPN7doctest9IReporterENS_9allocatorIS3_EEE11__make_iterB8ne180100EPS3_, symObjAddr: 0x15040, symBinAddr: 0x100016700, symSize: 0x30 }
  - { offset: 0x54059, size: 0x8, addend: 0x0, symName: __ZNSt3__111__wrap_iterIPPN7doctest9IReporterEEC1B8ne180100ES4_, symObjAddr: 0x15070, symBinAddr: 0x100016730, symSize: 0x30 }
  - { offset: 0x54092, size: 0x8, addend: 0x0, symName: __ZNSt3__111__wrap_iterIPPN7doctest9IReporterEEC2B8ne180100ES4_, symObjAddr: 0x150A0, symBinAddr: 0x100016760, symSize: 0x20 }
  - { offset: 0x540CB, size: 0x8, addend: 0x0, symName: __ZNKSt3__111__wrap_iterIPPN7doctest9IReporterEE4baseB8ne180100Ev, symObjAddr: 0x15100, symBinAddr: 0x1000167C0, symSize: 0x20 }
  - { offset: 0x540F1, size: 0x8, addend: 0x0, symName: __ZNKSt3__16vectorIN7doctest16SubcaseSignatureENS_9allocatorIS2_EEE5beginB8ne180100Ev, symObjAddr: 0x15120, symBinAddr: 0x1000167E0, symSize: 0x30 }
  - { offset: 0x54119, size: 0x8, addend: 0x0, symName: __ZNKSt3__111__wrap_iterIPKN7doctest16SubcaseSignatureEEplB8ne180100El, symObjAddr: 0x15150, symBinAddr: 0x100016810, symSize: 0x40 }
  - { offset: 0x5415D, size: 0x8, addend: 0x0, symName: __ZNKSt3__111__wrap_iterIPKN7doctest16SubcaseSignatureEEdeB8ne180100Ev, symObjAddr: 0x151C0, symBinAddr: 0x100016880, symSize: 0x20 }
  - { offset: 0x54183, size: 0x8, addend: 0x0, symName: __ZNSt3__111__wrap_iterIPKN7doctest16SubcaseSignatureEEppB8ne180100Ei, symObjAddr: 0x151E0, symBinAddr: 0x1000168A0, symSize: 0x30 }
  - { offset: 0x541C3, size: 0x8, addend: 0x0, symName: __ZNKSt3__16vectorIN7doctest16SubcaseSignatureENS_9allocatorIS2_EEE11__make_iterB8ne180100EPKS2_, symObjAddr: 0x15210, symBinAddr: 0x1000168D0, symSize: 0x30 }
  - { offset: 0x541F8, size: 0x8, addend: 0x0, symName: __ZNSt3__111__wrap_iterIPKN7doctest16SubcaseSignatureEEC1B8ne180100ES4_, symObjAddr: 0x15240, symBinAddr: 0x100016900, symSize: 0x30 }
  - { offset: 0x54231, size: 0x8, addend: 0x0, symName: __ZNSt3__111__wrap_iterIPKN7doctest16SubcaseSignatureEEC2B8ne180100ES4_, symObjAddr: 0x15270, symBinAddr: 0x100016930, symSize: 0x20 }
  - { offset: 0x5426A, size: 0x8, addend: 0x0, symName: __ZNSt3__111__wrap_iterIPKN7doctest16SubcaseSignatureEEpLB8ne180100El, symObjAddr: 0x15290, symBinAddr: 0x100016950, symSize: 0x20 }
  - { offset: 0x5429F, size: 0x8, addend: 0x0, symName: __ZNKSt3__111__wrap_iterIPKN7doctest16SubcaseSignatureEE4baseB8ne180100Ev, symObjAddr: 0x152F0, symBinAddr: 0x1000169B0, symSize: 0x20 }
  - { offset: 0x542C5, size: 0x8, addend: 0x0, symName: __ZNSt3__111__wrap_iterIPKN7doctest16SubcaseSignatureEEppB8ne180100Ev, symObjAddr: 0x15310, symBinAddr: 0x1000169D0, symSize: 0x20 }
  - { offset: 0x542EB, size: 0x8, addend: 0x0, symName: __ZNSt3__16vectorIN7doctest16SubcaseSignatureENS_9allocatorIS2_EEE7__clearB8ne180100Ev, symObjAddr: 0x15380, symBinAddr: 0x100016A40, symSize: 0x20 }
  - { offset: 0x54311, size: 0x8, addend: 0x0, symName: __ZNKSt3__16vectorIN7doctest16SubcaseSignatureENS_9allocatorIS2_EEE17__annotate_shrinkB8ne180100Em, symObjAddr: 0x153A0, symBinAddr: 0x100016A60, symSize: 0x10 }
  - { offset: 0x54346, size: 0x8, addend: 0x0, symName: __ZNSt3__16vectorIN7doctest16SubcaseSignatureENS_9allocatorIS2_EEE22__base_destruct_at_endB8ne180100EPS2_, symObjAddr: 0x153B0, symBinAddr: 0x100016A70, symSize: 0x80 }
  - { offset: 0x5438A, size: 0x8, addend: 0x0, symName: __ZNSt3__16vectorIN7doctest16SubcaseSignatureENS_9allocatorIS2_EEE18__insert_with_sizeB8ne180100INS_11__wrap_iterIPS2_EES9_EES9_NS7_IPKS2_EET_T0_l, symObjAddr: 0x15430, symBinAddr: 0x100016AF0, symSize: 0x320 }
  - { offset: 0x544B0, size: 0x8, addend: 0x0, symName: __ZNSt3__16vectorIN7doctest16SubcaseSignatureENS_9allocatorIS2_EEE18__construct_at_endINS_11__wrap_iterIPS2_EES9_EEvT_T0_m, symObjAddr: 0x15830, symBinAddr: 0x100016EF0, symSize: 0xA0 }
  - { offset: 0x54526, size: 0x8, addend: 0x0, symName: __ZNSt3__16vectorIN7doctest16SubcaseSignatureENS_9allocatorIS2_EEE12__move_rangeEPS2_S6_S6_, symObjAddr: 0x158D0, symBinAddr: 0x100016F90, symSize: 0x130 }
  - { offset: 0x545E4, size: 0x8, addend: 0x0, symName: __ZNSt3__114__split_bufferIN7doctest16SubcaseSignatureERNS_9allocatorIS2_EEE28__construct_at_end_with_sizeINS_11__wrap_iterIPS2_EEEEvT_m, symObjAddr: 0x15A50, symBinAddr: 0x100017110, symSize: 0xD0 }
  - { offset: 0x54642, size: 0x8, addend: 0x0, symName: __ZNSt3__16vectorIN7doctest16SubcaseSignatureENS_9allocatorIS2_EEE11__make_iterB8ne180100EPS2_, symObjAddr: 0x15C80, symBinAddr: 0x100017340, symSize: 0x30 }
  - { offset: 0x54677, size: 0x8, addend: 0x0, symName: __ZNKSt3__111__wrap_iterIPN7doctest16SubcaseSignatureEE4baseB8ne180100Ev, symObjAddr: 0x15CB0, symBinAddr: 0x100017370, symSize: 0x20 }
  - { offset: 0x5469D, size: 0x8, addend: 0x0, symName: __ZNSt3__111__wrap_iterIPN7doctest16SubcaseSignatureEEpLB8ne180100El, symObjAddr: 0x15D00, symBinAddr: 0x1000173C0, symSize: 0x20 }
  - { offset: 0x546EF, size: 0x8, addend: 0x0, symName: __ZNSt3__119__unwrap_range_implINS_11__wrap_iterIPN7doctest16SubcaseSignatureEEES5_E8__unwrapB8ne180100ES5_S5_, symObjAddr: 0x15F60, symBinAddr: 0x100017620, symSize: 0x60 }
  - { offset: 0x54728, size: 0x8, addend: 0x0, symName: __ZNSt3__14pairIPN7doctest16SubcaseSignatureES3_EC1B8ne180100IS3_S3_Li0EEEOT_OT0_, symObjAddr: 0x15FF0, symBinAddr: 0x1000176B0, symSize: 0x30 }
  - { offset: 0x54789, size: 0x8, addend: 0x0, symName: __ZNSt3__118__unwrap_iter_implINS_11__wrap_iterIPN7doctest16SubcaseSignatureEEELb1EE8__unwrapB8ne180100ES5_, symObjAddr: 0x16020, symBinAddr: 0x1000176E0, symSize: 0x20 }
  - { offset: 0x547B3, size: 0x8, addend: 0x0, symName: __ZNSt3__119__to_address_helperINS_11__wrap_iterIPN7doctest16SubcaseSignatureEEEvE6__callB8ne180100ERKS5_, symObjAddr: 0x16060, symBinAddr: 0x100017720, symSize: 0x30 }
  - { offset: 0x547D7, size: 0x8, addend: 0x0, symName: __ZNSt3__114pointer_traitsINS_11__wrap_iterIPN7doctest16SubcaseSignatureEEEE10to_addressB8ne180100ES5_, symObjAddr: 0x16090, symBinAddr: 0x100017750, symSize: 0x30 }
  - { offset: 0x547FB, size: 0x8, addend: 0x0, symName: __ZNSt3__14pairIPN7doctest16SubcaseSignatureES3_EC2B8ne180100IS3_S3_Li0EEEOT_OT0_, symObjAddr: 0x160C0, symBinAddr: 0x100017780, symSize: 0x30 }
  - { offset: 0x5485C, size: 0x8, addend: 0x0, symName: __ZNSt3__129_AllocatorDestroyRangeReverseINS_9allocatorIN7doctest16SubcaseSignatureEEEPS3_EC1B8ne180100ERS4_RS5_S8_, symObjAddr: 0x16150, symBinAddr: 0x100017810, symSize: 0x40 }
  - { offset: 0x548B3, size: 0x8, addend: 0x0, symName: __ZNSt3__116allocator_traitsINS_9allocatorIN7doctest16SubcaseSignatureEEEE9constructB8ne180100IS3_JRS3_EvvEEvRS4_PT_DpOT0_, symObjAddr: 0x16190, symBinAddr: 0x100017850, symSize: 0x30 }
  - { offset: 0x54907, size: 0x8, addend: 0x0, symName: __ZNSt3__128__exception_guard_exceptionsINS_29_AllocatorDestroyRangeReverseINS_9allocatorIN7doctest16SubcaseSignatureEEEPS4_EEE10__completeB8ne180100Ev, symObjAddr: 0x161C0, symBinAddr: 0x100017880, symSize: 0x20 }
  - { offset: 0x5492D, size: 0x8, addend: 0x0, symName: __ZNSt3__128__exception_guard_exceptionsINS_29_AllocatorDestroyRangeReverseINS_9allocatorIN7doctest16SubcaseSignatureEEEPS4_EEED1B8ne180100Ev, symObjAddr: 0x161E0, symBinAddr: 0x1000178A0, symSize: 0x20 }
  - { offset: 0x54957, size: 0x8, addend: 0x0, symName: __ZNSt3__128__exception_guard_exceptionsINS_29_AllocatorDestroyRangeReverseINS_9allocatorIN7doctest16SubcaseSignatureEEEPS4_EEEC1B8ne180100ES7_, symObjAddr: 0x16200, symBinAddr: 0x1000178C0, symSize: 0x40 }
  - { offset: 0x54990, size: 0x8, addend: 0x0, symName: __ZNSt3__128__exception_guard_exceptionsINS_29_AllocatorDestroyRangeReverseINS_9allocatorIN7doctest16SubcaseSignatureEEEPS4_EEEC2B8ne180100ES7_, symObjAddr: 0x16240, symBinAddr: 0x100017900, symSize: 0x30 }
  - { offset: 0x549C9, size: 0x8, addend: 0x0, symName: __ZNSt3__129_AllocatorDestroyRangeReverseINS_9allocatorIN7doctest16SubcaseSignatureEEEPS3_EC2B8ne180100ERS4_RS5_S8_, symObjAddr: 0x16270, symBinAddr: 0x100017930, symSize: 0x40 }
  - { offset: 0x54A20, size: 0x8, addend: 0x0, symName: __ZNSt3__128__exception_guard_exceptionsINS_29_AllocatorDestroyRangeReverseINS_9allocatorIN7doctest16SubcaseSignatureEEEPS4_EEED2B8ne180100Ev, symObjAddr: 0x16310, symBinAddr: 0x1000179D0, symSize: 0x40 }
  - { offset: 0x54A4A, size: 0x8, addend: 0x0, symName: __ZNKSt3__129_AllocatorDestroyRangeReverseINS_9allocatorIN7doctest16SubcaseSignatureEEEPS3_EclB8ne180100Ev, symObjAddr: 0x16350, symBinAddr: 0x100017A10, symSize: 0x60 }
  - { offset: 0x54A70, size: 0x8, addend: 0x0, symName: __ZNSt3__118__unwrap_iter_implIPN7doctest16SubcaseSignatureELb1EE8__unwrapB8ne180100ES3_, symObjAddr: 0x16420, symBinAddr: 0x100017AE0, symSize: 0x20 }
  - { offset: 0x54A94, size: 0x8, addend: 0x0, symName: __ZNSt3__118__unwrap_iter_implIPN7doctest16SubcaseSignatureELb1EE8__rewrapB8ne180100ES3_S3_, symObjAddr: 0x16440, symBinAddr: 0x100017B00, symSize: 0x60 }
  - { offset: 0x54AD2, size: 0x8, addend: 0x0, symName: __ZNKSt3__120__move_backward_loopINS_17_ClassicAlgPolicyEEclB8ne180100IPN7doctest16SubcaseSignatureES6_S6_EENS_4pairIT_T1_EES8_T0_S9_, symObjAddr: 0x16650, symBinAddr: 0x100017D10, symSize: 0x90 }
  - { offset: 0x54B5E, size: 0x8, addend: 0x0, symName: __ZNSt3__119__unwrap_range_implIPN7doctest16SubcaseSignatureES3_E8__unwrapB8ne180100ES3_S3_, symObjAddr: 0x16740, symBinAddr: 0x100017E00, symSize: 0x50 }
  - { offset: 0x54B91, size: 0x8, addend: 0x0, symName: __ZNSt3__18_IterOpsINS_17_ClassicAlgPolicyEE4nextB8ne180100IPN7doctest16SubcaseSignatureEEET_S7_S7_, symObjAddr: 0x16790, symBinAddr: 0x100017E50, symSize: 0x20 }
  - { offset: 0x54BCF, size: 0x8, addend: 0x0, symName: __ZNSt3__18_IterOpsINS_17_ClassicAlgPolicyEE11__iter_moveB8ne180100IRPN7doctest16SubcaseSignatureELi0EEEDTclsr3stdE4movedeclsr3stdE7declvalIRT_EEEEOS8_, symObjAddr: 0x167B0, symBinAddr: 0x100017E70, symSize: 0x20 }
  - { offset: 0x54C03, size: 0x8, addend: 0x0, symName: __ZN7doctest16SubcaseSignatureaSEOS0_, symObjAddr: 0x167D0, symBinAddr: 0x100017E90, symSize: 0x40 }
  - { offset: 0x54C35, size: 0x8, addend: 0x0, symName: __ZNSt3__18_IterOpsINS_17_ClassicAlgPolicyEE25__validate_iter_referenceB8ne180100IRPN7doctest16SubcaseSignatureEEEvv, symObjAddr: 0x16810, symBinAddr: 0x100017ED0, symSize: 0x10 }
  - { offset: 0x54C53, size: 0x8, addend: 0x0, symName: __ZNSt3__119__unwrap_range_implIPN7doctest16SubcaseSignatureES3_E8__rewrapB8ne180100ES3_S3_, symObjAddr: 0x16820, symBinAddr: 0x100017EE0, symSize: 0x30 }
  - { offset: 0x54C91, size: 0x8, addend: 0x0, symName: __ZNKSt3__111__copy_loopINS_17_ClassicAlgPolicyEEclB8ne180100IPN7doctest16SubcaseSignatureES6_S6_EENS_4pairIT_T1_EES8_T0_S9_, symObjAddr: 0x169C0, symBinAddr: 0x100018080, symSize: 0x80 }
  - { offset: 0x54CFF, size: 0x8, addend: 0x0, symName: __ZN7doctest16SubcaseSignatureaSERKS0_, symObjAddr: 0x16AB0, symBinAddr: 0x100018170, symSize: 0x40 }
  - { offset: 0x54D54, size: 0x8, addend: 0x0, symName: __ZNSt3__14pairINS_11__wrap_iterIPN7doctest16SubcaseSignatureEEES4_EC1B8ne180100IS5_S4_Li0EEEOT_OT0_, symObjAddr: 0x16AF0, symBinAddr: 0x1000181B0, symSize: 0x30 }
  - { offset: 0x54DB5, size: 0x8, addend: 0x0, symName: __ZNSt3__14pairINS_11__wrap_iterIPN7doctest16SubcaseSignatureEEES4_EC2B8ne180100IS5_S4_Li0EEEOT_OT0_, symObjAddr: 0x16B20, symBinAddr: 0x1000181E0, symSize: 0x30 }
  - { offset: 0x54E16, size: 0x8, addend: 0x0, symName: __ZNSt3__119__unwrap_range_implINS_11__wrap_iterIPN7doctest16SubcaseSignatureEEES5_E8__rewrapB8ne180100ES5_S4_, symObjAddr: 0x16B50, symBinAddr: 0x100018210, symSize: 0x40 }
  - { offset: 0x54E49, size: 0x8, addend: 0x0, symName: __ZNSt3__118__unwrap_iter_implINS_11__wrap_iterIPN7doctest16SubcaseSignatureEEELb1EE8__rewrapB8ne180100ES5_S4_, symObjAddr: 0x16BE0, symBinAddr: 0x1000182A0, symSize: 0x50 }
  - { offset: 0x54E88, size: 0x8, addend: 0x0, symName: __ZNSt3__114__split_bufferIN7doctest16SubcaseSignatureERNS_9allocatorIS2_EEE21_ConstructTransactionC1B8ne180100EPPS2_m, symObjAddr: 0x16C30, symBinAddr: 0x1000182F0, symSize: 0x30 }
  - { offset: 0x54ED0, size: 0x8, addend: 0x0, symName: __ZNKSt3__111__wrap_iterIPN7doctest16SubcaseSignatureEEdeB8ne180100Ev, symObjAddr: 0x16C60, symBinAddr: 0x100018320, symSize: 0x20 }
  - { offset: 0x54EF6, size: 0x8, addend: 0x0, symName: __ZNSt3__111__wrap_iterIPN7doctest16SubcaseSignatureEEppB8ne180100Ev, symObjAddr: 0x16C80, symBinAddr: 0x100018340, symSize: 0x20 }
  - { offset: 0x54F1C, size: 0x8, addend: 0x0, symName: __ZNSt3__114__split_bufferIN7doctest16SubcaseSignatureERNS_9allocatorIS2_EEE21_ConstructTransactionD1B8ne180100Ev, symObjAddr: 0x16CA0, symBinAddr: 0x100018360, symSize: 0x20 }
  - { offset: 0x54F46, size: 0x8, addend: 0x0, symName: __ZNSt3__114__split_bufferIN7doctest16SubcaseSignatureERNS_9allocatorIS2_EEE21_ConstructTransactionC2B8ne180100EPPS2_m, symObjAddr: 0x16CC0, symBinAddr: 0x100018380, symSize: 0x40 }
  - { offset: 0x54F8E, size: 0x8, addend: 0x0, symName: __ZNSt3__114__split_bufferIN7doctest16SubcaseSignatureERNS_9allocatorIS2_EEE21_ConstructTransactionD2B8ne180100Ev, symObjAddr: 0x16D00, symBinAddr: 0x1000183C0, symSize: 0x20 }
  - { offset: 0x54FB8, size: 0x8, addend: 0x0, symName: __ZNSt3__111__wrap_iterIPN7doctest16SubcaseSignatureEEC1B8ne180100ES3_, symObjAddr: 0x16E20, symBinAddr: 0x1000184E0, symSize: 0x30 }
  - { offset: 0x54FF1, size: 0x8, addend: 0x0, symName: __ZNSt3__111__wrap_iterIPN7doctest16SubcaseSignatureEEC2B8ne180100ES3_, symObjAddr: 0x16E50, symBinAddr: 0x100018510, symSize: 0x20 }
  - { offset: 0x5502A, size: 0x8, addend: 0x0, symName: __ZNSt3__111__wrap_iterIPKN7doctest16SubcaseSignatureEEC2B8ne180100IPS2_Li0EEERKNS0_IT_EE, symObjAddr: 0x16EE0, symBinAddr: 0x1000185A0, symSize: 0x40 }
  - { offset: 0x55073, size: 0x8, addend: 0x0, symName: __ZN7doctest16SubcaseSignatureD2Ev, symObjAddr: 0x16F20, symBinAddr: 0x1000185E0, symSize: 0x20 }
  - { offset: 0x550A0, size: 0x8, addend: 0x0, symName: __ZNKSt3__16vectorIN7doctest16SubcaseSignatureENS_9allocatorIS2_EEE3endB8ne180100Ev, symObjAddr: 0x16F40, symBinAddr: 0x100018600, symSize: 0x30 }
  - { offset: 0x550C8, size: 0x8, addend: 0x0, symName: __ZN7doctest17TestCaseExceptionD2Ev, symObjAddr: 0x16F70, symBinAddr: 0x100018630, symSize: 0x20 }
  - { offset: 0x550F5, size: 0x8, addend: 0x0, symName: __ZNKSt3__111__wrap_iterIPPKN7doctest6detail20IExceptionTranslatorEE4baseB8ne180100Ev, symObjAddr: 0x16F90, symBinAddr: 0x100018650, symSize: 0x20 }
  - { offset: 0x5511B, size: 0x8, addend: 0x0, symName: __ZNSt3__118__unwrap_iter_implINS_11__wrap_iterIPPKN7doctest6detail20IExceptionTranslatorEEELb1EE8__rewrapB8ne180100ES8_S7_, symObjAddr: 0x170A0, symBinAddr: 0x100018760, symSize: 0x50 }
  - { offset: 0x5514E, size: 0x8, addend: 0x0, symName: __ZNKSt3__111__wrap_iterIPPKN7doctest6detail20IExceptionTranslatorEEplB8ne180100El, symObjAddr: 0x170F0, symBinAddr: 0x1000187B0, symSize: 0x40 }
  - { offset: 0x55192, size: 0x8, addend: 0x0, symName: __ZNSt3__111__wrap_iterIPPKN7doctest6detail20IExceptionTranslatorEEpLB8ne180100El, symObjAddr: 0x17150, symBinAddr: 0x100018810, symSize: 0x20 }
  - { offset: 0x551D3, size: 0x8, addend: 0x0, symName: __ZNSt3__119__to_address_helperINS_11__wrap_iterIPPKN7doctest6detail20IExceptionTranslatorEEEvE6__callB8ne180100ERKS8_, symObjAddr: 0x17170, symBinAddr: 0x100018830, symSize: 0x30 }
  - { offset: 0x551F7, size: 0x8, addend: 0x0, symName: __ZNSt3__114pointer_traitsINS_11__wrap_iterIPPKN7doctest6detail20IExceptionTranslatorEEEE10to_addressB8ne180100ES8_, symObjAddr: 0x171A0, symBinAddr: 0x100018860, symSize: 0x30 }
  - { offset: 0x55226, size: 0x8, addend: 0x0, symName: __ZNKSt3__110__identityclB8ne180100IRPKN7doctest6detail20IExceptionTranslatorEEEOT_S9_, symObjAddr: 0x17210, symBinAddr: 0x1000188D0, symSize: 0x20 }
  - { offset: 0x55264, size: 0x8, addend: 0x0, symName: __ZNSt3__118__unwrap_iter_implINS_11__wrap_iterIPPKN7doctest6detail20IExceptionTranslatorEEELb1EE8__unwrapB8ne180100ES8_, symObjAddr: 0x17230, symBinAddr: 0x1000188F0, symSize: 0x20 }
  - { offset: 0x55288, size: 0x8, addend: 0x0, symName: __ZNSt3__16vectorIPKN7doctest6detail20IExceptionTranslatorENS_9allocatorIS5_EEED1B8ne180100Ev, symObjAddr: 0x17250, symBinAddr: 0x100018910, symSize: 0x20 }
  - { offset: 0x552B2, size: 0x8, addend: 0x0, symName: __ZNSt3__16vectorIPKN7doctest6detail20IExceptionTranslatorENS_9allocatorIS5_EEED2B8ne180100Ev, symObjAddr: 0x17270, symBinAddr: 0x100018930, symSize: 0x40 }
  - { offset: 0x552DC, size: 0x8, addend: 0x0, symName: __ZNSt3__16vectorIPKN7doctest6detail20IExceptionTranslatorENS_9allocatorIS5_EEE16__destroy_vectorC1B8ne180100ERS8_, symObjAddr: 0x172B0, symBinAddr: 0x100018970, symSize: 0x30 }
  - { offset: 0x55315, size: 0x8, addend: 0x0, symName: __ZNSt3__16vectorIPKN7doctest6detail20IExceptionTranslatorENS_9allocatorIS5_EEE16__destroy_vectorclB8ne180100Ev, symObjAddr: 0x172E0, symBinAddr: 0x1000189A0, symSize: 0x80 }
  - { offset: 0x5533B, size: 0x8, addend: 0x0, symName: __ZNSt3__16vectorIPKN7doctest6detail20IExceptionTranslatorENS_9allocatorIS5_EEE16__destroy_vectorC2B8ne180100ERS8_, symObjAddr: 0x17360, symBinAddr: 0x100018A20, symSize: 0x20 }
  - { offset: 0x55374, size: 0x8, addend: 0x0, symName: __ZNSt3__16vectorIPKN7doctest6detail20IExceptionTranslatorENS_9allocatorIS5_EEE7__clearB8ne180100Ev, symObjAddr: 0x17380, symBinAddr: 0x100018A40, symSize: 0x20 }
  - { offset: 0x5539A, size: 0x8, addend: 0x0, symName: __ZNKSt3__16vectorIPKN7doctest6detail20IExceptionTranslatorENS_9allocatorIS5_EEE17__annotate_deleteB8ne180100Ev, symObjAddr: 0x173A0, symBinAddr: 0x100018A60, symSize: 0x10 }
  - { offset: 0x553C0, size: 0x8, addend: 0x0, symName: __ZNSt3__116allocator_traitsINS_9allocatorIPKN7doctest6detail20IExceptionTranslatorEEEE10deallocateB8ne180100ERS7_PS6_m, symObjAddr: 0x173B0, symBinAddr: 0x100018A70, symSize: 0x30 }
  - { offset: 0x55402, size: 0x8, addend: 0x0, symName: __ZNSt3__16vectorIPKN7doctest6detail20IExceptionTranslatorENS_9allocatorIS5_EEE7__allocB8ne180100Ev, symObjAddr: 0x173E0, symBinAddr: 0x100018AA0, symSize: 0x20 }
  - { offset: 0x55428, size: 0x8, addend: 0x0, symName: __ZNKSt3__16vectorIPKN7doctest6detail20IExceptionTranslatorENS_9allocatorIS5_EEE8capacityB8ne180100Ev, symObjAddr: 0x17400, symBinAddr: 0x100018AC0, symSize: 0x30 }
  - { offset: 0x5544E, size: 0x8, addend: 0x0, symName: __ZNSt3__16vectorIPKN7doctest6detail20IExceptionTranslatorENS_9allocatorIS5_EEE22__base_destruct_at_endB8ne180100EPS5_, symObjAddr: 0x17430, symBinAddr: 0x100018AF0, symSize: 0x80 }
  - { offset: 0x55492, size: 0x8, addend: 0x0, symName: __ZNSt3__116allocator_traitsINS_9allocatorIPKN7doctest6detail20IExceptionTranslatorEEEE7destroyB8ne180100IS6_vvEEvRS7_PT_, symObjAddr: 0x174B0, symBinAddr: 0x100018B70, symSize: 0x20 }
  - { offset: 0x554CC, size: 0x8, addend: 0x0, symName: __ZNSt3__19allocatorIPKN7doctest6detail20IExceptionTranslatorEE10deallocateB8ne180100EPS5_m, symObjAddr: 0x174E0, symBinAddr: 0x100018BA0, symSize: 0x40 }
  - { offset: 0x55510, size: 0x8, addend: 0x0, symName: __ZNSt3__117__compressed_pairIPPKN7doctest6detail20IExceptionTranslatorENS_9allocatorIS5_EEE6secondB8ne180100Ev, symObjAddr: 0x17520, symBinAddr: 0x100018BE0, symSize: 0x20 }
  - { offset: 0x55536, size: 0x8, addend: 0x0, symName: __ZNSt3__122__compressed_pair_elemINS_9allocatorIPKN7doctest6detail20IExceptionTranslatorEEELi1ELb1EE5__getB8ne180100Ev, symObjAddr: 0x17540, symBinAddr: 0x100018C00, symSize: 0x10 }
  - { offset: 0x5555C, size: 0x8, addend: 0x0, symName: __ZNKSt3__16vectorIPKN7doctest6detail20IExceptionTranslatorENS_9allocatorIS5_EEE9__end_capB8ne180100Ev, symObjAddr: 0x17550, symBinAddr: 0x100018C10, symSize: 0x20 }
  - { offset: 0x55582, size: 0x8, addend: 0x0, symName: __ZNKSt3__117__compressed_pairIPPKN7doctest6detail20IExceptionTranslatorENS_9allocatorIS5_EEE5firstB8ne180100Ev, symObjAddr: 0x17570, symBinAddr: 0x100018C30, symSize: 0x20 }
  - { offset: 0x555A8, size: 0x8, addend: 0x0, symName: __ZNKSt3__122__compressed_pair_elemIPPKN7doctest6detail20IExceptionTranslatorELi0ELb0EE5__getB8ne180100Ev, symObjAddr: 0x17590, symBinAddr: 0x100018C50, symSize: 0x10 }
  - { offset: 0x555CE, size: 0x8, addend: 0x0, symName: __ZNSt3__16vectorIPKN7doctest6detail20IExceptionTranslatorENS_9allocatorIS5_EEE11__make_iterB8ne180100EPS5_, symObjAddr: 0x175A0, symBinAddr: 0x100018C60, symSize: 0x30 }
  - { offset: 0x55603, size: 0x8, addend: 0x0, symName: __ZNSt3__111__wrap_iterIPPKN7doctest6detail20IExceptionTranslatorEEC1B8ne180100ES6_, symObjAddr: 0x175D0, symBinAddr: 0x100018C90, symSize: 0x30 }
  - { offset: 0x5563C, size: 0x8, addend: 0x0, symName: __ZNSt3__111__wrap_iterIPPKN7doctest6detail20IExceptionTranslatorEEC2B8ne180100ES6_, symObjAddr: 0x17600, symBinAddr: 0x100018CC0, symSize: 0x20 }
  - { offset: 0x55675, size: 0x8, addend: 0x0, symName: __ZNSt3__16vectorIPKN7doctest6detail20IExceptionTranslatorENS_9allocatorIS5_EEE9__end_capB8ne180100Ev, symObjAddr: 0x17620, symBinAddr: 0x100018CE0, symSize: 0x20 }
  - { offset: 0x556A1, size: 0x8, addend: 0x0, symName: __ZNSt3__16vectorIPKN7doctest6detail20IExceptionTranslatorENS_9allocatorIS5_EEE22__construct_one_at_endB8ne180100IJRKS5_EEEvDpOT_, symObjAddr: 0x17640, symBinAddr: 0x100018D00, symSize: 0x90 }
  - { offset: 0x556F0, size: 0x8, addend: 0x0, symName: __ZNSt3__16vectorIPKN7doctest6detail20IExceptionTranslatorENS_9allocatorIS5_EEE21__push_back_slow_pathIRKS5_EEPS5_OT_, symObjAddr: 0x176D0, symBinAddr: 0x100018D90, symSize: 0xE0 }
  - { offset: 0x5574E, size: 0x8, addend: 0x0, symName: __ZNSt3__117__compressed_pairIPPKN7doctest6detail20IExceptionTranslatorENS_9allocatorIS5_EEE5firstB8ne180100Ev, symObjAddr: 0x177B0, symBinAddr: 0x100018E70, symSize: 0x20 }
  - { offset: 0x55774, size: 0x8, addend: 0x0, symName: __ZNSt3__122__compressed_pair_elemIPPKN7doctest6detail20IExceptionTranslatorELi0ELb0EE5__getB8ne180100Ev, symObjAddr: 0x177D0, symBinAddr: 0x100018E90, symSize: 0x10 }
  - { offset: 0x557B6, size: 0x8, addend: 0x0, symName: __ZNSt3__16vectorIPKN7doctest6detail20IExceptionTranslatorENS_9allocatorIS5_EEE21_ConstructTransactionC1B8ne180100ERS8_m, symObjAddr: 0x177E0, symBinAddr: 0x100018EA0, symSize: 0x30 }
  - { offset: 0x557FE, size: 0x8, addend: 0x0, symName: __ZNSt3__116allocator_traitsINS_9allocatorIPKN7doctest6detail20IExceptionTranslatorEEEE9constructB8ne180100IS6_JRKS6_EvvEEvRS7_PT_DpOT0_, symObjAddr: 0x17810, symBinAddr: 0x100018ED0, symSize: 0x30 }
  - { offset: 0x55852, size: 0x8, addend: 0x0, symName: __ZNSt3__16vectorIPKN7doctest6detail20IExceptionTranslatorENS_9allocatorIS5_EEE21_ConstructTransactionD1B8ne180100Ev, symObjAddr: 0x17840, symBinAddr: 0x100018F00, symSize: 0x20 }
  - { offset: 0x5587C, size: 0x8, addend: 0x0, symName: __ZNSt3__16vectorIPKN7doctest6detail20IExceptionTranslatorENS_9allocatorIS5_EEE21_ConstructTransactionC2B8ne180100ERS8_m, symObjAddr: 0x17860, symBinAddr: 0x100018F20, symSize: 0x40 }
  - { offset: 0x558C4, size: 0x8, addend: 0x0, symName: __ZNSt3__16vectorIPKN7doctest6detail20IExceptionTranslatorENS_9allocatorIS5_EEE21_ConstructTransactionD2B8ne180100Ev, symObjAddr: 0x178F0, symBinAddr: 0x100018FB0, symSize: 0x20 }
  - { offset: 0x558EE, size: 0x8, addend: 0x0, symName: __ZNKSt3__16vectorIPKN7doctest6detail20IExceptionTranslatorENS_9allocatorIS5_EEE11__recommendB8ne180100Em, symObjAddr: 0x17910, symBinAddr: 0x100018FD0, symSize: 0x90 }
  - { offset: 0x55943, size: 0x8, addend: 0x0, symName: __ZNKSt3__16vectorIPKN7doctest6detail20IExceptionTranslatorENS_9allocatorIS5_EEE4sizeB8ne180100Ev, symObjAddr: 0x179A0, symBinAddr: 0x100019060, symSize: 0x20 }
  - { offset: 0x55969, size: 0x8, addend: 0x0, symName: __ZNSt3__114__split_bufferIPKN7doctest6detail20IExceptionTranslatorERNS_9allocatorIS5_EEEC1EmmS8_, symObjAddr: 0x179C0, symBinAddr: 0x100019080, symSize: 0x40 }
  - { offset: 0x559C2, size: 0x8, addend: 0x0, symName: __ZNSt3__114__split_bufferIPKN7doctest6detail20IExceptionTranslatorERNS_9allocatorIS5_EEED1Ev, symObjAddr: 0x17B20, symBinAddr: 0x1000191E0, symSize: 0x20 }
  - { offset: 0x559EE, size: 0x8, addend: 0x0, symName: __ZNKSt3__16vectorIPKN7doctest6detail20IExceptionTranslatorENS_9allocatorIS5_EEE8max_sizeEv, symObjAddr: 0x17B40, symBinAddr: 0x100019200, symSize: 0x60 }
  - { offset: 0x55A16, size: 0x8, addend: 0x0, symName: __ZNKSt3__16vectorIPKN7doctest6detail20IExceptionTranslatorENS_9allocatorIS5_EEE20__throw_length_errorB8ne180100Ev, symObjAddr: 0x17BA0, symBinAddr: 0x100019260, symSize: 0x20 }
  - { offset: 0x55A47, size: 0x8, addend: 0x0, symName: __ZNSt3__116allocator_traitsINS_9allocatorIPKN7doctest6detail20IExceptionTranslatorEEEE8max_sizeB8ne180100IS7_vvEEmRKS7_, symObjAddr: 0x17BC0, symBinAddr: 0x100019280, symSize: 0x20 }
  - { offset: 0x55A72, size: 0x8, addend: 0x0, symName: __ZNKSt3__16vectorIPKN7doctest6detail20IExceptionTranslatorENS_9allocatorIS5_EEE7__allocB8ne180100Ev, symObjAddr: 0x17BE0, symBinAddr: 0x1000192A0, symSize: 0x20 }
  - { offset: 0x55A98, size: 0x8, addend: 0x0, symName: __ZNKSt3__117__compressed_pairIPPKN7doctest6detail20IExceptionTranslatorENS_9allocatorIS5_EEE6secondB8ne180100Ev, symObjAddr: 0x17C00, symBinAddr: 0x1000192C0, symSize: 0x20 }
  - { offset: 0x55ABE, size: 0x8, addend: 0x0, symName: __ZNKSt3__122__compressed_pair_elemINS_9allocatorIPKN7doctest6detail20IExceptionTranslatorEEELi1ELb1EE5__getB8ne180100Ev, symObjAddr: 0x17C20, symBinAddr: 0x1000192E0, symSize: 0x10 }
  - { offset: 0x55AE4, size: 0x8, addend: 0x0, symName: __ZNSt3__114__split_bufferIPKN7doctest6detail20IExceptionTranslatorERNS_9allocatorIS5_EEEC2EmmS8_, symObjAddr: 0x17C30, symBinAddr: 0x1000192F0, symSize: 0xD0 }
  - { offset: 0x55B5A, size: 0x8, addend: 0x0, symName: __ZNSt3__117__compressed_pairIPPKN7doctest6detail20IExceptionTranslatorERNS_9allocatorIS5_EEEC1B8ne180100IDnS9_EEOT_OT0_, symObjAddr: 0x17D00, symBinAddr: 0x1000193C0, symSize: 0x30 }
  - { offset: 0x55BB4, size: 0x8, addend: 0x0, symName: __ZNSt3__114__split_bufferIPKN7doctest6detail20IExceptionTranslatorERNS_9allocatorIS5_EEE7__allocB8ne180100Ev, symObjAddr: 0x17D70, symBinAddr: 0x100019430, symSize: 0x20 }
  - { offset: 0x55BDA, size: 0x8, addend: 0x0, symName: __ZNSt3__114__split_bufferIPKN7doctest6detail20IExceptionTranslatorERNS_9allocatorIS5_EEE9__end_capB8ne180100Ev, symObjAddr: 0x17D90, symBinAddr: 0x100019450, symSize: 0x20 }
  - { offset: 0x55C00, size: 0x8, addend: 0x0, symName: __ZNSt3__117__compressed_pairIPPKN7doctest6detail20IExceptionTranslatorERNS_9allocatorIS5_EEEC2B8ne180100IDnS9_EEOT_OT0_, symObjAddr: 0x17DB0, symBinAddr: 0x100019470, symSize: 0x40 }
  - { offset: 0x55C5A, size: 0x8, addend: 0x0, symName: __ZNSt3__122__compressed_pair_elemIPPKN7doctest6detail20IExceptionTranslatorELi0ELb0EEC2B8ne180100IDnvEEOT_, symObjAddr: 0x17DF0, symBinAddr: 0x1000194B0, symSize: 0x20 }
  - { offset: 0x55C9D, size: 0x8, addend: 0x0, symName: __ZNSt3__122__compressed_pair_elemIRNS_9allocatorIPKN7doctest6detail20IExceptionTranslatorEEELi1ELb0EEC2B8ne180100IS8_vEEOT_, symObjAddr: 0x17E10, symBinAddr: 0x1000194D0, symSize: 0x20 }
  - { offset: 0x55CE0, size: 0x8, addend: 0x0, symName: __ZNSt3__19allocatorIPKN7doctest6detail20IExceptionTranslatorEE8allocateB8ne180100Em, symObjAddr: 0x17E30, symBinAddr: 0x1000194F0, symSize: 0x50 }
  - { offset: 0x55D15, size: 0x8, addend: 0x0, symName: __ZNSt3__117__compressed_pairIPPKN7doctest6detail20IExceptionTranslatorERNS_9allocatorIS5_EEE6secondB8ne180100Ev, symObjAddr: 0x17E80, symBinAddr: 0x100019540, symSize: 0x20 }
  - { offset: 0x55D3B, size: 0x8, addend: 0x0, symName: __ZNSt3__122__compressed_pair_elemIRNS_9allocatorIPKN7doctest6detail20IExceptionTranslatorEEELi1ELb0EE5__getB8ne180100Ev, symObjAddr: 0x17EA0, symBinAddr: 0x100019560, symSize: 0x20 }
  - { offset: 0x55D61, size: 0x8, addend: 0x0, symName: __ZNSt3__117__compressed_pairIPPKN7doctest6detail20IExceptionTranslatorERNS_9allocatorIS5_EEE5firstB8ne180100Ev, symObjAddr: 0x17EC0, symBinAddr: 0x100019580, symSize: 0x20 }
  - { offset: 0x55D87, size: 0x8, addend: 0x0, symName: __ZNSt3__116reverse_iteratorIPPKN7doctest6detail20IExceptionTranslatorEEC1B8ne180100ES6_, symObjAddr: 0x17F50, symBinAddr: 0x100019610, symSize: 0x30 }
  - { offset: 0x55DC0, size: 0x8, addend: 0x0, symName: __ZNKSt3__116reverse_iteratorIPPKN7doctest6detail20IExceptionTranslatorEE4baseB8ne180100Ev, symObjAddr: 0x17F80, symBinAddr: 0x100019640, symSize: 0x20 }
  - { offset: 0x55DE6, size: 0x8, addend: 0x0, symName: __ZNKSt3__16vectorIPKN7doctest6detail20IExceptionTranslatorENS_9allocatorIS5_EEE14__annotate_newB8ne180100Em, symObjAddr: 0x17FE0, symBinAddr: 0x1000196A0, symSize: 0x10 }
  - { offset: 0x55E38, size: 0x8, addend: 0x0, symName: __ZNKSt3__111__move_loopINS_17_ClassicAlgPolicyEEclB8ne180100INS_16reverse_iteratorIPPKN7doctest6detail20IExceptionTranslatorEEESB_SB_EENS_4pairIT_T1_EESD_T0_SE_, symObjAddr: 0x18400, symBinAddr: 0x100019AC0, symSize: 0xA0 }
  - { offset: 0x55EA6, size: 0x8, addend: 0x0, symName: __ZNSt3__119__unwrap_range_implINS_16reverse_iteratorIPPKN7doctest6detail20IExceptionTranslatorEEES8_E8__unwrapB8ne180100ES8_S8_, symObjAddr: 0x185E0, symBinAddr: 0x100019CA0, symSize: 0x90 }
  - { offset: 0x55EDF, size: 0x8, addend: 0x0, symName: __ZNSt3__14pairINS_16reverse_iteratorIPPKN7doctest6detail20IExceptionTranslatorEEES8_EC1B8ne180100IS8_S8_Li0EEEOT_OT0_, symObjAddr: 0x18670, symBinAddr: 0x100019D30, symSize: 0x30 }
  - { offset: 0x55F40, size: 0x8, addend: 0x0, symName: __ZNSt3__14pairINS_16reverse_iteratorIPPKN7doctest6detail20IExceptionTranslatorEEES8_EC2B8ne180100IS8_S8_Li0EEEOT_OT0_, symObjAddr: 0x186A0, symBinAddr: 0x100019D60, symSize: 0x40 }
  - { offset: 0x55FA7, size: 0x8, addend: 0x0, symName: __ZNSt3__18_IterOpsINS_17_ClassicAlgPolicyEE11__iter_moveB8ne180100IRNS_16reverse_iteratorIPPKN7doctest6detail20IExceptionTranslatorEEELi0EEEDTclsr3stdE4movedeclsr3stdE7declvalIRT_EEEEOSD_, symObjAddr: 0x18720, symBinAddr: 0x100019DE0, symSize: 0x20 }
  - { offset: 0x55FDB, size: 0x8, addend: 0x0, symName: __ZNKSt3__116reverse_iteratorIPPKN7doctest6detail20IExceptionTranslatorEEdeB8ne180100Ev, symObjAddr: 0x18740, symBinAddr: 0x100019E00, symSize: 0x30 }
  - { offset: 0x56010, size: 0x8, addend: 0x0, symName: __ZNSt3__116reverse_iteratorIPPKN7doctest6detail20IExceptionTranslatorEEppB8ne180100Ev, symObjAddr: 0x18770, symBinAddr: 0x100019E30, symSize: 0x20 }
  - { offset: 0x56036, size: 0x8, addend: 0x0, symName: __ZNSt3__18_IterOpsINS_17_ClassicAlgPolicyEE25__validate_iter_referenceB8ne180100IRNS_16reverse_iteratorIPPKN7doctest6detail20IExceptionTranslatorEEEEEvv, symObjAddr: 0x18790, symBinAddr: 0x100019E50, symSize: 0x10 }
  - { offset: 0x56054, size: 0x8, addend: 0x0, symName: __ZNSt3__118__unwrap_iter_implINS_16reverse_iteratorIPPKN7doctest6detail20IExceptionTranslatorEEELb0EE8__unwrapB8ne180100ES8_, symObjAddr: 0x187A0, symBinAddr: 0x100019E60, symSize: 0x20 }
  - { offset: 0x56078, size: 0x8, addend: 0x0, symName: __ZNSt3__119__unwrap_range_implINS_16reverse_iteratorIPPKN7doctest6detail20IExceptionTranslatorEEES8_E8__rewrapB8ne180100ES8_S8_, symObjAddr: 0x187C0, symBinAddr: 0x100019E80, symSize: 0x60 }
  - { offset: 0x560AB, size: 0x8, addend: 0x0, symName: __ZNSt3__118__unwrap_iter_implINS_16reverse_iteratorIPPKN7doctest6detail20IExceptionTranslatorEEELb0EE8__rewrapB8ne180100ES8_S8_, symObjAddr: 0x18820, symBinAddr: 0x100019EE0, symSize: 0x30 }
  - { offset: 0x560DA, size: 0x8, addend: 0x0, symName: __ZNSt3__116reverse_iteratorIPPKN7doctest6detail20IExceptionTranslatorEEC2B8ne180100ES6_, symObjAddr: 0x18850, symBinAddr: 0x100019F10, symSize: 0x30 }
  - { offset: 0x56113, size: 0x8, addend: 0x0, symName: __ZNSt3__114__split_bufferIPKN7doctest6detail20IExceptionTranslatorERNS_9allocatorIS5_EEED2Ev, symObjAddr: 0x18880, symBinAddr: 0x100019F40, symSize: 0x70 }
  - { offset: 0x5613F, size: 0x8, addend: 0x0, symName: __ZNSt3__114__split_bufferIPKN7doctest6detail20IExceptionTranslatorERNS_9allocatorIS5_EEE5clearB8ne180100Ev, symObjAddr: 0x188F0, symBinAddr: 0x100019FB0, symSize: 0x20 }
  - { offset: 0x56165, size: 0x8, addend: 0x0, symName: __ZNKSt3__114__split_bufferIPKN7doctest6detail20IExceptionTranslatorERNS_9allocatorIS5_EEE8capacityB8ne180100Ev, symObjAddr: 0x18910, symBinAddr: 0x100019FD0, symSize: 0x30 }
  - { offset: 0x5618B, size: 0x8, addend: 0x0, symName: __ZNSt3__114__split_bufferIPKN7doctest6detail20IExceptionTranslatorERNS_9allocatorIS5_EEE17__destruct_at_endB8ne180100EPS5_, symObjAddr: 0x18940, symBinAddr: 0x10001A000, symSize: 0x30 }
  - { offset: 0x561C0, size: 0x8, addend: 0x0, symName: __ZNSt3__114__split_bufferIPKN7doctest6detail20IExceptionTranslatorERNS_9allocatorIS5_EEE17__destruct_at_endB8ne180100EPS5_NS_17integral_constantIbLb0EEE, symObjAddr: 0x18970, symBinAddr: 0x10001A030, symSize: 0x80 }
  - { offset: 0x56202, size: 0x8, addend: 0x0, symName: __ZNKSt3__114__split_bufferIPKN7doctest6detail20IExceptionTranslatorERNS_9allocatorIS5_EEE9__end_capB8ne180100Ev, symObjAddr: 0x189F0, symBinAddr: 0x10001A0B0, symSize: 0x20 }
  - { offset: 0x56228, size: 0x8, addend: 0x0, symName: __ZNKSt3__117__compressed_pairIPPKN7doctest6detail20IExceptionTranslatorERNS_9allocatorIS5_EEE5firstB8ne180100Ev, symObjAddr: 0x18A10, symBinAddr: 0x10001A0D0, symSize: 0x20 }
  - { offset: 0x5624E, size: 0x8, addend: 0x0, symName: __ZNSt3__16vectorIPN7doctest13IContextScopeENS_9allocatorIS3_EEED2B8ne180100Ev, symObjAddr: 0x18A30, symBinAddr: 0x10001A0F0, symSize: 0x40 }
  - { offset: 0x56278, size: 0x8, addend: 0x0, symName: __ZNSt3__16vectorIPN7doctest13IContextScopeENS_9allocatorIS3_EEE16__destroy_vectorC1B8ne180100ERS6_, symObjAddr: 0x18A70, symBinAddr: 0x10001A130, symSize: 0x30 }
  - { offset: 0x562B1, size: 0x8, addend: 0x0, symName: __ZNSt3__16vectorIPN7doctest13IContextScopeENS_9allocatorIS3_EEE16__destroy_vectorclB8ne180100Ev, symObjAddr: 0x18AA0, symBinAddr: 0x10001A160, symSize: 0x80 }
  - { offset: 0x562D7, size: 0x8, addend: 0x0, symName: __ZNSt3__16vectorIPN7doctest13IContextScopeENS_9allocatorIS3_EEE16__destroy_vectorC2B8ne180100ERS6_, symObjAddr: 0x18B20, symBinAddr: 0x10001A1E0, symSize: 0x20 }
  - { offset: 0x56310, size: 0x8, addend: 0x0, symName: __ZNSt3__16vectorIPN7doctest13IContextScopeENS_9allocatorIS3_EEE7__clearB8ne180100Ev, symObjAddr: 0x18B40, symBinAddr: 0x10001A200, symSize: 0x20 }
  - { offset: 0x56336, size: 0x8, addend: 0x0, symName: __ZNKSt3__16vectorIPN7doctest13IContextScopeENS_9allocatorIS3_EEE17__annotate_deleteB8ne180100Ev, symObjAddr: 0x18B60, symBinAddr: 0x10001A220, symSize: 0x10 }
  - { offset: 0x5635C, size: 0x8, addend: 0x0, symName: __ZNSt3__116allocator_traitsINS_9allocatorIPN7doctest13IContextScopeEEEE10deallocateB8ne180100ERS5_PS4_m, symObjAddr: 0x18B70, symBinAddr: 0x10001A230, symSize: 0x30 }
  - { offset: 0x5639E, size: 0x8, addend: 0x0, symName: __ZNSt3__16vectorIPN7doctest13IContextScopeENS_9allocatorIS3_EEE7__allocB8ne180100Ev, symObjAddr: 0x18BA0, symBinAddr: 0x10001A260, symSize: 0x20 }
  - { offset: 0x563C4, size: 0x8, addend: 0x0, symName: __ZNKSt3__16vectorIPN7doctest13IContextScopeENS_9allocatorIS3_EEE8capacityB8ne180100Ev, symObjAddr: 0x18BC0, symBinAddr: 0x10001A280, symSize: 0x30 }
  - { offset: 0x563EA, size: 0x8, addend: 0x0, symName: __ZNSt3__16vectorIPN7doctest13IContextScopeENS_9allocatorIS3_EEE22__base_destruct_at_endB8ne180100EPS3_, symObjAddr: 0x18BF0, symBinAddr: 0x10001A2B0, symSize: 0x80 }
  - { offset: 0x5642E, size: 0x8, addend: 0x0, symName: __ZNSt3__116allocator_traitsINS_9allocatorIPN7doctest13IContextScopeEEEE7destroyB8ne180100IS4_vvEEvRS5_PT_, symObjAddr: 0x18C70, symBinAddr: 0x10001A330, symSize: 0x20 }
  - { offset: 0x56468, size: 0x8, addend: 0x0, symName: __ZNSt3__19allocatorIPN7doctest13IContextScopeEE10deallocateB8ne180100EPS3_m, symObjAddr: 0x18CB0, symBinAddr: 0x10001A370, symSize: 0x40 }
  - { offset: 0x564AC, size: 0x8, addend: 0x0, symName: __ZNSt3__117__compressed_pairIPPN7doctest13IContextScopeENS_9allocatorIS3_EEE6secondB8ne180100Ev, symObjAddr: 0x18CF0, symBinAddr: 0x10001A3B0, symSize: 0x20 }
  - { offset: 0x564D2, size: 0x8, addend: 0x0, symName: __ZNSt3__122__compressed_pair_elemINS_9allocatorIPN7doctest13IContextScopeEEELi1ELb1EE5__getB8ne180100Ev, symObjAddr: 0x18D10, symBinAddr: 0x10001A3D0, symSize: 0x10 }
  - { offset: 0x564F8, size: 0x8, addend: 0x0, symName: __ZNKSt3__16vectorIPN7doctest13IContextScopeENS_9allocatorIS3_EEE9__end_capB8ne180100Ev, symObjAddr: 0x18D20, symBinAddr: 0x10001A3E0, symSize: 0x20 }
  - { offset: 0x5651E, size: 0x8, addend: 0x0, symName: __ZNKSt3__117__compressed_pairIPPN7doctest13IContextScopeENS_9allocatorIS3_EEE5firstB8ne180100Ev, symObjAddr: 0x18D40, symBinAddr: 0x10001A400, symSize: 0x20 }
  - { offset: 0x56544, size: 0x8, addend: 0x0, symName: __ZNKSt3__122__compressed_pair_elemIPPN7doctest13IContextScopeELi0ELb0EE5__getB8ne180100Ev, symObjAddr: 0x18D60, symBinAddr: 0x10001A420, symSize: 0x10 }
  - { offset: 0x5656A, size: 0x8, addend: 0x0, symName: __ZNSt3__16vectorIPN7doctest13IContextScopeENS_9allocatorIS3_EEE9__end_capB8ne180100Ev, symObjAddr: 0x18D70, symBinAddr: 0x10001A430, symSize: 0x20 }
  - { offset: 0x56596, size: 0x8, addend: 0x0, symName: __ZNSt3__16vectorIPN7doctest13IContextScopeENS_9allocatorIS3_EEE22__construct_one_at_endB8ne180100IJS3_EEEvDpOT_, symObjAddr: 0x18D90, symBinAddr: 0x10001A450, symSize: 0x90 }
  - { offset: 0x565E5, size: 0x8, addend: 0x0, symName: __ZNSt3__16vectorIPN7doctest13IContextScopeENS_9allocatorIS3_EEE21__push_back_slow_pathIS3_EEPS3_OT_, symObjAddr: 0x18E20, symBinAddr: 0x10001A4E0, symSize: 0xE0 }
  - { offset: 0x56643, size: 0x8, addend: 0x0, symName: __ZNSt3__117__compressed_pairIPPN7doctest13IContextScopeENS_9allocatorIS3_EEE5firstB8ne180100Ev, symObjAddr: 0x18F00, symBinAddr: 0x10001A5C0, symSize: 0x20 }
  - { offset: 0x56669, size: 0x8, addend: 0x0, symName: __ZNSt3__122__compressed_pair_elemIPPN7doctest13IContextScopeELi0ELb0EE5__getB8ne180100Ev, symObjAddr: 0x18F20, symBinAddr: 0x10001A5E0, symSize: 0x10 }
  - { offset: 0x566AB, size: 0x8, addend: 0x0, symName: __ZNSt3__16vectorIPN7doctest13IContextScopeENS_9allocatorIS3_EEE21_ConstructTransactionC1B8ne180100ERS6_m, symObjAddr: 0x18F30, symBinAddr: 0x10001A5F0, symSize: 0x30 }
  - { offset: 0x566F3, size: 0x8, addend: 0x0, symName: __ZNSt3__116allocator_traitsINS_9allocatorIPN7doctest13IContextScopeEEEE9constructB8ne180100IS4_JS4_EvvEEvRS5_PT_DpOT0_, symObjAddr: 0x18F60, symBinAddr: 0x10001A620, symSize: 0x30 }
  - { offset: 0x56747, size: 0x8, addend: 0x0, symName: __ZNSt3__16vectorIPN7doctest13IContextScopeENS_9allocatorIS3_EEE21_ConstructTransactionD1B8ne180100Ev, symObjAddr: 0x18F90, symBinAddr: 0x10001A650, symSize: 0x20 }
  - { offset: 0x56771, size: 0x8, addend: 0x0, symName: __ZNSt3__16vectorIPN7doctest13IContextScopeENS_9allocatorIS3_EEE21_ConstructTransactionC2B8ne180100ERS6_m, symObjAddr: 0x18FB0, symBinAddr: 0x10001A670, symSize: 0x40 }
  - { offset: 0x567B9, size: 0x8, addend: 0x0, symName: __ZNSt3__16vectorIPN7doctest13IContextScopeENS_9allocatorIS3_EEE21_ConstructTransactionD2B8ne180100Ev, symObjAddr: 0x19040, symBinAddr: 0x10001A700, symSize: 0x20 }
  - { offset: 0x567E3, size: 0x8, addend: 0x0, symName: __ZNKSt3__16vectorIPN7doctest13IContextScopeENS_9allocatorIS3_EEE11__recommendB8ne180100Em, symObjAddr: 0x19060, symBinAddr: 0x10001A720, symSize: 0x90 }
  - { offset: 0x56838, size: 0x8, addend: 0x0, symName: __ZNSt3__114__split_bufferIPN7doctest13IContextScopeERNS_9allocatorIS3_EEEC1EmmS6_, symObjAddr: 0x190F0, symBinAddr: 0x10001A7B0, symSize: 0x40 }
  - { offset: 0x56891, size: 0x8, addend: 0x0, symName: __ZNSt3__114__split_bufferIPN7doctest13IContextScopeERNS_9allocatorIS3_EEED1Ev, symObjAddr: 0x19250, symBinAddr: 0x10001A910, symSize: 0x20 }
  - { offset: 0x568BD, size: 0x8, addend: 0x0, symName: __ZNKSt3__16vectorIPN7doctest13IContextScopeENS_9allocatorIS3_EEE8max_sizeEv, symObjAddr: 0x19270, symBinAddr: 0x10001A930, symSize: 0x60 }
  - { offset: 0x568E5, size: 0x8, addend: 0x0, symName: __ZNKSt3__16vectorIPN7doctest13IContextScopeENS_9allocatorIS3_EEE20__throw_length_errorB8ne180100Ev, symObjAddr: 0x192D0, symBinAddr: 0x10001A990, symSize: 0x20 }
  - { offset: 0x56916, size: 0x8, addend: 0x0, symName: __ZNSt3__116allocator_traitsINS_9allocatorIPN7doctest13IContextScopeEEEE8max_sizeB8ne180100IS5_vvEEmRKS5_, symObjAddr: 0x192F0, symBinAddr: 0x10001A9B0, symSize: 0x20 }
  - { offset: 0x56941, size: 0x8, addend: 0x0, symName: __ZNKSt3__16vectorIPN7doctest13IContextScopeENS_9allocatorIS3_EEE7__allocB8ne180100Ev, symObjAddr: 0x19310, symBinAddr: 0x10001A9D0, symSize: 0x20 }
  - { offset: 0x56967, size: 0x8, addend: 0x0, symName: __ZNKSt3__117__compressed_pairIPPN7doctest13IContextScopeENS_9allocatorIS3_EEE6secondB8ne180100Ev, symObjAddr: 0x19330, symBinAddr: 0x10001A9F0, symSize: 0x20 }
  - { offset: 0x5698D, size: 0x8, addend: 0x0, symName: __ZNKSt3__122__compressed_pair_elemINS_9allocatorIPN7doctest13IContextScopeEEELi1ELb1EE5__getB8ne180100Ev, symObjAddr: 0x19350, symBinAddr: 0x10001AA10, symSize: 0x10 }
  - { offset: 0x569B3, size: 0x8, addend: 0x0, symName: __ZNSt3__114__split_bufferIPN7doctest13IContextScopeERNS_9allocatorIS3_EEEC2EmmS6_, symObjAddr: 0x19360, symBinAddr: 0x10001AA20, symSize: 0xD0 }
  - { offset: 0x56A29, size: 0x8, addend: 0x0, symName: __ZNSt3__117__compressed_pairIPPN7doctest13IContextScopeERNS_9allocatorIS3_EEEC1B8ne180100IDnS7_EEOT_OT0_, symObjAddr: 0x19430, symBinAddr: 0x10001AAF0, symSize: 0x30 }
  - { offset: 0x56A83, size: 0x8, addend: 0x0, symName: __ZNSt3__114__split_bufferIPN7doctest13IContextScopeERNS_9allocatorIS3_EEE7__allocB8ne180100Ev, symObjAddr: 0x194A0, symBinAddr: 0x10001AB60, symSize: 0x20 }
  - { offset: 0x56AA9, size: 0x8, addend: 0x0, symName: __ZNSt3__114__split_bufferIPN7doctest13IContextScopeERNS_9allocatorIS3_EEE9__end_capB8ne180100Ev, symObjAddr: 0x194C0, symBinAddr: 0x10001AB80, symSize: 0x20 }
  - { offset: 0x56ACF, size: 0x8, addend: 0x0, symName: __ZNSt3__117__compressed_pairIPPN7doctest13IContextScopeERNS_9allocatorIS3_EEEC2B8ne180100IDnS7_EEOT_OT0_, symObjAddr: 0x194E0, symBinAddr: 0x10001ABA0, symSize: 0x40 }
  - { offset: 0x56B29, size: 0x8, addend: 0x0, symName: __ZNSt3__122__compressed_pair_elemIPPN7doctest13IContextScopeELi0ELb0EEC2B8ne180100IDnvEEOT_, symObjAddr: 0x19520, symBinAddr: 0x10001ABE0, symSize: 0x20 }
  - { offset: 0x56B6C, size: 0x8, addend: 0x0, symName: __ZNSt3__122__compressed_pair_elemIRNS_9allocatorIPN7doctest13IContextScopeEEELi1ELb0EEC2B8ne180100IS6_vEEOT_, symObjAddr: 0x19540, symBinAddr: 0x10001AC00, symSize: 0x20 }
  - { offset: 0x56BAF, size: 0x8, addend: 0x0, symName: __ZNSt3__19allocatorIPN7doctest13IContextScopeEE8allocateB8ne180100Em, symObjAddr: 0x19560, symBinAddr: 0x10001AC20, symSize: 0x50 }
  - { offset: 0x56BE4, size: 0x8, addend: 0x0, symName: __ZNSt3__117__compressed_pairIPPN7doctest13IContextScopeERNS_9allocatorIS3_EEE6secondB8ne180100Ev, symObjAddr: 0x195B0, symBinAddr: 0x10001AC70, symSize: 0x20 }
  - { offset: 0x56C0A, size: 0x8, addend: 0x0, symName: __ZNSt3__122__compressed_pair_elemIRNS_9allocatorIPN7doctest13IContextScopeEEELi1ELb0EE5__getB8ne180100Ev, symObjAddr: 0x195D0, symBinAddr: 0x10001AC90, symSize: 0x20 }
  - { offset: 0x56C30, size: 0x8, addend: 0x0, symName: __ZNSt3__117__compressed_pairIPPN7doctest13IContextScopeERNS_9allocatorIS3_EEE5firstB8ne180100Ev, symObjAddr: 0x195F0, symBinAddr: 0x10001ACB0, symSize: 0x20 }
  - { offset: 0x56C56, size: 0x8, addend: 0x0, symName: __ZNSt3__116reverse_iteratorIPPN7doctest13IContextScopeEEC1B8ne180100ES4_, symObjAddr: 0x19680, symBinAddr: 0x10001AD40, symSize: 0x30 }
  - { offset: 0x56C8F, size: 0x8, addend: 0x0, symName: __ZNKSt3__116reverse_iteratorIPPN7doctest13IContextScopeEE4baseB8ne180100Ev, symObjAddr: 0x196B0, symBinAddr: 0x10001AD70, symSize: 0x20 }
  - { offset: 0x56CB5, size: 0x8, addend: 0x0, symName: __ZNKSt3__16vectorIPN7doctest13IContextScopeENS_9allocatorIS3_EEE14__annotate_newB8ne180100Em, symObjAddr: 0x19710, symBinAddr: 0x10001ADD0, symSize: 0x10 }
  - { offset: 0x56D07, size: 0x8, addend: 0x0, symName: __ZNKSt3__111__move_loopINS_17_ClassicAlgPolicyEEclB8ne180100INS_16reverse_iteratorIPPN7doctest13IContextScopeEEES9_S9_EENS_4pairIT_T1_EESB_T0_SC_, symObjAddr: 0x19B30, symBinAddr: 0x10001B1F0, symSize: 0xA0 }
  - { offset: 0x56D75, size: 0x8, addend: 0x0, symName: __ZNSt3__119__unwrap_range_implINS_16reverse_iteratorIPPN7doctest13IContextScopeEEES6_E8__unwrapB8ne180100ES6_S6_, symObjAddr: 0x19D10, symBinAddr: 0x10001B3D0, symSize: 0x90 }
  - { offset: 0x56DAE, size: 0x8, addend: 0x0, symName: __ZNSt3__14pairINS_16reverse_iteratorIPPN7doctest13IContextScopeEEES6_EC1B8ne180100IS6_S6_Li0EEEOT_OT0_, symObjAddr: 0x19DA0, symBinAddr: 0x10001B460, symSize: 0x30 }
  - { offset: 0x56E0F, size: 0x8, addend: 0x0, symName: __ZNSt3__14pairINS_16reverse_iteratorIPPN7doctest13IContextScopeEEES6_EC2B8ne180100IS6_S6_Li0EEEOT_OT0_, symObjAddr: 0x19DD0, symBinAddr: 0x10001B490, symSize: 0x40 }
  - { offset: 0x56E76, size: 0x8, addend: 0x0, symName: __ZNSt3__18_IterOpsINS_17_ClassicAlgPolicyEE11__iter_moveB8ne180100IRNS_16reverse_iteratorIPPN7doctest13IContextScopeEEELi0EEEDTclsr3stdE4movedeclsr3stdE7declvalIRT_EEEEOSB_, symObjAddr: 0x19E50, symBinAddr: 0x10001B510, symSize: 0x20 }
  - { offset: 0x56EAA, size: 0x8, addend: 0x0, symName: __ZNKSt3__116reverse_iteratorIPPN7doctest13IContextScopeEEdeB8ne180100Ev, symObjAddr: 0x19E70, symBinAddr: 0x10001B530, symSize: 0x30 }
  - { offset: 0x56EDF, size: 0x8, addend: 0x0, symName: __ZNSt3__116reverse_iteratorIPPN7doctest13IContextScopeEEppB8ne180100Ev, symObjAddr: 0x19EA0, symBinAddr: 0x10001B560, symSize: 0x20 }
  - { offset: 0x56F05, size: 0x8, addend: 0x0, symName: __ZNSt3__18_IterOpsINS_17_ClassicAlgPolicyEE25__validate_iter_referenceB8ne180100IRNS_16reverse_iteratorIPPN7doctest13IContextScopeEEEEEvv, symObjAddr: 0x19EC0, symBinAddr: 0x10001B580, symSize: 0x10 }
  - { offset: 0x56F23, size: 0x8, addend: 0x0, symName: __ZNSt3__118__unwrap_iter_implINS_16reverse_iteratorIPPN7doctest13IContextScopeEEELb0EE8__unwrapB8ne180100ES6_, symObjAddr: 0x19ED0, symBinAddr: 0x10001B590, symSize: 0x20 }
  - { offset: 0x56F47, size: 0x8, addend: 0x0, symName: __ZNSt3__119__unwrap_range_implINS_16reverse_iteratorIPPN7doctest13IContextScopeEEES6_E8__rewrapB8ne180100ES6_S6_, symObjAddr: 0x19EF0, symBinAddr: 0x10001B5B0, symSize: 0x60 }
  - { offset: 0x56F7A, size: 0x8, addend: 0x0, symName: __ZNSt3__118__unwrap_iter_implINS_16reverse_iteratorIPPN7doctest13IContextScopeEEELb0EE8__rewrapB8ne180100ES6_S6_, symObjAddr: 0x19F50, symBinAddr: 0x10001B610, symSize: 0x30 }
  - { offset: 0x56FA9, size: 0x8, addend: 0x0, symName: __ZNSt3__116reverse_iteratorIPPN7doctest13IContextScopeEEC2B8ne180100ES4_, symObjAddr: 0x19F80, symBinAddr: 0x10001B640, symSize: 0x30 }
  - { offset: 0x56FE2, size: 0x8, addend: 0x0, symName: __ZNSt3__114__split_bufferIPN7doctest13IContextScopeERNS_9allocatorIS3_EEED2Ev, symObjAddr: 0x19FB0, symBinAddr: 0x10001B670, symSize: 0x70 }
  - { offset: 0x5700E, size: 0x8, addend: 0x0, symName: __ZNSt3__114__split_bufferIPN7doctest13IContextScopeERNS_9allocatorIS3_EEE5clearB8ne180100Ev, symObjAddr: 0x1A020, symBinAddr: 0x10001B6E0, symSize: 0x20 }
  - { offset: 0x57034, size: 0x8, addend: 0x0, symName: __ZNKSt3__114__split_bufferIPN7doctest13IContextScopeERNS_9allocatorIS3_EEE8capacityB8ne180100Ev, symObjAddr: 0x1A040, symBinAddr: 0x10001B700, symSize: 0x30 }
  - { offset: 0x5705A, size: 0x8, addend: 0x0, symName: __ZNSt3__114__split_bufferIPN7doctest13IContextScopeERNS_9allocatorIS3_EEE17__destruct_at_endB8ne180100EPS3_, symObjAddr: 0x1A070, symBinAddr: 0x10001B730, symSize: 0x30 }
  - { offset: 0x5708F, size: 0x8, addend: 0x0, symName: __ZNSt3__114__split_bufferIPN7doctest13IContextScopeERNS_9allocatorIS3_EEE17__destruct_at_endB8ne180100EPS3_NS_17integral_constantIbLb0EEE, symObjAddr: 0x1A0A0, symBinAddr: 0x10001B760, symSize: 0x80 }
  - { offset: 0x570D1, size: 0x8, addend: 0x0, symName: __ZNKSt3__114__split_bufferIPN7doctest13IContextScopeERNS_9allocatorIS3_EEE9__end_capB8ne180100Ev, symObjAddr: 0x1A120, symBinAddr: 0x10001B7E0, symSize: 0x20 }
  - { offset: 0x570F7, size: 0x8, addend: 0x0, symName: __ZNKSt3__117__compressed_pairIPPN7doctest13IContextScopeERNS_9allocatorIS3_EEE5firstB8ne180100Ev, symObjAddr: 0x1A140, symBinAddr: 0x10001B800, symSize: 0x20 }
  - { offset: 0x5711D, size: 0x8, addend: 0x0, symName: __ZNSt3__16vectorIN7doctest6StringENS_9allocatorIS2_EEE9__end_capB8ne180100Ev, symObjAddr: 0x1A160, symBinAddr: 0x10001B820, symSize: 0x20 }
  - { offset: 0x57143, size: 0x8, addend: 0x0, symName: __ZNSt3__16vectorIN7doctest6StringENS_9allocatorIS2_EEE22__construct_one_at_endB8ne180100IJS2_EEEvDpOT_, symObjAddr: 0x1A180, symBinAddr: 0x10001B840, symSize: 0x90 }
  - { offset: 0x57192, size: 0x8, addend: 0x0, symName: __ZNSt3__16vectorIN7doctest6StringENS_9allocatorIS2_EEE21__push_back_slow_pathIS2_EEPS2_OT_, symObjAddr: 0x1A210, symBinAddr: 0x10001B8D0, symSize: 0xE0 }
  - { offset: 0x571F0, size: 0x8, addend: 0x0, symName: __ZNSt3__117__compressed_pairIPN7doctest6StringENS_9allocatorIS2_EEE5firstB8ne180100Ev, symObjAddr: 0x1A2F0, symBinAddr: 0x10001B9B0, symSize: 0x20 }
  - { offset: 0x57216, size: 0x8, addend: 0x0, symName: __ZNSt3__122__compressed_pair_elemIPN7doctest6StringELi0ELb0EE5__getB8ne180100Ev, symObjAddr: 0x1A310, symBinAddr: 0x10001B9D0, symSize: 0x10 }
  - { offset: 0x57258, size: 0x8, addend: 0x0, symName: __ZNSt3__16vectorIN7doctest6StringENS_9allocatorIS2_EEE21_ConstructTransactionC1B8ne180100ERS5_m, symObjAddr: 0x1A320, symBinAddr: 0x10001B9E0, symSize: 0x30 }
  - { offset: 0x572A0, size: 0x8, addend: 0x0, symName: __ZNSt3__116allocator_traitsINS_9allocatorIN7doctest6StringEEEE9constructB8ne180100IS3_JS3_EvvEEvRS4_PT_DpOT0_, symObjAddr: 0x1A350, symBinAddr: 0x10001BA10, symSize: 0x30 }
  - { offset: 0x572F4, size: 0x8, addend: 0x0, symName: __ZNSt3__16vectorIN7doctest6StringENS_9allocatorIS2_EEE7__allocB8ne180100Ev, symObjAddr: 0x1A380, symBinAddr: 0x10001BA40, symSize: 0x20 }
  - { offset: 0x5731A, size: 0x8, addend: 0x0, symName: __ZNSt3__16vectorIN7doctest6StringENS_9allocatorIS2_EEE21_ConstructTransactionD1B8ne180100Ev, symObjAddr: 0x1A3B0, symBinAddr: 0x10001BA70, symSize: 0x20 }
  - { offset: 0x57344, size: 0x8, addend: 0x0, symName: __ZNSt3__16vectorIN7doctest6StringENS_9allocatorIS2_EEE21_ConstructTransactionC2B8ne180100ERS5_m, symObjAddr: 0x1A3D0, symBinAddr: 0x10001BA90, symSize: 0x40 }
  - { offset: 0x5738C, size: 0x8, addend: 0x0, symName: __ZNSt3__117__compressed_pairIPN7doctest6StringENS_9allocatorIS2_EEE6secondB8ne180100Ev, symObjAddr: 0x1A470, symBinAddr: 0x10001BB30, symSize: 0x20 }
  - { offset: 0x573B2, size: 0x8, addend: 0x0, symName: __ZNSt3__122__compressed_pair_elemINS_9allocatorIN7doctest6StringEEELi1ELb1EE5__getB8ne180100Ev, symObjAddr: 0x1A490, symBinAddr: 0x10001BB50, symSize: 0x10 }
  - { offset: 0x573D8, size: 0x8, addend: 0x0, symName: __ZNSt3__16vectorIN7doctest6StringENS_9allocatorIS2_EEE21_ConstructTransactionD2B8ne180100Ev, symObjAddr: 0x1A4A0, symBinAddr: 0x10001BB60, symSize: 0x20 }
  - { offset: 0x57402, size: 0x8, addend: 0x0, symName: __ZNKSt3__16vectorIN7doctest6StringENS_9allocatorIS2_EEE11__recommendB8ne180100Em, symObjAddr: 0x1A4C0, symBinAddr: 0x10001BB80, symSize: 0x90 }
  - { offset: 0x57457, size: 0x8, addend: 0x0, symName: __ZNSt3__114__split_bufferIN7doctest6StringERNS_9allocatorIS2_EEEC1EmmS5_, symObjAddr: 0x1A550, symBinAddr: 0x10001BC10, symSize: 0x40 }
  - { offset: 0x574B0, size: 0x8, addend: 0x0, symName: __ZNSt3__114__split_bufferIN7doctest6StringERNS_9allocatorIS2_EEED1Ev, symObjAddr: 0x1A6B0, symBinAddr: 0x10001BD70, symSize: 0x20 }
  - { offset: 0x574DC, size: 0x8, addend: 0x0, symName: __ZNKSt3__16vectorIN7doctest6StringENS_9allocatorIS2_EEE8max_sizeEv, symObjAddr: 0x1A6D0, symBinAddr: 0x10001BD90, symSize: 0x60 }
  - { offset: 0x57504, size: 0x8, addend: 0x0, symName: __ZNKSt3__16vectorIN7doctest6StringENS_9allocatorIS2_EEE20__throw_length_errorB8ne180100Ev, symObjAddr: 0x1A730, symBinAddr: 0x10001BDF0, symSize: 0x20 }
  - { offset: 0x5752A, size: 0x8, addend: 0x0, symName: __ZNKSt3__16vectorIN7doctest6StringENS_9allocatorIS2_EEE8capacityB8ne180100Ev, symObjAddr: 0x1A750, symBinAddr: 0x10001BE10, symSize: 0x40 }
  - { offset: 0x5755B, size: 0x8, addend: 0x0, symName: __ZNSt3__116allocator_traitsINS_9allocatorIN7doctest6StringEEEE8max_sizeB8ne180100IS4_vvEEmRKS4_, symObjAddr: 0x1A790, symBinAddr: 0x10001BE50, symSize: 0x30 }
  - { offset: 0x57586, size: 0x8, addend: 0x0, symName: __ZNKSt3__16vectorIN7doctest6StringENS_9allocatorIS2_EEE7__allocB8ne180100Ev, symObjAddr: 0x1A7C0, symBinAddr: 0x10001BE80, symSize: 0x20 }
  - { offset: 0x575AC, size: 0x8, addend: 0x0, symName: __ZNKSt3__117__compressed_pairIPN7doctest6StringENS_9allocatorIS2_EEE6secondB8ne180100Ev, symObjAddr: 0x1A7E0, symBinAddr: 0x10001BEA0, symSize: 0x20 }
  - { offset: 0x575D2, size: 0x8, addend: 0x0, symName: __ZNKSt3__122__compressed_pair_elemINS_9allocatorIN7doctest6StringEEELi1ELb1EE5__getB8ne180100Ev, symObjAddr: 0x1A800, symBinAddr: 0x10001BEC0, symSize: 0x10 }
  - { offset: 0x575F8, size: 0x8, addend: 0x0, symName: __ZNKSt3__16vectorIN7doctest6StringENS_9allocatorIS2_EEE9__end_capB8ne180100Ev, symObjAddr: 0x1A810, symBinAddr: 0x10001BED0, symSize: 0x20 }
  - { offset: 0x5761E, size: 0x8, addend: 0x0, symName: __ZNKSt3__117__compressed_pairIPN7doctest6StringENS_9allocatorIS2_EEE5firstB8ne180100Ev, symObjAddr: 0x1A830, symBinAddr: 0x10001BEF0, symSize: 0x20 }
  - { offset: 0x57644, size: 0x8, addend: 0x0, symName: __ZNKSt3__122__compressed_pair_elemIPN7doctest6StringELi0ELb0EE5__getB8ne180100Ev, symObjAddr: 0x1A850, symBinAddr: 0x10001BF10, symSize: 0x10 }
  - { offset: 0x5766A, size: 0x8, addend: 0x0, symName: __ZNSt3__114__split_bufferIN7doctest6StringERNS_9allocatorIS2_EEEC2EmmS5_, symObjAddr: 0x1A860, symBinAddr: 0x10001BF20, symSize: 0xC0 }
  - { offset: 0x576E0, size: 0x8, addend: 0x0, symName: __ZNSt3__117__compressed_pairIPN7doctest6StringERNS_9allocatorIS2_EEEC1B8ne180100IDnS6_EEOT_OT0_, symObjAddr: 0x1A920, symBinAddr: 0x10001BFE0, symSize: 0x30 }
  - { offset: 0x5773A, size: 0x8, addend: 0x0, symName: __ZNSt3__114__split_bufferIN7doctest6StringERNS_9allocatorIS2_EEE7__allocB8ne180100Ev, symObjAddr: 0x1A990, symBinAddr: 0x10001C050, symSize: 0x20 }
  - { offset: 0x57760, size: 0x8, addend: 0x0, symName: __ZNSt3__114__split_bufferIN7doctest6StringERNS_9allocatorIS2_EEE9__end_capB8ne180100Ev, symObjAddr: 0x1A9B0, symBinAddr: 0x10001C070, symSize: 0x20 }
  - { offset: 0x57786, size: 0x8, addend: 0x0, symName: __ZNSt3__117__compressed_pairIPN7doctest6StringERNS_9allocatorIS2_EEEC2B8ne180100IDnS6_EEOT_OT0_, symObjAddr: 0x1A9D0, symBinAddr: 0x10001C090, symSize: 0x40 }
  - { offset: 0x577E0, size: 0x8, addend: 0x0, symName: __ZNSt3__122__compressed_pair_elemIPN7doctest6StringELi0ELb0EEC2B8ne180100IDnvEEOT_, symObjAddr: 0x1AA10, symBinAddr: 0x10001C0D0, symSize: 0x20 }
  - { offset: 0x57823, size: 0x8, addend: 0x0, symName: __ZNSt3__122__compressed_pair_elemIRNS_9allocatorIN7doctest6StringEEELi1ELb0EEC2B8ne180100IS5_vEEOT_, symObjAddr: 0x1AA30, symBinAddr: 0x10001C0F0, symSize: 0x20 }
  - { offset: 0x57866, size: 0x8, addend: 0x0, symName: __ZNSt3__19allocatorIN7doctest6StringEE8allocateB8ne180100Em, symObjAddr: 0x1AA50, symBinAddr: 0x10001C110, symSize: 0x50 }
  - { offset: 0x5789B, size: 0x8, addend: 0x0, symName: __ZNSt3__117__compressed_pairIPN7doctest6StringERNS_9allocatorIS2_EEE6secondB8ne180100Ev, symObjAddr: 0x1AAA0, symBinAddr: 0x10001C160, symSize: 0x20 }
  - { offset: 0x578C1, size: 0x8, addend: 0x0, symName: __ZNSt3__122__compressed_pair_elemIRNS_9allocatorIN7doctest6StringEEELi1ELb0EE5__getB8ne180100Ev, symObjAddr: 0x1AAC0, symBinAddr: 0x10001C180, symSize: 0x20 }
  - { offset: 0x578E7, size: 0x8, addend: 0x0, symName: __ZNSt3__117__compressed_pairIPN7doctest6StringERNS_9allocatorIS2_EEE5firstB8ne180100Ev, symObjAddr: 0x1AAE0, symBinAddr: 0x10001C1A0, symSize: 0x20 }
  - { offset: 0x5790D, size: 0x8, addend: 0x0, symName: __ZNKSt3__16vectorIN7doctest6StringENS_9allocatorIS2_EEE17__annotate_deleteB8ne180100Ev, symObjAddr: 0x1AB00, symBinAddr: 0x10001C1C0, symSize: 0x10 }
  - { offset: 0x57933, size: 0x8, addend: 0x0, symName: __ZNSt3__116reverse_iteratorIPN7doctest6StringEEC1B8ne180100ES3_, symObjAddr: 0x1AC90, symBinAddr: 0x10001C350, symSize: 0x30 }
  - { offset: 0x5796C, size: 0x8, addend: 0x0, symName: __ZNKSt3__116reverse_iteratorIPN7doctest6StringEE4baseB8ne180100Ev, symObjAddr: 0x1ACC0, symBinAddr: 0x10001C380, symSize: 0x20 }
  - { offset: 0x57992, size: 0x8, addend: 0x0, symName: __ZNKSt3__16vectorIN7doctest6StringENS_9allocatorIS2_EEE14__annotate_newB8ne180100Em, symObjAddr: 0x1AD20, symBinAddr: 0x10001C3E0, symSize: 0x10 }
  - { offset: 0x579C7, size: 0x8, addend: 0x0, symName: __ZNSt3__129_AllocatorDestroyRangeReverseINS_9allocatorIN7doctest6StringEEENS_16reverse_iteratorIPS3_EEEC1B8ne180100ERS4_RS7_SA_, symObjAddr: 0x1AD90, symBinAddr: 0x10001C450, symSize: 0x40 }
  - { offset: 0x57A1E, size: 0x8, addend: 0x0, symName: __ZNKSt3__116reverse_iteratorIPN7doctest6StringEEdeB8ne180100Ev, symObjAddr: 0x1AE30, symBinAddr: 0x10001C4F0, symSize: 0x30 }
  - { offset: 0x57A53, size: 0x8, addend: 0x0, symName: __ZNSt3__116reverse_iteratorIPN7doctest6StringEEppB8ne180100Ev, symObjAddr: 0x1AE60, symBinAddr: 0x10001C520, symSize: 0x20 }
  - { offset: 0x57A79, size: 0x8, addend: 0x0, symName: __ZNSt3__128__exception_guard_exceptionsINS_29_AllocatorDestroyRangeReverseINS_9allocatorIN7doctest6StringEEENS_16reverse_iteratorIPS4_EEEEE10__completeB8ne180100Ev, symObjAddr: 0x1AE80, symBinAddr: 0x10001C540, symSize: 0x20 }
  - { offset: 0x57A9F, size: 0x8, addend: 0x0, symName: __ZNSt3__128__exception_guard_exceptionsINS_29_AllocatorDestroyRangeReverseINS_9allocatorIN7doctest6StringEEENS_16reverse_iteratorIPS4_EEEEED1B8ne180100Ev, symObjAddr: 0x1AEA0, symBinAddr: 0x10001C560, symSize: 0x20 }
  - { offset: 0x57AC9, size: 0x8, addend: 0x0, symName: __ZNSt3__128__exception_guard_exceptionsINS_29_AllocatorDestroyRangeReverseINS_9allocatorIN7doctest6StringEEENS_16reverse_iteratorIPS4_EEEEEC1B8ne180100ES9_, symObjAddr: 0x1AEC0, symBinAddr: 0x10001C580, symSize: 0x40 }
  - { offset: 0x57B02, size: 0x8, addend: 0x0, symName: __ZNSt3__128__exception_guard_exceptionsINS_29_AllocatorDestroyRangeReverseINS_9allocatorIN7doctest6StringEEENS_16reverse_iteratorIPS4_EEEEEC2B8ne180100ES9_, symObjAddr: 0x1AF00, symBinAddr: 0x10001C5C0, symSize: 0x30 }
  - { offset: 0x57B3B, size: 0x8, addend: 0x0, symName: __ZNSt3__129_AllocatorDestroyRangeReverseINS_9allocatorIN7doctest6StringEEENS_16reverse_iteratorIPS3_EEEC2B8ne180100ERS4_RS7_SA_, symObjAddr: 0x1AF30, symBinAddr: 0x10001C5F0, symSize: 0x40 }
  - { offset: 0x57B98, size: 0x8, addend: 0x0, symName: __ZNSt3__119__to_address_helperINS_16reverse_iteratorIPN7doctest6StringEEEvE6__callB8ne180100ERKS5_, symObjAddr: 0x1AF70, symBinAddr: 0x10001C630, symSize: 0x40 }
  - { offset: 0x57BBC, size: 0x8, addend: 0x0, symName: __ZNKSt3__116reverse_iteratorIPN7doctest6StringEEptB8ne180100Ev, symObjAddr: 0x1AFB0, symBinAddr: 0x10001C670, symSize: 0x30 }
  - { offset: 0x57BE2, size: 0x8, addend: 0x0, symName: __ZNSt3__128__exception_guard_exceptionsINS_29_AllocatorDestroyRangeReverseINS_9allocatorIN7doctest6StringEEENS_16reverse_iteratorIPS4_EEEEED2B8ne180100Ev, symObjAddr: 0x1B060, symBinAddr: 0x10001C720, symSize: 0x40 }
  - { offset: 0x57C0C, size: 0x8, addend: 0x0, symName: __ZNKSt3__129_AllocatorDestroyRangeReverseINS_9allocatorIN7doctest6StringEEENS_16reverse_iteratorIPS3_EEEclB8ne180100Ev, symObjAddr: 0x1B0A0, symBinAddr: 0x10001C760, symSize: 0xF0 }
  - { offset: 0x57C33, size: 0x8, addend: 0x0, symName: __ZNSt3__116reverse_iteratorINS0_IPN7doctest6StringEEEEC1B8ne180100ES4_, symObjAddr: 0x1B200, symBinAddr: 0x10001C8C0, symSize: 0x30 }
  - { offset: 0x57C6C, size: 0x8, addend: 0x0, symName: __ZNSt3__116allocator_traitsINS_9allocatorIN7doctest6StringEEEE7destroyB8ne180100IS3_vvEEvRS4_PT_, symObjAddr: 0x1B280, symBinAddr: 0x10001C940, symSize: 0x20 }
  - { offset: 0x57CA6, size: 0x8, addend: 0x0, symName: __ZNSt3__116reverse_iteratorINS0_IPN7doctest6StringEEEEppB8ne180100Ev, symObjAddr: 0x1B2C0, symBinAddr: 0x10001C980, symSize: 0x30 }
  - { offset: 0x57CCC, size: 0x8, addend: 0x0, symName: __ZNKSt3__116reverse_iteratorINS0_IPN7doctest6StringEEEE4baseB8ne180100Ev, symObjAddr: 0x1B2F0, symBinAddr: 0x10001C9B0, symSize: 0x20 }
  - { offset: 0x57CF8, size: 0x8, addend: 0x0, symName: __ZNSt3__119__to_address_helperINS_16reverse_iteratorINS1_IPN7doctest6StringEEEEEvE6__callB8ne180100ERKS6_, symObjAddr: 0x1B330, symBinAddr: 0x10001C9F0, symSize: 0x40 }
  - { offset: 0x57D1C, size: 0x8, addend: 0x0, symName: __ZNKSt3__116reverse_iteratorINS0_IPN7doctest6StringEEEEptB8ne180100Ev, symObjAddr: 0x1B370, symBinAddr: 0x10001CA30, symSize: 0x50 }
  - { offset: 0x57D42, size: 0x8, addend: 0x0, symName: __ZNSt3__116reverse_iteratorIPN7doctest6StringEEpLB8ne180100El, symObjAddr: 0x1B460, symBinAddr: 0x10001CB20, symSize: 0x30 }
  - { offset: 0x57D77, size: 0x8, addend: 0x0, symName: __ZNSt3__116reverse_iteratorIPN7doctest6StringEEmmB8ne180100Ev, symObjAddr: 0x1B490, symBinAddr: 0x10001CB50, symSize: 0x20 }
  - { offset: 0x57D9D, size: 0x8, addend: 0x0, symName: __ZNSt3__116reverse_iteratorINS0_IPN7doctest6StringEEEEC2B8ne180100ES4_, symObjAddr: 0x1B4B0, symBinAddr: 0x10001CB70, symSize: 0x40 }
  - { offset: 0x57DD6, size: 0x8, addend: 0x0, symName: __ZNSt3__116reverse_iteratorIPN7doctest6StringEEC2B8ne180100ES3_, symObjAddr: 0x1B4F0, symBinAddr: 0x10001CBB0, symSize: 0x30 }
  - { offset: 0x57E0F, size: 0x8, addend: 0x0, symName: __ZNSt3__114__split_bufferIN7doctest6StringERNS_9allocatorIS2_EEED2Ev, symObjAddr: 0x1B520, symBinAddr: 0x10001CBE0, symSize: 0x70 }
  - { offset: 0x57E3B, size: 0x8, addend: 0x0, symName: __ZNSt3__114__split_bufferIN7doctest6StringERNS_9allocatorIS2_EEE5clearB8ne180100Ev, symObjAddr: 0x1B590, symBinAddr: 0x10001CC50, symSize: 0x20 }
  - { offset: 0x57E61, size: 0x8, addend: 0x0, symName: __ZNSt3__116allocator_traitsINS_9allocatorIN7doctest6StringEEEE10deallocateB8ne180100ERS4_PS3_m, symObjAddr: 0x1B5B0, symBinAddr: 0x10001CC70, symSize: 0x30 }
  - { offset: 0x57EA3, size: 0x8, addend: 0x0, symName: __ZNKSt3__114__split_bufferIN7doctest6StringERNS_9allocatorIS2_EEE8capacityB8ne180100Ev, symObjAddr: 0x1B5E0, symBinAddr: 0x10001CCA0, symSize: 0x40 }
  - { offset: 0x57EC9, size: 0x8, addend: 0x0, symName: __ZNSt3__114__split_bufferIN7doctest6StringERNS_9allocatorIS2_EEE17__destruct_at_endB8ne180100EPS2_, symObjAddr: 0x1B620, symBinAddr: 0x10001CCE0, symSize: 0x30 }
  - { offset: 0x57EFE, size: 0x8, addend: 0x0, symName: __ZNSt3__114__split_bufferIN7doctest6StringERNS_9allocatorIS2_EEE17__destruct_at_endB8ne180100EPS2_NS_17integral_constantIbLb0EEE, symObjAddr: 0x1B650, symBinAddr: 0x10001CD10, symSize: 0x80 }
  - { offset: 0x57F40, size: 0x8, addend: 0x0, symName: __ZNSt3__19allocatorIN7doctest6StringEE10deallocateB8ne180100EPS2_m, symObjAddr: 0x1B6D0, symBinAddr: 0x10001CD90, symSize: 0x50 }
  - { offset: 0x57F84, size: 0x8, addend: 0x0, symName: __ZNKSt3__114__split_bufferIN7doctest6StringERNS_9allocatorIS2_EEE9__end_capB8ne180100Ev, symObjAddr: 0x1B720, symBinAddr: 0x10001CDE0, symSize: 0x20 }
  - { offset: 0x57FAA, size: 0x8, addend: 0x0, symName: __ZNKSt3__117__compressed_pairIPN7doctest6StringERNS_9allocatorIS2_EEE5firstB8ne180100Ev, symObjAddr: 0x1B740, symBinAddr: 0x10001CE00, symSize: 0x20 }
  - { offset: 0x57FD0, size: 0x8, addend: 0x0, symName: __ZNKSt3__112basic_stringIcNS_11char_traitsIcEENS_9allocatorIcEEE4dataB8ne180100Ev, symObjAddr: 0x1B760, symBinAddr: 0x10001CE20, symSize: 0x30 }
  - { offset: 0x57FF6, size: 0x8, addend: 0x0, symName: __ZNKSt3__112basic_stringIcNS_11char_traitsIcEENS_9allocatorIcEEE13__get_pointerB8ne180100Ev, symObjAddr: 0x1B7A0, symBinAddr: 0x10001CE60, symSize: 0x50 }
  - { offset: 0x5801C, size: 0x8, addend: 0x0, symName: __ZNKSt3__112basic_stringIcNS_11char_traitsIcEENS_9allocatorIcEEE9__is_longB8ne180100Ev, symObjAddr: 0x1B7F0, symBinAddr: 0x10001CEB0, symSize: 0x30 }
  - { offset: 0x58042, size: 0x8, addend: 0x0, symName: __ZNKSt3__112basic_stringIcNS_11char_traitsIcEENS_9allocatorIcEEE18__get_long_pointerB8ne180100Ev, symObjAddr: 0x1B820, symBinAddr: 0x10001CEE0, symSize: 0x20 }
  - { offset: 0x58068, size: 0x8, addend: 0x0, symName: __ZNKSt3__112basic_stringIcNS_11char_traitsIcEENS_9allocatorIcEEE19__get_short_pointerB8ne180100Ev, symObjAddr: 0x1B840, symBinAddr: 0x10001CF00, symSize: 0x30 }
  - { offset: 0x5808E, size: 0x8, addend: 0x0, symName: __ZNKSt3__117__compressed_pairINS_12basic_stringIcNS_11char_traitsIcEENS_9allocatorIcEEE5__repES5_E5firstB8ne180100Ev, symObjAddr: 0x1B870, symBinAddr: 0x10001CF30, symSize: 0x20 }
  - { offset: 0x580B4, size: 0x8, addend: 0x0, symName: __ZNKSt3__122__compressed_pair_elemINS_12basic_stringIcNS_11char_traitsIcEENS_9allocatorIcEEE5__repELi0ELb0EE5__getB8ne180100Ev, symObjAddr: 0x1B890, symBinAddr: 0x10001CF50, symSize: 0x10 }
  - { offset: 0x580DA, size: 0x8, addend: 0x0, symName: __ZNSt3__114pointer_traitsIPKcE10pointer_toB8ne180100ERS1_, symObjAddr: 0x1B8A0, symBinAddr: 0x10001CF60, symSize: 0x10 }
  - { offset: 0x580FE, size: 0x8, addend: 0x0, symName: __ZNSt3__119basic_ostringstreamIcNS_11char_traitsIcEENS_9allocatorIcEEED2Ev, symObjAddr: 0x1B8B0, symBinAddr: 0x10001CF70, symSize: 0x60 }
  - { offset: 0x58138, size: 0x8, addend: 0x0, symName: __ZTv0_n24_NSt3__119basic_ostringstreamIcNS_11char_traitsIcEENS_9allocatorIcEEED1Ev, symObjAddr: 0x1B910, symBinAddr: 0x10001CFD0, symSize: 0x20 }
  - { offset: 0x58155, size: 0x8, addend: 0x0, symName: __ZNSt3__115basic_stringbufIcNS_11char_traitsIcEENS_9allocatorIcEEED1Ev, symObjAddr: 0x1B930, symBinAddr: 0x10001CFF0, symSize: 0x20 }
  - { offset: 0x58182, size: 0x8, addend: 0x0, symName: __ZNSt3__115basic_stringbufIcNS_11char_traitsIcEENS_9allocatorIcEEED2Ev, symObjAddr: 0x1B950, symBinAddr: 0x10001D010, symSize: 0x40 }
  - { offset: 0x581AF, size: 0x8, addend: 0x0, symName: __ZNSt3__16vectorIPN7doctest13IContextScopeENS_9allocatorIS3_EEE17__destruct_at_endB8ne180100EPS3_, symObjAddr: 0x1B990, symBinAddr: 0x10001D050, symSize: 0x50 }
  - { offset: 0x581F3, size: 0x8, addend: 0x0, symName: __ZNKSt3__16vectorIPN7doctest13IContextScopeENS_9allocatorIS3_EEE17__annotate_shrinkB8ne180100Em, symObjAddr: 0x1B9E0, symBinAddr: 0x10001D0A0, symSize: 0x10 }
  - { offset: 0x58228, size: 0x8, addend: 0x0, symName: __ZN7doctest10AssertData14StringContainsC2ERKS1_, symObjAddr: 0x1B9F0, symBinAddr: 0x10001D0B0, symSize: 0x40 }
  - { offset: 0x5825E, size: 0x8, addend: 0x0, symName: __ZN7doctest10AssertData14StringContainsC2ERKNS_6StringE, symObjAddr: 0x1BA30, symBinAddr: 0x10001D0F0, symSize: 0x30 }
  - { offset: 0x58297, size: 0x8, addend: 0x0, symName: __ZN7doctest10AssertData14StringContainsD2Ev, symObjAddr: 0x1BA60, symBinAddr: 0x10001D120, symSize: 0x20 }
  - { offset: 0x582C4, size: 0x8, addend: 0x0, symName: __ZN7doctest8ContainsC2ERKS0_, symObjAddr: 0x1BA80, symBinAddr: 0x10001D140, symSize: 0x30 }
  - { offset: 0x582FA, size: 0x8, addend: 0x0, symName: __ZN7doctest10AssertData14StringContainsC2ENS_8ContainsE, symObjAddr: 0x1BAB0, symBinAddr: 0x10001D170, symSize: 0x30 }
  - { offset: 0x5833A, size: 0x8, addend: 0x0, symName: __ZN7doctest8ContainsC1EOS0_, symObjAddr: 0x1BAE0, symBinAddr: 0x10001D1A0, symSize: 0x30 }
  - { offset: 0x58370, size: 0x8, addend: 0x0, symName: __ZN7doctest8ContainsC2EOS0_, symObjAddr: 0x1BB10, symBinAddr: 0x10001D1D0, symSize: 0x30 }
  - { offset: 0x583A6, size: 0x8, addend: 0x0, symName: __ZN7doctest8ContainsD2Ev, symObjAddr: 0x1BB40, symBinAddr: 0x10001D200, symSize: 0x20 }
  - { offset: 0x583D3, size: 0x8, addend: 0x0, symName: __ZNKSt3__111__wrap_iterIPPKN7doctest6detail20IExceptionTranslatorEEdeB8ne180100Ev, symObjAddr: 0x1BB90, symBinAddr: 0x10001D250, symSize: 0x20 }
  - { offset: 0x583F9, size: 0x8, addend: 0x0, symName: __ZNSt3__111__wrap_iterIPPKN7doctest6detail20IExceptionTranslatorEEppB8ne180100Ev, symObjAddr: 0x1BBB0, symBinAddr: 0x10001D270, symSize: 0x20 }
  - { offset: 0x5841F, size: 0x8, addend: 0x0, symName: __ZN7doctest6detail15MultiLaneAtomicIiEppEi, symObjAddr: 0x1BBD0, symBinAddr: 0x10001D290, symSize: 0x30 }
  - { offset: 0x58450, size: 0x8, addend: 0x0, symName: __ZN7doctest6detail15MultiLaneAtomicIiE9fetch_addEiNSt3__112memory_orderE, symObjAddr: 0x1BC00, symBinAddr: 0x10001D2C0, symSize: 0x30 }
  - { offset: 0x58494, size: 0x8, addend: 0x0, symName: __ZNSt3__113__atomic_baseIiLb1EE9fetch_addB8ne180100EiNS_12memory_orderE, symObjAddr: 0x1BCB0, symBinAddr: 0x10001D370, symSize: 0x30 }
  - { offset: 0x584D8, size: 0x8, addend: 0x0, symName: __ZNSt3__113__atomic_baseImLb1EEppB8ne180100Ei, symObjAddr: 0x1BCE0, symBinAddr: 0x10001D3A0, symSize: 0x30 }
  - { offset: 0x58509, size: 0x8, addend: 0x0, symName: __ZNSt3__113__atomic_baseImLb1EE9fetch_addB8ne180100EmNS_12memory_orderE, symObjAddr: 0x1BD10, symBinAddr: 0x10001D3D0, symSize: 0x30 }
  - { offset: 0x5854D, size: 0x8, addend: 0x0, symName: __ZN7doctest6detail13ResultBuilderD2Ev, symObjAddr: 0x1BED0, symBinAddr: 0x10001D590, symSize: 0x20 }
  - { offset: 0x5857A, size: 0x8, addend: 0x0, symName: __ZN7doctest10AssertDataD2Ev, symObjAddr: 0x1BEF0, symBinAddr: 0x10001D5B0, symSize: 0x40 }
  - { offset: 0x585A7, size: 0x8, addend: 0x0, symName: __ZN7doctest6detail12ContextStateC2Ev, symObjAddr: 0x1BF30, symBinAddr: 0x10001D5F0, symSize: 0x100 }
  - { offset: 0x585DA, size: 0x8, addend: 0x0, symName: __ZN7doctest14ContextOptionsC2Ev, symObjAddr: 0x1C030, symBinAddr: 0x10001D6F0, symSize: 0x50 }
  - { offset: 0x58607, size: 0x8, addend: 0x0, symName: __ZN7doctest6detail15MultiLaneAtomicIiEC1Ev, symObjAddr: 0x1C080, symBinAddr: 0x10001D740, symSize: 0x20 }
  - { offset: 0x58634, size: 0x8, addend: 0x0, symName: __ZNSt3__16vectorINS0_IN7doctest6StringENS_9allocatorIS2_EEEENS3_IS5_EEEC1Em, symObjAddr: 0x1C0A0, symBinAddr: 0x10001D760, symSize: 0x30 }
  - { offset: 0x5866F, size: 0x8, addend: 0x0, symName: __ZNSt3__16vectorIPN7doctest9IReporterENS_9allocatorIS3_EEEC1B8ne180100Ev, symObjAddr: 0x1C0D0, symBinAddr: 0x10001D790, symSize: 0x20 }
  - { offset: 0x58699, size: 0x8, addend: 0x0, symName: __ZN7doctest6detail5TimerC1Ev, symObjAddr: 0x1C0F0, symBinAddr: 0x10001D7B0, symSize: 0x20 }
  - { offset: 0x586C6, size: 0x8, addend: 0x0, symName: __ZNSt3__16vectorIN7doctest6StringENS_9allocatorIS2_EEEC1B8ne180100Ev, symObjAddr: 0x1C110, symBinAddr: 0x10001D7D0, symSize: 0x20 }
  - { offset: 0x586F0, size: 0x8, addend: 0x0, symName: __ZNSt3__16vectorIN7doctest16SubcaseSignatureENS_9allocatorIS2_EEEC1B8ne180100Ev, symObjAddr: 0x1C130, symBinAddr: 0x10001D7F0, symSize: 0x20 }
  - { offset: 0x5871A, size: 0x8, addend: 0x0, symName: __ZNSt3__113unordered_setIyNS_4hashIyEENS_8equal_toIyEENS_9allocatorIyEEEC1B8ne180100Ev, symObjAddr: 0x1C150, symBinAddr: 0x10001D810, symSize: 0x20 }
  - { offset: 0x58744, size: 0x8, addend: 0x0, symName: __ZNSt3__16atomicIbEC1B8ne180100Ev, symObjAddr: 0x1C170, symBinAddr: 0x10001D830, symSize: 0x20 }
  - { offset: 0x5876E, size: 0x8, addend: 0x0, symName: __ZN7doctest14ContextOptionsD2Ev, symObjAddr: 0x1C190, symBinAddr: 0x10001D850, symSize: 0x40 }
  - { offset: 0x5879B, size: 0x8, addend: 0x0, symName: __ZN7doctest6detail15MultiLaneAtomicIiEC2Ev, symObjAddr: 0x1C1D0, symBinAddr: 0x10001D890, symSize: 0x50 }
  - { offset: 0x587CE, size: 0x8, addend: 0x0, symName: __ZN7doctest6detail15MultiLaneAtomicIiE22CacheLineAlignedAtomicC1Ev, symObjAddr: 0x1C220, symBinAddr: 0x10001D8E0, symSize: 0x20 }
  - { offset: 0x587FB, size: 0x8, addend: 0x0, symName: __ZN7doctest6detail15MultiLaneAtomicIiE22CacheLineAlignedAtomicC2Ev, symObjAddr: 0x1C240, symBinAddr: 0x10001D900, symSize: 0x30 }
  - { offset: 0x58828, size: 0x8, addend: 0x0, symName: __ZNSt3__16atomicIiEC1B8ne180100Ev, symObjAddr: 0x1C270, symBinAddr: 0x10001D930, symSize: 0x20 }
  - { offset: 0x58852, size: 0x8, addend: 0x0, symName: __ZNSt3__16atomicIiEC2B8ne180100Ev, symObjAddr: 0x1C290, symBinAddr: 0x10001D950, symSize: 0x20 }
  - { offset: 0x5887C, size: 0x8, addend: 0x0, symName: __ZNSt3__113__atomic_baseIiLb1EEC2B8ne180100Ev, symObjAddr: 0x1C2B0, symBinAddr: 0x10001D970, symSize: 0x20 }
  - { offset: 0x588A6, size: 0x8, addend: 0x0, symName: __ZNSt3__113__atomic_baseIiLb0EEC2B8ne180100Ev, symObjAddr: 0x1C2D0, symBinAddr: 0x10001D990, symSize: 0x20 }
  - { offset: 0x588D0, size: 0x8, addend: 0x0, symName: __ZNSt3__117__cxx_atomic_implIiNS_22__cxx_atomic_base_implIiEEEC1B8ne180100Ei, symObjAddr: 0x1C2F0, symBinAddr: 0x10001D9B0, symSize: 0x30 }
  - { offset: 0x58909, size: 0x8, addend: 0x0, symName: __ZNSt3__117__cxx_atomic_implIiNS_22__cxx_atomic_base_implIiEEEC2B8ne180100Ei, symObjAddr: 0x1C320, symBinAddr: 0x10001D9E0, symSize: 0x30 }
  - { offset: 0x58942, size: 0x8, addend: 0x0, symName: __ZNSt3__122__cxx_atomic_base_implIiEC2Ei, symObjAddr: 0x1C350, symBinAddr: 0x10001DA10, symSize: 0x20 }
  - { offset: 0x5897B, size: 0x8, addend: 0x0, symName: __ZNSt3__16vectorINS0_IN7doctest6StringENS_9allocatorIS2_EEEENS3_IS5_EEEC2Em, symObjAddr: 0x1C370, symBinAddr: 0x10001DA30, symSize: 0xD0 }
  - { offset: 0x589CB, size: 0x8, addend: 0x0, symName: __ZNSt3__117__compressed_pairIPNS_6vectorIN7doctest6StringENS_9allocatorIS3_EEEENS4_IS6_EEEC1B8ne180100IDnNS_18__default_init_tagEEEOT_OT0_, symObjAddr: 0x1C440, symBinAddr: 0x10001DB00, symSize: 0x30 }
  - { offset: 0x58A25, size: 0x8, addend: 0x0, symName: __ZNSt3__16vectorINS0_IN7doctest6StringENS_9allocatorIS2_EEEENS3_IS5_EEE16__destroy_vectorC1B8ne180100ERS7_, symObjAddr: 0x1C4B0, symBinAddr: 0x10001DB70, symSize: 0x30 }
  - { offset: 0x58A5E, size: 0x8, addend: 0x0, symName: __ZNSt3__16vectorINS0_IN7doctest6StringENS_9allocatorIS2_EEEENS3_IS5_EEE11__vallocateB8ne180100Em, symObjAddr: 0x1C4E0, symBinAddr: 0x10001DBA0, symSize: 0xA0 }
  - { offset: 0x58AA2, size: 0x8, addend: 0x0, symName: __ZNSt3__16vectorINS0_IN7doctest6StringENS_9allocatorIS2_EEEENS3_IS5_EEE18__construct_at_endEm, symObjAddr: 0x1C580, symBinAddr: 0x10001DC40, symSize: 0xC0 }
  - { offset: 0x58B14, size: 0x8, addend: 0x0, symName: __ZNSt3__128__exception_guard_exceptionsINS_6vectorINS1_IN7doctest6StringENS_9allocatorIS3_EEEENS4_IS6_EEE16__destroy_vectorEE10__completeB8ne180100Ev, symObjAddr: 0x1C640, symBinAddr: 0x10001DD00, symSize: 0x20 }
  - { offset: 0x58B3A, size: 0x8, addend: 0x0, symName: __ZNSt3__128__exception_guard_exceptionsINS_6vectorINS1_IN7doctest6StringENS_9allocatorIS3_EEEENS4_IS6_EEE16__destroy_vectorEED1B8ne180100Ev, symObjAddr: 0x1C660, symBinAddr: 0x10001DD20, symSize: 0x20 }
  - { offset: 0x58B64, size: 0x8, addend: 0x0, symName: __ZNSt3__117__compressed_pairIPNS_6vectorIN7doctest6StringENS_9allocatorIS3_EEEENS4_IS6_EEEC2B8ne180100IDnNS_18__default_init_tagEEEOT_OT0_, symObjAddr: 0x1C680, symBinAddr: 0x10001DD40, symSize: 0x40 }
  - { offset: 0x58BBE, size: 0x8, addend: 0x0, symName: __ZNSt3__122__compressed_pair_elemIPNS_6vectorIN7doctest6StringENS_9allocatorIS3_EEEELi0ELb0EEC2B8ne180100IDnvEEOT_, symObjAddr: 0x1C6C0, symBinAddr: 0x10001DD80, symSize: 0x20 }
  - { offset: 0x58C01, size: 0x8, addend: 0x0, symName: __ZNSt3__122__compressed_pair_elemINS_9allocatorINS_6vectorIN7doctest6StringENS1_IS4_EEEEEELi1ELb1EEC2B8ne180100ENS_18__default_init_tagE, symObjAddr: 0x1C6E0, symBinAddr: 0x10001DDA0, symSize: 0x20 }
  - { offset: 0x58C36, size: 0x8, addend: 0x0, symName: __ZNSt3__19allocatorINS_6vectorIN7doctest6StringENS0_IS3_EEEEEC2B8ne180100Ev, symObjAddr: 0x1C700, symBinAddr: 0x10001DDC0, symSize: 0x20 }
  - { offset: 0x58C60, size: 0x8, addend: 0x0, symName: __ZNSt3__116__non_trivial_ifILb1ENS_9allocatorINS_6vectorIN7doctest6StringENS1_IS4_EEEEEEEC2B8ne180100Ev, symObjAddr: 0x1C720, symBinAddr: 0x10001DDE0, symSize: 0x10 }
  - { offset: 0x58C8A, size: 0x8, addend: 0x0, symName: __ZNSt3__128__exception_guard_exceptionsINS_6vectorINS1_IN7doctest6StringENS_9allocatorIS3_EEEENS4_IS6_EEE16__destroy_vectorEEC1B8ne180100ES9_, symObjAddr: 0x1C730, symBinAddr: 0x10001DDF0, symSize: 0x30 }
  - { offset: 0x58CC3, size: 0x8, addend: 0x0, symName: __ZNSt3__128__exception_guard_exceptionsINS_6vectorINS1_IN7doctest6StringENS_9allocatorIS3_EEEENS4_IS6_EEE16__destroy_vectorEEC2B8ne180100ES9_, symObjAddr: 0x1C760, symBinAddr: 0x10001DE20, symSize: 0x20 }
  - { offset: 0x58CFC, size: 0x8, addend: 0x0, symName: __ZNSt3__16vectorINS0_IN7doctest6StringENS_9allocatorIS2_EEEENS3_IS5_EEE16__destroy_vectorC2B8ne180100ERS7_, symObjAddr: 0x1C780, symBinAddr: 0x10001DE40, symSize: 0x20 }
  - { offset: 0x58D35, size: 0x8, addend: 0x0, symName: __ZNKSt3__16vectorINS0_IN7doctest6StringENS_9allocatorIS2_EEEENS3_IS5_EEE8max_sizeEv, symObjAddr: 0x1C7A0, symBinAddr: 0x10001DE60, symSize: 0x60 }
  - { offset: 0x58D5D, size: 0x8, addend: 0x0, symName: __ZNKSt3__16vectorINS0_IN7doctest6StringENS_9allocatorIS2_EEEENS3_IS5_EEE20__throw_length_errorB8ne180100Ev, symObjAddr: 0x1C800, symBinAddr: 0x10001DEC0, symSize: 0x20 }
  - { offset: 0x58D83, size: 0x8, addend: 0x0, symName: __ZNSt3__16vectorINS0_IN7doctest6StringENS_9allocatorIS2_EEEENS3_IS5_EEE7__allocB8ne180100Ev, symObjAddr: 0x1C860, symBinAddr: 0x10001DF20, symSize: 0x20 }
  - { offset: 0x58DA9, size: 0x8, addend: 0x0, symName: __ZNSt3__16vectorINS0_IN7doctest6StringENS_9allocatorIS2_EEEENS3_IS5_EEE9__end_capB8ne180100Ev, symObjAddr: 0x1C880, symBinAddr: 0x10001DF40, symSize: 0x20 }
  - { offset: 0x58DCF, size: 0x8, addend: 0x0, symName: __ZNKSt3__16vectorINS0_IN7doctest6StringENS_9allocatorIS2_EEEENS3_IS5_EEE14__annotate_newB8ne180100Em, symObjAddr: 0x1C8A0, symBinAddr: 0x10001DF60, symSize: 0x10 }
  - { offset: 0x58E0F, size: 0x8, addend: 0x0, symName: __ZNSt3__116allocator_traitsINS_9allocatorINS_6vectorIN7doctest6StringENS1_IS4_EEEEEEE8max_sizeB8ne180100IS7_vvEEmRKS7_, symObjAddr: 0x1C8B0, symBinAddr: 0x10001DF70, symSize: 0x30 }
  - { offset: 0x58E3A, size: 0x8, addend: 0x0, symName: __ZNKSt3__16vectorINS0_IN7doctest6StringENS_9allocatorIS2_EEEENS3_IS5_EEE7__allocB8ne180100Ev, symObjAddr: 0x1C8E0, symBinAddr: 0x10001DFA0, symSize: 0x20 }
  - { offset: 0x58E60, size: 0x8, addend: 0x0, symName: __ZNKSt3__117__compressed_pairIPNS_6vectorIN7doctest6StringENS_9allocatorIS3_EEEENS4_IS6_EEE6secondB8ne180100Ev, symObjAddr: 0x1C900, symBinAddr: 0x10001DFC0, symSize: 0x20 }
  - { offset: 0x58E86, size: 0x8, addend: 0x0, symName: __ZNKSt3__122__compressed_pair_elemINS_9allocatorINS_6vectorIN7doctest6StringENS1_IS4_EEEEEELi1ELb1EE5__getB8ne180100Ev, symObjAddr: 0x1C920, symBinAddr: 0x10001DFE0, symSize: 0x10 }
  - { offset: 0x58EAC, size: 0x8, addend: 0x0, symName: __ZNSt3__19allocatorINS_6vectorIN7doctest6StringENS0_IS3_EEEEE8allocateB8ne180100Em, symObjAddr: 0x1C930, symBinAddr: 0x10001DFF0, symSize: 0x50 }
  - { offset: 0x58EE1, size: 0x8, addend: 0x0, symName: __ZNSt3__117__compressed_pairIPNS_6vectorIN7doctest6StringENS_9allocatorIS3_EEEENS4_IS6_EEE6secondB8ne180100Ev, symObjAddr: 0x1C980, symBinAddr: 0x10001E040, symSize: 0x20 }
  - { offset: 0x58F07, size: 0x8, addend: 0x0, symName: __ZNSt3__122__compressed_pair_elemINS_9allocatorINS_6vectorIN7doctest6StringENS1_IS4_EEEEEELi1ELb1EE5__getB8ne180100Ev, symObjAddr: 0x1C9A0, symBinAddr: 0x10001E060, symSize: 0x10 }
  - { offset: 0x58F2D, size: 0x8, addend: 0x0, symName: __ZNSt3__117__compressed_pairIPNS_6vectorIN7doctest6StringENS_9allocatorIS3_EEEENS4_IS6_EEE5firstB8ne180100Ev, symObjAddr: 0x1C9B0, symBinAddr: 0x10001E070, symSize: 0x20 }
  - { offset: 0x58F53, size: 0x8, addend: 0x0, symName: __ZNSt3__122__compressed_pair_elemIPNS_6vectorIN7doctest6StringENS_9allocatorIS3_EEEELi0ELb0EE5__getB8ne180100Ev, symObjAddr: 0x1C9D0, symBinAddr: 0x10001E090, symSize: 0x10 }
  - { offset: 0x58F95, size: 0x8, addend: 0x0, symName: __ZNSt3__16vectorINS0_IN7doctest6StringENS_9allocatorIS2_EEEENS3_IS5_EEE21_ConstructTransactionC1B8ne180100ERS7_m, symObjAddr: 0x1C9E0, symBinAddr: 0x10001E0A0, symSize: 0x30 }
  - { offset: 0x58FDD, size: 0x8, addend: 0x0, symName: __ZNSt3__116allocator_traitsINS_9allocatorINS_6vectorIN7doctest6StringENS1_IS4_EEEEEEE9constructB8ne180100IS6_JEvvEEvRS7_PT_DpOT0_, symObjAddr: 0x1CA10, symBinAddr: 0x10001E0D0, symSize: 0x20 }
  - { offset: 0x5901D, size: 0x8, addend: 0x0, symName: __ZNSt3__16vectorINS0_IN7doctest6StringENS_9allocatorIS2_EEEENS3_IS5_EEE21_ConstructTransactionD1B8ne180100Ev, symObjAddr: 0x1CA40, symBinAddr: 0x10001E100, symSize: 0x20 }
  - { offset: 0x59047, size: 0x8, addend: 0x0, symName: __ZNSt3__16vectorINS0_IN7doctest6StringENS_9allocatorIS2_EEEENS3_IS5_EEE21_ConstructTransactionC2B8ne180100ERS7_m, symObjAddr: 0x1CA60, symBinAddr: 0x10001E120, symSize: 0x40 }
  - { offset: 0x5908F, size: 0x8, addend: 0x0, symName: __ZNSt3__16vectorINS0_IN7doctest6StringENS_9allocatorIS2_EEEENS3_IS5_EEE21_ConstructTransactionD2B8ne180100Ev, symObjAddr: 0x1CAF0, symBinAddr: 0x10001E1B0, symSize: 0x20 }
  - { offset: 0x590B9, size: 0x8, addend: 0x0, symName: __ZNSt3__128__exception_guard_exceptionsINS_6vectorINS1_IN7doctest6StringENS_9allocatorIS3_EEEENS4_IS6_EEE16__destroy_vectorEED2B8ne180100Ev, symObjAddr: 0x1CB10, symBinAddr: 0x10001E1D0, symSize: 0x40 }
  - { offset: 0x590E3, size: 0x8, addend: 0x0, symName: __ZNSt3__16vectorINS0_IN7doctest6StringENS_9allocatorIS2_EEEENS3_IS5_EEE16__destroy_vectorclB8ne180100Ev, symObjAddr: 0x1CB50, symBinAddr: 0x10001E210, symSize: 0x80 }
  - { offset: 0x59109, size: 0x8, addend: 0x0, symName: __ZNSt3__16vectorINS0_IN7doctest6StringENS_9allocatorIS2_EEEENS3_IS5_EEE7__clearB8ne180100Ev, symObjAddr: 0x1CBD0, symBinAddr: 0x10001E290, symSize: 0x20 }
  - { offset: 0x5912F, size: 0x8, addend: 0x0, symName: __ZNKSt3__16vectorINS0_IN7doctest6StringENS_9allocatorIS2_EEEENS3_IS5_EEE17__annotate_deleteB8ne180100Ev, symObjAddr: 0x1CBF0, symBinAddr: 0x10001E2B0, symSize: 0x10 }
  - { offset: 0x59155, size: 0x8, addend: 0x0, symName: __ZNSt3__116allocator_traitsINS_9allocatorINS_6vectorIN7doctest6StringENS1_IS4_EEEEEEE10deallocateB8ne180100ERS7_PS6_m, symObjAddr: 0x1CC00, symBinAddr: 0x10001E2C0, symSize: 0x30 }
  - { offset: 0x59197, size: 0x8, addend: 0x0, symName: __ZNKSt3__16vectorINS0_IN7doctest6StringENS_9allocatorIS2_EEEENS3_IS5_EEE8capacityB8ne180100Ev, symObjAddr: 0x1CC30, symBinAddr: 0x10001E2F0, symSize: 0x40 }
  - { offset: 0x591BD, size: 0x8, addend: 0x0, symName: __ZNSt3__16vectorINS0_IN7doctest6StringENS_9allocatorIS2_EEEENS3_IS5_EEE22__base_destruct_at_endB8ne180100EPS5_, symObjAddr: 0x1CC70, symBinAddr: 0x10001E330, symSize: 0x80 }
  - { offset: 0x59201, size: 0x8, addend: 0x0, symName: __ZNSt3__116allocator_traitsINS_9allocatorINS_6vectorIN7doctest6StringENS1_IS4_EEEEEEE7destroyB8ne180100IS6_vvEEvRS7_PT_, symObjAddr: 0x1CCF0, symBinAddr: 0x10001E3B0, symSize: 0x20 }
  - { offset: 0x5923B, size: 0x8, addend: 0x0, symName: __ZNSt3__16vectorIN7doctest6StringENS_9allocatorIS2_EEED1B8ne180100Ev, symObjAddr: 0x1CD30, symBinAddr: 0x10001E3F0, symSize: 0x20 }
  - { offset: 0x59265, size: 0x8, addend: 0x0, symName: __ZNSt3__16vectorIN7doctest6StringENS_9allocatorIS2_EEED2B8ne180100Ev, symObjAddr: 0x1CD50, symBinAddr: 0x10001E410, symSize: 0x40 }
  - { offset: 0x5928F, size: 0x8, addend: 0x0, symName: __ZNSt3__16vectorIN7doctest6StringENS_9allocatorIS2_EEE16__destroy_vectorC1B8ne180100ERS5_, symObjAddr: 0x1CD90, symBinAddr: 0x10001E450, symSize: 0x30 }
  - { offset: 0x592C8, size: 0x8, addend: 0x0, symName: __ZNSt3__16vectorIN7doctest6StringENS_9allocatorIS2_EEE16__destroy_vectorclB8ne180100Ev, symObjAddr: 0x1CDC0, symBinAddr: 0x10001E480, symSize: 0x80 }
  - { offset: 0x592EE, size: 0x8, addend: 0x0, symName: __ZNSt3__16vectorIN7doctest6StringENS_9allocatorIS2_EEE16__destroy_vectorC2B8ne180100ERS5_, symObjAddr: 0x1CE40, symBinAddr: 0x10001E500, symSize: 0x20 }
  - { offset: 0x59327, size: 0x8, addend: 0x0, symName: __ZNSt3__16vectorIN7doctest6StringENS_9allocatorIS2_EEE7__clearB8ne180100Ev, symObjAddr: 0x1CE60, symBinAddr: 0x10001E520, symSize: 0x20 }
  - { offset: 0x5934D, size: 0x8, addend: 0x0, symName: __ZNSt3__16vectorIN7doctest6StringENS_9allocatorIS2_EEE22__base_destruct_at_endB8ne180100EPS2_, symObjAddr: 0x1CE80, symBinAddr: 0x10001E540, symSize: 0x80 }
  - { offset: 0x59391, size: 0x8, addend: 0x0, symName: __ZNSt3__19allocatorINS_6vectorIN7doctest6StringENS0_IS3_EEEEE10deallocateB8ne180100EPS5_m, symObjAddr: 0x1CF00, symBinAddr: 0x10001E5C0, symSize: 0x50 }
  - { offset: 0x593D5, size: 0x8, addend: 0x0, symName: __ZNKSt3__16vectorINS0_IN7doctest6StringENS_9allocatorIS2_EEEENS3_IS5_EEE9__end_capB8ne180100Ev, symObjAddr: 0x1CF50, symBinAddr: 0x10001E610, symSize: 0x20 }
  - { offset: 0x593FB, size: 0x8, addend: 0x0, symName: __ZNKSt3__117__compressed_pairIPNS_6vectorIN7doctest6StringENS_9allocatorIS3_EEEENS4_IS6_EEE5firstB8ne180100Ev, symObjAddr: 0x1CF70, symBinAddr: 0x10001E630, symSize: 0x20 }
  - { offset: 0x59421, size: 0x8, addend: 0x0, symName: __ZNKSt3__122__compressed_pair_elemIPNS_6vectorIN7doctest6StringENS_9allocatorIS3_EEEELi0ELb0EE5__getB8ne180100Ev, symObjAddr: 0x1CF90, symBinAddr: 0x10001E650, symSize: 0x10 }
  - { offset: 0x59447, size: 0x8, addend: 0x0, symName: __ZNSt3__16vectorIPN7doctest9IReporterENS_9allocatorIS3_EEEC2B8ne180100Ev, symObjAddr: 0x1CFA0, symBinAddr: 0x10001E660, symSize: 0x50 }
  - { offset: 0x59471, size: 0x8, addend: 0x0, symName: __ZNSt3__117__compressed_pairIPPN7doctest9IReporterENS_9allocatorIS3_EEEC1B8ne180100IDnNS_18__default_init_tagEEEOT_OT0_, symObjAddr: 0x1CFF0, symBinAddr: 0x10001E6B0, symSize: 0x30 }
  - { offset: 0x594CB, size: 0x8, addend: 0x0, symName: __ZNSt3__117__compressed_pairIPPN7doctest9IReporterENS_9allocatorIS3_EEEC2B8ne180100IDnNS_18__default_init_tagEEEOT_OT0_, symObjAddr: 0x1D020, symBinAddr: 0x10001E6E0, symSize: 0x40 }
  - { offset: 0x59525, size: 0x8, addend: 0x0, symName: __ZNSt3__122__compressed_pair_elemIPPN7doctest9IReporterELi0ELb0EEC2B8ne180100IDnvEEOT_, symObjAddr: 0x1D060, symBinAddr: 0x10001E720, symSize: 0x20 }
  - { offset: 0x59568, size: 0x8, addend: 0x0, symName: __ZNSt3__122__compressed_pair_elemINS_9allocatorIPN7doctest9IReporterEEELi1ELb1EEC2B8ne180100ENS_18__default_init_tagE, symObjAddr: 0x1D080, symBinAddr: 0x10001E740, symSize: 0x20 }
  - { offset: 0x5959D, size: 0x8, addend: 0x0, symName: __ZNSt3__19allocatorIPN7doctest9IReporterEEC2B8ne180100Ev, symObjAddr: 0x1D0A0, symBinAddr: 0x10001E760, symSize: 0x20 }
  - { offset: 0x595C7, size: 0x8, addend: 0x0, symName: __ZNSt3__116__non_trivial_ifILb1ENS_9allocatorIPN7doctest9IReporterEEEEC2B8ne180100Ev, symObjAddr: 0x1D0C0, symBinAddr: 0x10001E780, symSize: 0x10 }
  - { offset: 0x595F1, size: 0x8, addend: 0x0, symName: __ZN7doctest6detail5TimerC2Ev, symObjAddr: 0x1D0D0, symBinAddr: 0x10001E790, symSize: 0x20 }
  - { offset: 0x5961E, size: 0x8, addend: 0x0, symName: __ZNSt3__16vectorIN7doctest6StringENS_9allocatorIS2_EEEC2B8ne180100Ev, symObjAddr: 0x1D0F0, symBinAddr: 0x10001E7B0, symSize: 0x50 }
  - { offset: 0x59648, size: 0x8, addend: 0x0, symName: __ZNSt3__117__compressed_pairIPN7doctest6StringENS_9allocatorIS2_EEEC1B8ne180100IDnNS_18__default_init_tagEEEOT_OT0_, symObjAddr: 0x1D140, symBinAddr: 0x10001E800, symSize: 0x30 }
  - { offset: 0x596A2, size: 0x8, addend: 0x0, symName: __ZNSt3__117__compressed_pairIPN7doctest6StringENS_9allocatorIS2_EEEC2B8ne180100IDnNS_18__default_init_tagEEEOT_OT0_, symObjAddr: 0x1D170, symBinAddr: 0x10001E830, symSize: 0x40 }
  - { offset: 0x596FC, size: 0x8, addend: 0x0, symName: __ZNSt3__122__compressed_pair_elemINS_9allocatorIN7doctest6StringEEELi1ELb1EEC2B8ne180100ENS_18__default_init_tagE, symObjAddr: 0x1D1B0, symBinAddr: 0x10001E870, symSize: 0x20 }
  - { offset: 0x59731, size: 0x8, addend: 0x0, symName: __ZNSt3__19allocatorIN7doctest6StringEEC2B8ne180100Ev, symObjAddr: 0x1D1D0, symBinAddr: 0x10001E890, symSize: 0x20 }
  - { offset: 0x5975B, size: 0x8, addend: 0x0, symName: __ZNSt3__116__non_trivial_ifILb1ENS_9allocatorIN7doctest6StringEEEEC2B8ne180100Ev, symObjAddr: 0x1D1F0, symBinAddr: 0x10001E8B0, symSize: 0x10 }
  - { offset: 0x59785, size: 0x8, addend: 0x0, symName: __ZNSt3__16vectorIN7doctest16SubcaseSignatureENS_9allocatorIS2_EEEC2B8ne180100Ev, symObjAddr: 0x1D200, symBinAddr: 0x10001E8C0, symSize: 0x50 }
  - { offset: 0x597AF, size: 0x8, addend: 0x0, symName: __ZNSt3__117__compressed_pairIPN7doctest16SubcaseSignatureENS_9allocatorIS2_EEEC1B8ne180100IDnNS_18__default_init_tagEEEOT_OT0_, symObjAddr: 0x1D250, symBinAddr: 0x10001E910, symSize: 0x30 }
  - { offset: 0x59809, size: 0x8, addend: 0x0, symName: __ZNSt3__117__compressed_pairIPN7doctest16SubcaseSignatureENS_9allocatorIS2_EEEC2B8ne180100IDnNS_18__default_init_tagEEEOT_OT0_, symObjAddr: 0x1D280, symBinAddr: 0x10001E940, symSize: 0x40 }
  - { offset: 0x59863, size: 0x8, addend: 0x0, symName: __ZNSt3__122__compressed_pair_elemINS_9allocatorIN7doctest16SubcaseSignatureEEELi1ELb1EEC2B8ne180100ENS_18__default_init_tagE, symObjAddr: 0x1D2C0, symBinAddr: 0x10001E980, symSize: 0x20 }
  - { offset: 0x59898, size: 0x8, addend: 0x0, symName: __ZNSt3__19allocatorIN7doctest16SubcaseSignatureEEC2B8ne180100Ev, symObjAddr: 0x1D2E0, symBinAddr: 0x10001E9A0, symSize: 0x20 }
  - { offset: 0x598C2, size: 0x8, addend: 0x0, symName: __ZNSt3__116__non_trivial_ifILb1ENS_9allocatorIN7doctest16SubcaseSignatureEEEEC2B8ne180100Ev, symObjAddr: 0x1D300, symBinAddr: 0x10001E9C0, symSize: 0x10 }
  - { offset: 0x598EC, size: 0x8, addend: 0x0, symName: __ZNSt3__113unordered_setIyNS_4hashIyEENS_8equal_toIyEENS_9allocatorIyEEEC2B8ne180100Ev, symObjAddr: 0x1D310, symBinAddr: 0x10001E9D0, symSize: 0x20 }
  - { offset: 0x59916, size: 0x8, addend: 0x0, symName: __ZNSt3__112__hash_tableIyNS_4hashIyEENS_8equal_toIyEENS_9allocatorIyEEEC1Ev, symObjAddr: 0x1D330, symBinAddr: 0x10001E9F0, symSize: 0x20 }
  - { offset: 0x59942, size: 0x8, addend: 0x0, symName: __ZNSt3__112__hash_tableIyNS_4hashIyEENS_8equal_toIyEENS_9allocatorIyEEEC2Ev, symObjAddr: 0x1D350, symBinAddr: 0x10001EA10, symSize: 0x80 }
  - { offset: 0x5996E, size: 0x8, addend: 0x0, symName: __ZNSt3__110unique_ptrIA_PNS_16__hash_node_baseIPNS_11__hash_nodeIyPvEEEENS_25__bucket_list_deallocatorINS_9allocatorIS7_EEEEEC1B8ne180100ILb1EvEEv, symObjAddr: 0x1D3D0, symBinAddr: 0x10001EA90, symSize: 0x20 }
  - { offset: 0x599A3, size: 0x8, addend: 0x0, symName: __ZNSt3__117__compressed_pairINS_16__hash_node_baseIPNS_11__hash_nodeIyPvEEEENS_9allocatorIS4_EEEC1B8ne180100ILb1EvEEv, symObjAddr: 0x1D3F0, symBinAddr: 0x10001EAB0, symSize: 0x20 }
  - { offset: 0x599DE, size: 0x8, addend: 0x0, symName: __ZNSt3__117__compressed_pairImNS_4hashIyEEEC1B8ne180100IiNS_18__default_init_tagEEEOT_OT0_, symObjAddr: 0x1D410, symBinAddr: 0x10001EAD0, symSize: 0x30 }
  - { offset: 0x59A3E, size: 0x8, addend: 0x0, symName: __ZNSt3__117__compressed_pairIfNS_8equal_toIyEEEC1B8ne180100IfNS_18__default_init_tagEEEOT_OT0_, symObjAddr: 0x1D440, symBinAddr: 0x10001EB00, symSize: 0x30 }
  - { offset: 0x59A98, size: 0x8, addend: 0x0, symName: __ZNSt3__110unique_ptrIA_PNS_16__hash_node_baseIPNS_11__hash_nodeIyPvEEEENS_25__bucket_list_deallocatorINS_9allocatorIS7_EEEEEC2B8ne180100ILb1EvEEv, symObjAddr: 0x1D470, symBinAddr: 0x10001EB30, symSize: 0x30 }
  - { offset: 0x59AD3, size: 0x8, addend: 0x0, symName: __ZNSt3__117__compressed_pairIPPNS_16__hash_node_baseIPNS_11__hash_nodeIyPvEEEENS_25__bucket_list_deallocatorINS_9allocatorIS7_EEEEEC1B8ne180100INS_16__value_init_tagESF_EEOT_OT0_, symObjAddr: 0x1D4A0, symBinAddr: 0x10001EB60, symSize: 0x30 }
  - { offset: 0x59B2D, size: 0x8, addend: 0x0, symName: __ZNSt3__117__compressed_pairIPPNS_16__hash_node_baseIPNS_11__hash_nodeIyPvEEEENS_25__bucket_list_deallocatorINS_9allocatorIS7_EEEEEC2B8ne180100INS_16__value_init_tagESF_EEOT_OT0_, symObjAddr: 0x1D4D0, symBinAddr: 0x10001EB90, symSize: 0x40 }
  - { offset: 0x59B87, size: 0x8, addend: 0x0, symName: __ZNSt3__122__compressed_pair_elemIPPNS_16__hash_node_baseIPNS_11__hash_nodeIyPvEEEELi0ELb0EEC2B8ne180100ENS_16__value_init_tagE, symObjAddr: 0x1D510, symBinAddr: 0x10001EBD0, symSize: 0x20 }
  - { offset: 0x59BBC, size: 0x8, addend: 0x0, symName: __ZNSt3__122__compressed_pair_elemINS_25__bucket_list_deallocatorINS_9allocatorIPNS_16__hash_node_baseIPNS_11__hash_nodeIyPvEEEEEEEELi1ELb0EEC2B8ne180100ENS_16__value_init_tagE, symObjAddr: 0x1D530, symBinAddr: 0x10001EBF0, symSize: 0x20 }
  - { offset: 0x59BF1, size: 0x8, addend: 0x0, symName: __ZNSt3__125__bucket_list_deallocatorINS_9allocatorIPNS_16__hash_node_baseIPNS_11__hash_nodeIyPvEEEEEEEC1B8ne180100Ev, symObjAddr: 0x1D550, symBinAddr: 0x10001EC10, symSize: 0x20 }
  - { offset: 0x59C1B, size: 0x8, addend: 0x0, symName: __ZNSt3__125__bucket_list_deallocatorINS_9allocatorIPNS_16__hash_node_baseIPNS_11__hash_nodeIyPvEEEEEEEC2B8ne180100Ev, symObjAddr: 0x1D570, symBinAddr: 0x10001EC30, symSize: 0x40 }
  - { offset: 0x59C45, size: 0x8, addend: 0x0, symName: __ZNSt3__117__compressed_pairImNS_9allocatorIPNS_16__hash_node_baseIPNS_11__hash_nodeIyPvEEEEEEEC1B8ne180100IiNS_18__default_init_tagEEEOT_OT0_, symObjAddr: 0x1D5B0, symBinAddr: 0x10001EC70, symSize: 0x30 }
  - { offset: 0x59C9F, size: 0x8, addend: 0x0, symName: __ZNSt3__117__compressed_pairImNS_9allocatorIPNS_16__hash_node_baseIPNS_11__hash_nodeIyPvEEEEEEEC2B8ne180100IiNS_18__default_init_tagEEEOT_OT0_, symObjAddr: 0x1D5E0, symBinAddr: 0x10001ECA0, symSize: 0x40 }
  - { offset: 0x59CF9, size: 0x8, addend: 0x0, symName: __ZNSt3__122__compressed_pair_elemImLi0ELb0EEC2B8ne180100IivEEOT_, symObjAddr: 0x1D620, symBinAddr: 0x10001ECE0, symSize: 0x20 }
  - { offset: 0x59D3C, size: 0x8, addend: 0x0, symName: __ZNSt3__122__compressed_pair_elemINS_9allocatorIPNS_16__hash_node_baseIPNS_11__hash_nodeIyPvEEEEEELi1ELb1EEC2B8ne180100ENS_18__default_init_tagE, symObjAddr: 0x1D640, symBinAddr: 0x10001ED00, symSize: 0x20 }
  - { offset: 0x59D71, size: 0x8, addend: 0x0, symName: __ZNSt3__19allocatorIPNS_16__hash_node_baseIPNS_11__hash_nodeIyPvEEEEEC2B8ne180100Ev, symObjAddr: 0x1D660, symBinAddr: 0x10001ED20, symSize: 0x20 }
  - { offset: 0x59D9B, size: 0x8, addend: 0x0, symName: __ZNSt3__116__non_trivial_ifILb1ENS_9allocatorIPNS_16__hash_node_baseIPNS_11__hash_nodeIyPvEEEEEEEC2B8ne180100Ev, symObjAddr: 0x1D680, symBinAddr: 0x10001ED40, symSize: 0x10 }
  - { offset: 0x59DC5, size: 0x8, addend: 0x0, symName: __ZNSt3__117__compressed_pairINS_16__hash_node_baseIPNS_11__hash_nodeIyPvEEEENS_9allocatorIS4_EEEC2B8ne180100ILb1EvEEv, symObjAddr: 0x1D690, symBinAddr: 0x10001ED50, symSize: 0x30 }
  - { offset: 0x59DFA, size: 0x8, addend: 0x0, symName: __ZNSt3__122__compressed_pair_elemINS_16__hash_node_baseIPNS_11__hash_nodeIyPvEEEELi0ELb0EEC2B8ne180100ENS_16__value_init_tagE, symObjAddr: 0x1D6C0, symBinAddr: 0x10001ED80, symSize: 0x20 }
  - { offset: 0x59E2F, size: 0x8, addend: 0x0, symName: __ZNSt3__122__compressed_pair_elemINS_9allocatorINS_11__hash_nodeIyPvEEEELi1ELb1EEC2B8ne180100ENS_16__value_init_tagE, symObjAddr: 0x1D6E0, symBinAddr: 0x10001EDA0, symSize: 0x20 }
  - { offset: 0x59E64, size: 0x8, addend: 0x0, symName: __ZNSt3__116__hash_node_baseIPNS_11__hash_nodeIyPvEEEC1B8ne180100Ev, symObjAddr: 0x1D700, symBinAddr: 0x10001EDC0, symSize: 0x20 }
  - { offset: 0x59E8E, size: 0x8, addend: 0x0, symName: __ZNSt3__116__hash_node_baseIPNS_11__hash_nodeIyPvEEEC2B8ne180100Ev, symObjAddr: 0x1D720, symBinAddr: 0x10001EDE0, symSize: 0x20 }
  - { offset: 0x59EB8, size: 0x8, addend: 0x0, symName: __ZNSt3__19allocatorINS_11__hash_nodeIyPvEEEC2B8ne180100Ev, symObjAddr: 0x1D740, symBinAddr: 0x10001EE00, symSize: 0x20 }
  - { offset: 0x59EE2, size: 0x8, addend: 0x0, symName: __ZNSt3__116__non_trivial_ifILb1ENS_9allocatorINS_11__hash_nodeIyPvEEEEEC2B8ne180100Ev, symObjAddr: 0x1D760, symBinAddr: 0x10001EE20, symSize: 0x10 }
  - { offset: 0x59F0C, size: 0x8, addend: 0x0, symName: __ZNSt3__117__compressed_pairImNS_4hashIyEEEC2B8ne180100IiNS_18__default_init_tagEEEOT_OT0_, symObjAddr: 0x1D770, symBinAddr: 0x10001EE30, symSize: 0x40 }
  - { offset: 0x59F66, size: 0x8, addend: 0x0, symName: __ZNSt3__122__compressed_pair_elemINS_4hashIyEELi1ELb1EEC2B8ne180100ENS_18__default_init_tagE, symObjAddr: 0x1D7B0, symBinAddr: 0x10001EE70, symSize: 0x10 }
  - { offset: 0x59F9B, size: 0x8, addend: 0x0, symName: __ZNSt3__117__compressed_pairIfNS_8equal_toIyEEEC2B8ne180100IfNS_18__default_init_tagEEEOT_OT0_, symObjAddr: 0x1D7C0, symBinAddr: 0x10001EE80, symSize: 0x40 }
  - { offset: 0x59FF5, size: 0x8, addend: 0x0, symName: __ZNSt3__122__compressed_pair_elemIfLi0ELb0EEC2B8ne180100IfvEEOT_, symObjAddr: 0x1D800, symBinAddr: 0x10001EEC0, symSize: 0x20 }
  - { offset: 0x5A038, size: 0x8, addend: 0x0, symName: __ZNSt3__122__compressed_pair_elemINS_8equal_toIyEELi1ELb1EEC2B8ne180100ENS_18__default_init_tagE, symObjAddr: 0x1D820, symBinAddr: 0x10001EEE0, symSize: 0x10 }
  - { offset: 0x5A06D, size: 0x8, addend: 0x0, symName: __ZNSt3__16atomicIbEC2B8ne180100Ev, symObjAddr: 0x1D830, symBinAddr: 0x10001EEF0, symSize: 0x20 }
  - { offset: 0x5A097, size: 0x8, addend: 0x0, symName: __ZNSt3__113__atomic_baseIbLb0EEC2B8ne180100Ev, symObjAddr: 0x1D850, symBinAddr: 0x10001EF10, symSize: 0x20 }
  - { offset: 0x5A0C1, size: 0x8, addend: 0x0, symName: __ZNSt3__117__cxx_atomic_implIbNS_22__cxx_atomic_base_implIbEEEC1B8ne180100Eb, symObjAddr: 0x1D870, symBinAddr: 0x10001EF30, symSize: 0x30 }
  - { offset: 0x5A0FA, size: 0x8, addend: 0x0, symName: __ZNSt3__117__cxx_atomic_implIbNS_22__cxx_atomic_base_implIbEEEC2B8ne180100Eb, symObjAddr: 0x1D8A0, symBinAddr: 0x10001EF60, symSize: 0x30 }
  - { offset: 0x5A133, size: 0x8, addend: 0x0, symName: __ZNSt3__122__cxx_atomic_base_implIbEC2Eb, symObjAddr: 0x1D8D0, symBinAddr: 0x10001EF90, symSize: 0x20 }
  - { offset: 0x5A16C, size: 0x8, addend: 0x0, symName: __ZN7doctest6detail12ContextStateD2Ev, symObjAddr: 0x1D8F0, symBinAddr: 0x10001EFB0, symSize: 0x80 }
  - { offset: 0x5A199, size: 0x8, addend: 0x0, symName: __ZNSt3__113unordered_setIyNS_4hashIyEENS_8equal_toIyEENS_9allocatorIyEEED1B8ne180100Ev, symObjAddr: 0x1D970, symBinAddr: 0x10001F030, symSize: 0x20 }
  - { offset: 0x5A1C3, size: 0x8, addend: 0x0, symName: __ZNSt3__16vectorIN7doctest16SubcaseSignatureENS_9allocatorIS2_EEED1B8ne180100Ev, symObjAddr: 0x1D990, symBinAddr: 0x10001F050, symSize: 0x20 }
  - { offset: 0x5A1ED, size: 0x8, addend: 0x0, symName: __ZNSt3__16vectorIPN7doctest9IReporterENS_9allocatorIS3_EEED1B8ne180100Ev, symObjAddr: 0x1D9B0, symBinAddr: 0x10001F070, symSize: 0x20 }
  - { offset: 0x5A217, size: 0x8, addend: 0x0, symName: __ZNSt3__16vectorINS0_IN7doctest6StringENS_9allocatorIS2_EEEENS3_IS5_EEED1B8ne180100Ev, symObjAddr: 0x1D9D0, symBinAddr: 0x10001F090, symSize: 0x20 }
  - { offset: 0x5A241, size: 0x8, addend: 0x0, symName: __ZNSt3__113unordered_setIyNS_4hashIyEENS_8equal_toIyEENS_9allocatorIyEEED2B8ne180100Ev, symObjAddr: 0x1D9F0, symBinAddr: 0x10001F0B0, symSize: 0x20 }
  - { offset: 0x5A26B, size: 0x8, addend: 0x0, symName: __ZNSt3__112__hash_tableIyNS_4hashIyEENS_8equal_toIyEENS_9allocatorIyEEED1Ev, symObjAddr: 0x1DA10, symBinAddr: 0x10001F0D0, symSize: 0x20 }
  - { offset: 0x5A297, size: 0x8, addend: 0x0, symName: __ZNSt3__112__hash_tableIyNS_4hashIyEENS_8equal_toIyEENS_9allocatorIyEEED2Ev, symObjAddr: 0x1DA30, symBinAddr: 0x10001F0F0, symSize: 0x40 }
  - { offset: 0x5A2C3, size: 0x8, addend: 0x0, symName: __ZNSt3__112__hash_tableIyNS_4hashIyEENS_8equal_toIyEENS_9allocatorIyEEE17__deallocate_nodeEPNS_16__hash_node_baseIPNS_11__hash_nodeIyPvEEEE, symObjAddr: 0x1DA70, symBinAddr: 0x10001F130, symSize: 0xC0 }
  - { offset: 0x5A32D, size: 0x8, addend: 0x0, symName: __ZNSt3__117__compressed_pairINS_16__hash_node_baseIPNS_11__hash_nodeIyPvEEEENS_9allocatorIS4_EEE5firstB8ne180100Ev, symObjAddr: 0x1DB30, symBinAddr: 0x10001F1F0, symSize: 0x20 }
  - { offset: 0x5A353, size: 0x8, addend: 0x0, symName: __ZNSt3__110unique_ptrIA_PNS_16__hash_node_baseIPNS_11__hash_nodeIyPvEEEENS_25__bucket_list_deallocatorINS_9allocatorIS7_EEEEED1B8ne180100Ev, symObjAddr: 0x1DB50, symBinAddr: 0x10001F210, symSize: 0x20 }
  - { offset: 0x5A37D, size: 0x8, addend: 0x0, symName: __ZNSt3__112__hash_tableIyNS_4hashIyEENS_8equal_toIyEENS_9allocatorIyEEE12__node_allocB8ne180100Ev, symObjAddr: 0x1DB70, symBinAddr: 0x10001F230, symSize: 0x20 }
  - { offset: 0x5A3A3, size: 0x8, addend: 0x0, symName: __ZNSt3__116__hash_node_baseIPNS_11__hash_nodeIyPvEEE8__upcastB8ne180100Ev, symObjAddr: 0x1DB90, symBinAddr: 0x10001F250, symSize: 0x20 }
  - { offset: 0x5A3C9, size: 0x8, addend: 0x0, symName: __ZNSt3__116allocator_traitsINS_9allocatorINS_11__hash_nodeIyPvEEEEE7destroyB8ne180100IyvvEEvRS5_PT_, symObjAddr: 0x1DBB0, symBinAddr: 0x10001F270, symSize: 0x20 }
  - { offset: 0x5A403, size: 0x8, addend: 0x0, symName: __ZNSt3__122__hash_key_value_typesIyE9__get_ptrB8ne180100ERy, symObjAddr: 0x1DBD0, symBinAddr: 0x10001F290, symSize: 0x10 }
  - { offset: 0x5A427, size: 0x8, addend: 0x0, symName: __ZNSt3__111__hash_nodeIyPvE11__get_valueB8ne180100Ev, symObjAddr: 0x1DBE0, symBinAddr: 0x10001F2A0, symSize: 0x20 }
  - { offset: 0x5A44D, size: 0x8, addend: 0x0, symName: __ZNSt3__116allocator_traitsINS_9allocatorINS_11__hash_nodeIyPvEEEEE10deallocateB8ne180100ERS5_PS4_m, symObjAddr: 0x1DC20, symBinAddr: 0x10001F2E0, symSize: 0x30 }
  - { offset: 0x5A48F, size: 0x8, addend: 0x0, symName: __ZNSt3__117__compressed_pairINS_16__hash_node_baseIPNS_11__hash_nodeIyPvEEEENS_9allocatorIS4_EEE6secondB8ne180100Ev, symObjAddr: 0x1DC50, symBinAddr: 0x10001F310, symSize: 0x20 }
  - { offset: 0x5A4B5, size: 0x8, addend: 0x0, symName: __ZNSt3__122__compressed_pair_elemINS_9allocatorINS_11__hash_nodeIyPvEEEELi1ELb1EE5__getB8ne180100Ev, symObjAddr: 0x1DC70, symBinAddr: 0x10001F330, symSize: 0x10 }
  - { offset: 0x5A4DB, size: 0x8, addend: 0x0, symName: __ZNSt3__114pointer_traitsIPNS_16__hash_node_baseIPNS_11__hash_nodeIyPvEEEEE10pointer_toB8ne180100ERS6_, symObjAddr: 0x1DC80, symBinAddr: 0x10001F340, symSize: 0x10 }
  - { offset: 0x5A4FF, size: 0x8, addend: 0x0, symName: __ZNSt3__111__hash_nodeIyPvED1B8ne180100Ev, symObjAddr: 0x1DCA0, symBinAddr: 0x10001F360, symSize: 0x20 }
  - { offset: 0x5A529, size: 0x8, addend: 0x0, symName: __ZNSt3__111__hash_nodeIyPvED2B8ne180100Ev, symObjAddr: 0x1DCC0, symBinAddr: 0x10001F380, symSize: 0x10 }
  - { offset: 0x5A553, size: 0x8, addend: 0x0, symName: __ZNSt3__19allocatorINS_11__hash_nodeIyPvEEE10deallocateB8ne180100EPS3_m, symObjAddr: 0x1DCD0, symBinAddr: 0x10001F390, symSize: 0x50 }
  - { offset: 0x5A597, size: 0x8, addend: 0x0, symName: __ZNSt3__122__compressed_pair_elemINS_16__hash_node_baseIPNS_11__hash_nodeIyPvEEEELi0ELb0EE5__getB8ne180100Ev, symObjAddr: 0x1DD20, symBinAddr: 0x10001F3E0, symSize: 0x10 }
  - { offset: 0x5A5BD, size: 0x8, addend: 0x0, symName: __ZNSt3__110unique_ptrIA_PNS_16__hash_node_baseIPNS_11__hash_nodeIyPvEEEENS_25__bucket_list_deallocatorINS_9allocatorIS7_EEEEED2B8ne180100Ev, symObjAddr: 0x1DD30, symBinAddr: 0x10001F3F0, symSize: 0x20 }
  - { offset: 0x5A5E7, size: 0x8, addend: 0x0, symName: __ZNSt3__110unique_ptrIA_PNS_16__hash_node_baseIPNS_11__hash_nodeIyPvEEEENS_25__bucket_list_deallocatorINS_9allocatorIS7_EEEEE5resetB8ne180100EDn, symObjAddr: 0x1DD50, symBinAddr: 0x10001F410, symSize: 0x60 }
  - { offset: 0x5A627, size: 0x8, addend: 0x0, symName: __ZNSt3__117__compressed_pairIPPNS_16__hash_node_baseIPNS_11__hash_nodeIyPvEEEENS_25__bucket_list_deallocatorINS_9allocatorIS7_EEEEE5firstB8ne180100Ev, symObjAddr: 0x1DDB0, symBinAddr: 0x10001F470, symSize: 0x20 }
  - { offset: 0x5A64D, size: 0x8, addend: 0x0, symName: __ZNSt3__117__compressed_pairIPPNS_16__hash_node_baseIPNS_11__hash_nodeIyPvEEEENS_25__bucket_list_deallocatorINS_9allocatorIS7_EEEEE6secondB8ne180100Ev, symObjAddr: 0x1DDD0, symBinAddr: 0x10001F490, symSize: 0x20 }
  - { offset: 0x5A673, size: 0x8, addend: 0x0, symName: __ZNSt3__125__bucket_list_deallocatorINS_9allocatorIPNS_16__hash_node_baseIPNS_11__hash_nodeIyPvEEEEEEEclB8ne180100EPS8_, symObjAddr: 0x1DDF0, symBinAddr: 0x10001F4B0, symSize: 0x50 }
  - { offset: 0x5A6A8, size: 0x8, addend: 0x0, symName: __ZNSt3__122__compressed_pair_elemIPPNS_16__hash_node_baseIPNS_11__hash_nodeIyPvEEEELi0ELb0EE5__getB8ne180100Ev, symObjAddr: 0x1DE40, symBinAddr: 0x10001F500, symSize: 0x10 }
  - { offset: 0x5A6CE, size: 0x8, addend: 0x0, symName: __ZNSt3__122__compressed_pair_elemINS_25__bucket_list_deallocatorINS_9allocatorIPNS_16__hash_node_baseIPNS_11__hash_nodeIyPvEEEEEEEELi1ELb0EE5__getB8ne180100Ev, symObjAddr: 0x1DE50, symBinAddr: 0x10001F510, symSize: 0x10 }
  - { offset: 0x5A6F4, size: 0x8, addend: 0x0, symName: __ZNSt3__116allocator_traitsINS_9allocatorIPNS_16__hash_node_baseIPNS_11__hash_nodeIyPvEEEEEEE10deallocateB8ne180100ERS9_PS8_m, symObjAddr: 0x1DE60, symBinAddr: 0x10001F520, symSize: 0x30 }
  - { offset: 0x5A736, size: 0x8, addend: 0x0, symName: __ZNSt3__125__bucket_list_deallocatorINS_9allocatorIPNS_16__hash_node_baseIPNS_11__hash_nodeIyPvEEEEEEE7__allocB8ne180100Ev, symObjAddr: 0x1DE90, symBinAddr: 0x10001F550, symSize: 0x20 }
  - { offset: 0x5A75C, size: 0x8, addend: 0x0, symName: __ZNSt3__125__bucket_list_deallocatorINS_9allocatorIPNS_16__hash_node_baseIPNS_11__hash_nodeIyPvEEEEEEE4sizeB8ne180100Ev, symObjAddr: 0x1DEB0, symBinAddr: 0x10001F570, symSize: 0x20 }
  - { offset: 0x5A782, size: 0x8, addend: 0x0, symName: __ZNSt3__19allocatorIPNS_16__hash_node_baseIPNS_11__hash_nodeIyPvEEEEE10deallocateB8ne180100EPS7_m, symObjAddr: 0x1DED0, symBinAddr: 0x10001F590, symSize: 0x40 }
  - { offset: 0x5A7C6, size: 0x8, addend: 0x0, symName: __ZNSt3__117__compressed_pairImNS_9allocatorIPNS_16__hash_node_baseIPNS_11__hash_nodeIyPvEEEEEEE6secondB8ne180100Ev, symObjAddr: 0x1DF10, symBinAddr: 0x10001F5D0, symSize: 0x20 }
  - { offset: 0x5A7EC, size: 0x8, addend: 0x0, symName: __ZNSt3__122__compressed_pair_elemINS_9allocatorIPNS_16__hash_node_baseIPNS_11__hash_nodeIyPvEEEEEELi1ELb1EE5__getB8ne180100Ev, symObjAddr: 0x1DF30, symBinAddr: 0x10001F5F0, symSize: 0x10 }
  - { offset: 0x5A812, size: 0x8, addend: 0x0, symName: __ZNSt3__117__compressed_pairImNS_9allocatorIPNS_16__hash_node_baseIPNS_11__hash_nodeIyPvEEEEEEE5firstB8ne180100Ev, symObjAddr: 0x1DF40, symBinAddr: 0x10001F600, symSize: 0x20 }
  - { offset: 0x5A838, size: 0x8, addend: 0x0, symName: __ZNSt3__122__compressed_pair_elemImLi0ELb0EE5__getB8ne180100Ev, symObjAddr: 0x1DF60, symBinAddr: 0x10001F620, symSize: 0x10 }
  - { offset: 0x5A85E, size: 0x8, addend: 0x0, symName: __ZNSt3__16vectorIN7doctest16SubcaseSignatureENS_9allocatorIS2_EEED2B8ne180100Ev, symObjAddr: 0x1DF70, symBinAddr: 0x10001F630, symSize: 0x40 }
  - { offset: 0x5A888, size: 0x8, addend: 0x0, symName: __ZNSt3__16vectorIN7doctest16SubcaseSignatureENS_9allocatorIS2_EEE16__destroy_vectorC1B8ne180100ERS5_, symObjAddr: 0x1DFB0, symBinAddr: 0x10001F670, symSize: 0x30 }
  - { offset: 0x5A8C1, size: 0x8, addend: 0x0, symName: __ZNSt3__16vectorIN7doctest16SubcaseSignatureENS_9allocatorIS2_EEE16__destroy_vectorclB8ne180100Ev, symObjAddr: 0x1DFE0, symBinAddr: 0x10001F6A0, symSize: 0x80 }
  - { offset: 0x5A8E7, size: 0x8, addend: 0x0, symName: __ZNSt3__16vectorIN7doctest16SubcaseSignatureENS_9allocatorIS2_EEE16__destroy_vectorC2B8ne180100ERS5_, symObjAddr: 0x1E060, symBinAddr: 0x10001F720, symSize: 0x20 }
  - { offset: 0x5A920, size: 0x8, addend: 0x0, symName: __ZNSt3__16vectorIPN7doctest9IReporterENS_9allocatorIS3_EEED2B8ne180100Ev, symObjAddr: 0x1E080, symBinAddr: 0x10001F740, symSize: 0x40 }
  - { offset: 0x5A94A, size: 0x8, addend: 0x0, symName: __ZNSt3__16vectorIPN7doctest9IReporterENS_9allocatorIS3_EEE16__destroy_vectorC1B8ne180100ERS6_, symObjAddr: 0x1E0C0, symBinAddr: 0x10001F780, symSize: 0x30 }
  - { offset: 0x5A983, size: 0x8, addend: 0x0, symName: __ZNSt3__16vectorIPN7doctest9IReporterENS_9allocatorIS3_EEE16__destroy_vectorclB8ne180100Ev, symObjAddr: 0x1E0F0, symBinAddr: 0x10001F7B0, symSize: 0x80 }
  - { offset: 0x5A9A9, size: 0x8, addend: 0x0, symName: __ZNSt3__16vectorIPN7doctest9IReporterENS_9allocatorIS3_EEE16__destroy_vectorC2B8ne180100ERS6_, symObjAddr: 0x1E170, symBinAddr: 0x10001F830, symSize: 0x20 }
  - { offset: 0x5A9E2, size: 0x8, addend: 0x0, symName: __ZNSt3__16vectorIPN7doctest9IReporterENS_9allocatorIS3_EEE7__clearB8ne180100Ev, symObjAddr: 0x1E190, symBinAddr: 0x10001F850, symSize: 0x20 }
  - { offset: 0x5AA08, size: 0x8, addend: 0x0, symName: __ZNKSt3__16vectorIPN7doctest9IReporterENS_9allocatorIS3_EEE17__annotate_deleteB8ne180100Ev, symObjAddr: 0x1E1B0, symBinAddr: 0x10001F870, symSize: 0x10 }
  - { offset: 0x5AA2E, size: 0x8, addend: 0x0, symName: __ZNSt3__116allocator_traitsINS_9allocatorIPN7doctest9IReporterEEEE10deallocateB8ne180100ERS5_PS4_m, symObjAddr: 0x1E1C0, symBinAddr: 0x10001F880, symSize: 0x30 }
  - { offset: 0x5AA70, size: 0x8, addend: 0x0, symName: __ZNSt3__16vectorIPN7doctest9IReporterENS_9allocatorIS3_EEE7__allocB8ne180100Ev, symObjAddr: 0x1E1F0, symBinAddr: 0x10001F8B0, symSize: 0x20 }
  - { offset: 0x5AA96, size: 0x8, addend: 0x0, symName: __ZNKSt3__16vectorIPN7doctest9IReporterENS_9allocatorIS3_EEE8capacityB8ne180100Ev, symObjAddr: 0x1E210, symBinAddr: 0x10001F8D0, symSize: 0x30 }
  - { offset: 0x5AABC, size: 0x8, addend: 0x0, symName: __ZNSt3__16vectorIPN7doctest9IReporterENS_9allocatorIS3_EEE22__base_destruct_at_endB8ne180100EPS3_, symObjAddr: 0x1E240, symBinAddr: 0x10001F900, symSize: 0x80 }
  - { offset: 0x5AB00, size: 0x8, addend: 0x0, symName: __ZNSt3__116allocator_traitsINS_9allocatorIPN7doctest9IReporterEEEE7destroyB8ne180100IS4_vvEEvRS5_PT_, symObjAddr: 0x1E2C0, symBinAddr: 0x10001F980, symSize: 0x20 }
  - { offset: 0x5AB3A, size: 0x8, addend: 0x0, symName: __ZNSt3__19allocatorIPN7doctest9IReporterEE10deallocateB8ne180100EPS3_m, symObjAddr: 0x1E300, symBinAddr: 0x10001F9C0, symSize: 0x40 }
  - { offset: 0x5AB7E, size: 0x8, addend: 0x0, symName: __ZNSt3__117__compressed_pairIPPN7doctest9IReporterENS_9allocatorIS3_EEE6secondB8ne180100Ev, symObjAddr: 0x1E340, symBinAddr: 0x10001FA00, symSize: 0x20 }
  - { offset: 0x5ABA4, size: 0x8, addend: 0x0, symName: __ZNSt3__122__compressed_pair_elemINS_9allocatorIPN7doctest9IReporterEEELi1ELb1EE5__getB8ne180100Ev, symObjAddr: 0x1E360, symBinAddr: 0x10001FA20, symSize: 0x10 }
  - { offset: 0x5ABCA, size: 0x8, addend: 0x0, symName: __ZNKSt3__16vectorIPN7doctest9IReporterENS_9allocatorIS3_EEE9__end_capB8ne180100Ev, symObjAddr: 0x1E370, symBinAddr: 0x10001FA30, symSize: 0x20 }
  - { offset: 0x5ABF0, size: 0x8, addend: 0x0, symName: __ZNKSt3__117__compressed_pairIPPN7doctest9IReporterENS_9allocatorIS3_EEE5firstB8ne180100Ev, symObjAddr: 0x1E390, symBinAddr: 0x10001FA50, symSize: 0x20 }
  - { offset: 0x5AC16, size: 0x8, addend: 0x0, symName: __ZNKSt3__122__compressed_pair_elemIPPN7doctest9IReporterELi0ELb0EE5__getB8ne180100Ev, symObjAddr: 0x1E3B0, symBinAddr: 0x10001FA70, symSize: 0x10 }
  - { offset: 0x5AC3C, size: 0x8, addend: 0x0, symName: __ZNSt3__16vectorINS0_IN7doctest6StringENS_9allocatorIS2_EEEENS3_IS5_EEED2B8ne180100Ev, symObjAddr: 0x1E3C0, symBinAddr: 0x10001FA80, symSize: 0x40 }
  - { offset: 0x5AC71, size: 0x8, addend: 0x0, symName: '__ZZN7doctest12_GLOBAL__N_117parseCommaSepArgsEiPKPKcS2_RNSt3__16vectorINS_6StringENS5_9allocatorIS7_EEEEENK3$_0clEv', symObjAddr: 0x1E400, symBinAddr: 0x10001FAC0, symSize: 0x190 }
  - { offset: 0x5ACAA, size: 0x8, addend: 0x0, symName: __ZNKSt3__112basic_stringIcNS_11char_traitsIcEENS_9allocatorIcEEE4sizeB8ne180100Ev, symObjAddr: 0x1E590, symBinAddr: 0x10001FC50, symSize: 0x50 }
  - { offset: 0x5ACD0, size: 0x8, addend: 0x0, symName: __ZNSt3__119basic_ostringstreamIcNS_11char_traitsIcEENS_9allocatorIcEEE3strB8ne180100EONS_12basic_stringIcS2_S4_EE, symObjAddr: 0x1E5E0, symBinAddr: 0x10001FCA0, symSize: 0x30 }
  - { offset: 0x5AD0B, size: 0x8, addend: 0x0, symName: __ZNSt3__112basic_stringIcNS_11char_traitsIcEENS_9allocatorIcEEEC1B8ne180100ILi0EEEPKc, symObjAddr: 0x1E610, symBinAddr: 0x10001FCD0, symSize: 0x30 }
  - { offset: 0x5AD4B, size: 0x8, addend: 0x0, symName: __ZNKSt3__112basic_stringIcNS_11char_traitsIcEENS_9allocatorIcEEE15__get_long_sizeB8ne180100Ev, symObjAddr: 0x1E640, symBinAddr: 0x10001FD00, symSize: 0x20 }
  - { offset: 0x5AD71, size: 0x8, addend: 0x0, symName: __ZNKSt3__112basic_stringIcNS_11char_traitsIcEENS_9allocatorIcEEE16__get_short_sizeB8ne180100Ev, symObjAddr: 0x1E660, symBinAddr: 0x10001FD20, symSize: 0x30 }
  - { offset: 0x5AD97, size: 0x8, addend: 0x0, symName: __ZNSt3__115basic_stringbufIcNS_11char_traitsIcEENS_9allocatorIcEEE3strB8ne180100EONS_12basic_stringIcS2_S4_EE, symObjAddr: 0x1E690, symBinAddr: 0x10001FD50, symSize: 0x40 }
  - { offset: 0x5ADCC, size: 0x8, addend: 0x0, symName: __ZNSt3__112basic_stringIcNS_11char_traitsIcEENS_9allocatorIcEEEaSB8ne180100EOS5_, symObjAddr: 0x1E6D0, symBinAddr: 0x10001FD90, symSize: 0x30 }
  - { offset: 0x5AE01, size: 0x8, addend: 0x0, symName: __ZNSt3__115basic_stringbufIcNS_11char_traitsIcEENS_9allocatorIcEEE15__init_buf_ptrsB8ne180100Ev, symObjAddr: 0x1E700, symBinAddr: 0x10001FDC0, symSize: 0x160 }
  - { offset: 0x5AE47, size: 0x8, addend: 0x0, symName: __ZNSt3__112basic_stringIcNS_11char_traitsIcEENS_9allocatorIcEEE13__move_assignB8ne180100ERS5_NS_17integral_constantIbLb1EEE, symObjAddr: 0x1E860, symBinAddr: 0x10001FF20, symSize: 0x160 }
  - { offset: 0x5AEA7, size: 0x8, addend: 0x0, symName: __ZNKSt3__112basic_stringIcNS_11char_traitsIcEENS_9allocatorIcEEE17__annotate_deleteB8ne180100Ev, symObjAddr: 0x1E9C0, symBinAddr: 0x100020080, symSize: 0x10 }
  - { offset: 0x5AECD, size: 0x8, addend: 0x0, symName: __ZNSt3__116allocator_traitsINS_9allocatorIcEEE10deallocateB8ne180100ERS2_Pcm, symObjAddr: 0x1E9D0, symBinAddr: 0x100020090, symSize: 0x30 }
  - { offset: 0x5AF0F, size: 0x8, addend: 0x0, symName: __ZNSt3__112basic_stringIcNS_11char_traitsIcEENS_9allocatorIcEEE7__allocB8ne180100Ev, symObjAddr: 0x1EA00, symBinAddr: 0x1000200C0, symSize: 0x20 }
  - { offset: 0x5AF35, size: 0x8, addend: 0x0, symName: __ZNSt3__112basic_stringIcNS_11char_traitsIcEENS_9allocatorIcEEE18__get_long_pointerB8ne180100Ev, symObjAddr: 0x1EA20, symBinAddr: 0x1000200E0, symSize: 0x20 }
  - { offset: 0x5AF5B, size: 0x8, addend: 0x0, symName: __ZNKSt3__112basic_stringIcNS_11char_traitsIcEENS_9allocatorIcEEE14__get_long_capB8ne180100Ev, symObjAddr: 0x1EA40, symBinAddr: 0x100020100, symSize: 0x30 }
  - { offset: 0x5AF81, size: 0x8, addend: 0x0, symName: __ZNSt3__112basic_stringIcNS_11char_traitsIcEENS_9allocatorIcEEE19__move_assign_allocB8ne180100ERS5_, symObjAddr: 0x1EA70, symBinAddr: 0x100020130, symSize: 0x30 }
  - { offset: 0x5AFB6, size: 0x8, addend: 0x0, symName: __ZNSt3__117__compressed_pairINS_12basic_stringIcNS_11char_traitsIcEENS_9allocatorIcEEE5__repES5_E5firstB8ne180100Ev, symObjAddr: 0x1EAA0, symBinAddr: 0x100020160, symSize: 0x20 }
  - { offset: 0x5AFDC, size: 0x8, addend: 0x0, symName: __ZNSt3__112basic_stringIcNS_11char_traitsIcEENS_9allocatorIcEEE16__set_short_sizeB8ne180100Em, symObjAddr: 0x1EAC0, symBinAddr: 0x100020180, symSize: 0x50 }
  - { offset: 0x5B011, size: 0x8, addend: 0x0, symName: __ZNSt3__111char_traitsIcE6assignB8ne180100ERcRKc, symObjAddr: 0x1EB10, symBinAddr: 0x1000201D0, symSize: 0x20 }
  - { offset: 0x5B044, size: 0x8, addend: 0x0, symName: __ZNSt3__112basic_stringIcNS_11char_traitsIcEENS_9allocatorIcEEE19__get_short_pointerB8ne180100Ev, symObjAddr: 0x1EB30, symBinAddr: 0x1000201F0, symSize: 0x30 }
  - { offset: 0x5B06A, size: 0x8, addend: 0x0, symName: __ZNKSt3__112basic_stringIcNS_11char_traitsIcEENS_9allocatorIcEEE17__annotate_shrinkB8ne180100Em, symObjAddr: 0x1EB60, symBinAddr: 0x100020220, symSize: 0x10 }
  - { offset: 0x5B09F, size: 0x8, addend: 0x0, symName: __ZNKSt3__112basic_stringIcNS_11char_traitsIcEENS_9allocatorIcEEE14__annotate_newB8ne180100Em, symObjAddr: 0x1EB70, symBinAddr: 0x100020230, symSize: 0x10 }
  - { offset: 0x5B0D4, size: 0x8, addend: 0x0, symName: __ZNSt3__19allocatorIcE10deallocateB8ne180100EPcm, symObjAddr: 0x1EB80, symBinAddr: 0x100020240, symSize: 0x40 }
  - { offset: 0x5B118, size: 0x8, addend: 0x0, symName: __ZNSt3__117__compressed_pairINS_12basic_stringIcNS_11char_traitsIcEENS_9allocatorIcEEE5__repES5_E6secondB8ne180100Ev, symObjAddr: 0x1EBC0, symBinAddr: 0x100020280, symSize: 0x20 }
  - { offset: 0x5B13E, size: 0x8, addend: 0x0, symName: __ZNSt3__122__compressed_pair_elemINS_9allocatorIcEELi1ELb1EE5__getB8ne180100Ev, symObjAddr: 0x1EBE0, symBinAddr: 0x1000202A0, symSize: 0x10 }
  - { offset: 0x5B164, size: 0x8, addend: 0x0, symName: __ZNSt3__112basic_stringIcNS_11char_traitsIcEENS_9allocatorIcEEE19__move_assign_allocB8ne180100ERS5_NS_17integral_constantIbLb1EEE, symObjAddr: 0x1EBF0, symBinAddr: 0x1000202B0, symSize: 0x30 }
  - { offset: 0x5B1A4, size: 0x8, addend: 0x0, symName: __ZNSt3__122__compressed_pair_elemINS_12basic_stringIcNS_11char_traitsIcEENS_9allocatorIcEEE5__repELi0ELb0EE5__getB8ne180100Ev, symObjAddr: 0x1EC20, symBinAddr: 0x1000202E0, symSize: 0x10 }
  - { offset: 0x5B1CA, size: 0x8, addend: 0x0, symName: __ZNSt3__114pointer_traitsIPcE10pointer_toB8ne180100ERc, symObjAddr: 0x1EC30, symBinAddr: 0x1000202F0, symSize: 0x10 }
  - { offset: 0x5B1EE, size: 0x8, addend: 0x0, symName: __ZNSt3__112basic_stringIcNS_11char_traitsIcEENS_9allocatorIcEEE4dataB8ne180100Ev, symObjAddr: 0x1EC40, symBinAddr: 0x100020300, symSize: 0x30 }
  - { offset: 0x5B214, size: 0x8, addend: 0x0, symName: __ZNSt3__115basic_streambufIcNS_11char_traitsIcEEE4setgB8ne180100EPcS4_S4_, symObjAddr: 0x1EC70, symBinAddr: 0x100020330, symSize: 0x40 }
  - { offset: 0x5B267, size: 0x8, addend: 0x0, symName: __ZNSt3__112basic_stringIcNS_11char_traitsIcEENS_9allocatorIcEEE6resizeB8ne180100Em, symObjAddr: 0x1ECB0, symBinAddr: 0x100020370, symSize: 0x30 }
  - { offset: 0x5B29C, size: 0x8, addend: 0x0, symName: __ZNKSt3__112basic_stringIcNS_11char_traitsIcEENS_9allocatorIcEEE8capacityB8ne180100Ev, symObjAddr: 0x1ECE0, symBinAddr: 0x1000203A0, symSize: 0x60 }
  - { offset: 0x5B2C2, size: 0x8, addend: 0x0, symName: __ZNSt3__115basic_streambufIcNS_11char_traitsIcEEE4setpB8ne180100EPcS4_, symObjAddr: 0x1ED40, symBinAddr: 0x100020400, symSize: 0x30 }
  - { offset: 0x5B306, size: 0x8, addend: 0x0, symName: __ZNSt3__115basic_streambufIcNS_11char_traitsIcEEE5pbumpB8ne180100Ei, symObjAddr: 0x1ED70, symBinAddr: 0x100020430, symSize: 0x30 }
  - { offset: 0x5B33B, size: 0x8, addend: 0x0, symName: __ZNSt3__112basic_stringIcNS_11char_traitsIcEENS_9allocatorIcEEE13__get_pointerB8ne180100Ev, symObjAddr: 0x1EDB0, symBinAddr: 0x100020470, symSize: 0x50 }
  - { offset: 0x5B361, size: 0x8, addend: 0x0, symName: __ZNSt3__112basic_stringIcNS_11char_traitsIcEENS_9allocatorIcEEEC2B8ne180100ILi0EEEPKc, symObjAddr: 0x1EE00, symBinAddr: 0x1000204C0, symSize: 0x50 }
  - { offset: 0x5B3A1, size: 0x8, addend: 0x0, symName: __ZNSt3__117__compressed_pairINS_12basic_stringIcNS_11char_traitsIcEENS_9allocatorIcEEE5__repES5_EC1B8ne180100INS_18__default_init_tagESA_EEOT_OT0_, symObjAddr: 0x1EE50, symBinAddr: 0x100020510, symSize: 0x30 }
  - { offset: 0x5B3FB, size: 0x8, addend: 0x0, symName: __ZNSt3__111char_traitsIcE6lengthB8ne180100EPKc, symObjAddr: 0x1EE80, symBinAddr: 0x100020540, symSize: 0x30 }
  - { offset: 0x5B41F, size: 0x8, addend: 0x0, symName: __ZNSt3__117__compressed_pairINS_12basic_stringIcNS_11char_traitsIcEENS_9allocatorIcEEE5__repES5_EC2B8ne180100INS_18__default_init_tagESA_EEOT_OT0_, symObjAddr: 0x1EEB0, symBinAddr: 0x100020570, symSize: 0x30 }
  - { offset: 0x5B479, size: 0x8, addend: 0x0, symName: __ZNSt3__122__compressed_pair_elemINS_12basic_stringIcNS_11char_traitsIcEENS_9allocatorIcEEE5__repELi0ELb0EEC2B8ne180100ENS_18__default_init_tagE, symObjAddr: 0x1EEE0, symBinAddr: 0x1000205A0, symSize: 0x10 }
  - { offset: 0x5B4AE, size: 0x8, addend: 0x0, symName: __ZNSt3__122__compressed_pair_elemINS_9allocatorIcEELi1ELb1EEC2B8ne180100ENS_18__default_init_tagE, symObjAddr: 0x1EEF0, symBinAddr: 0x1000205B0, symSize: 0x20 }
  - { offset: 0x5B4E3, size: 0x8, addend: 0x0, symName: __ZNSt3__19allocatorIcEC2B8ne180100Ev, symObjAddr: 0x1EF10, symBinAddr: 0x1000205D0, symSize: 0x20 }
  - { offset: 0x5B50D, size: 0x8, addend: 0x0, symName: __ZNSt3__116__non_trivial_ifILb1ENS_9allocatorIcEEEC2B8ne180100Ev, symObjAddr: 0x1EF30, symBinAddr: 0x1000205F0, symSize: 0x10 }
  - { offset: 0x5B537, size: 0x8, addend: 0x0, symName: __ZNSt3__16vectorINS0_IN7doctest6StringENS_9allocatorIS2_EEEENS3_IS5_EEE11__make_iterB8ne180100EPS5_, symObjAddr: 0x1F130, symBinAddr: 0x1000207F0, symSize: 0x30 }
  - { offset: 0x5B56C, size: 0x8, addend: 0x0, symName: __ZNSt3__111__wrap_iterIPNS_6vectorIN7doctest6StringENS_9allocatorIS3_EEEEEC1B8ne180100ES7_, symObjAddr: 0x1F160, symBinAddr: 0x100020820, symSize: 0x30 }
  - { offset: 0x5B5A5, size: 0x8, addend: 0x0, symName: __ZNSt3__111__wrap_iterIPNS_6vectorIN7doctest6StringENS_9allocatorIS3_EEEEEC2B8ne180100ES7_, symObjAddr: 0x1F190, symBinAddr: 0x100020850, symSize: 0x20 }
  - { offset: 0x5B5DE, size: 0x8, addend: 0x0, symName: __ZNKSt3__111__wrap_iterIPNS_6vectorIN7doctest6StringENS_9allocatorIS3_EEEEE4baseB8ne180100Ev, symObjAddr: 0x1F1F0, symBinAddr: 0x1000208B0, symSize: 0x20 }
  - { offset: 0x5B604, size: 0x8, addend: 0x0, symName: __ZNKSt3__16vectorIN7doctest6StringENS_9allocatorIS2_EEE17__annotate_shrinkB8ne180100Em, symObjAddr: 0x1F210, symBinAddr: 0x1000208D0, symSize: 0x10 }
  - { offset: 0x5B639, size: 0x8, addend: 0x0, symName: __ZNSt3__19basic_iosIcNS_11char_traitsIcEEEC2B8ne180100Ev, symObjAddr: 0x1F220, symBinAddr: 0x1000208E0, symSize: 0x40 }
  - { offset: 0x5B663, size: 0x8, addend: 0x0, symName: __ZNSt3__113basic_ostreamIcNS_11char_traitsIcEEEC2B8ne180100EPNS_15basic_streambufIcS2_EE, symObjAddr: 0x1F260, symBinAddr: 0x100020920, symSize: 0x50 }
  - { offset: 0x5B6A9, size: 0x8, addend: 0x0, symName: __ZN7doctest14DiscardOStreamUt_C1Ev, symObjAddr: 0x1F2B0, symBinAddr: 0x100020970, symSize: 0x20 }
  - { offset: 0x5B6D6, size: 0x8, addend: 0x0, symName: __ZN7doctest14DiscardOStreamD0Ev, symObjAddr: 0x1F2D0, symBinAddr: 0x100020990, symSize: 0x30 }
  - { offset: 0x5B703, size: 0x8, addend: 0x0, symName: __ZTv0_n24_N7doctest14DiscardOStreamD1Ev, symObjAddr: 0x1F300, symBinAddr: 0x1000209C0, symSize: 0x20 }
  - { offset: 0x5B71A, size: 0x8, addend: 0x0, symName: __ZTv0_n24_N7doctest14DiscardOStreamD0Ev, symObjAddr: 0x1F320, symBinAddr: 0x1000209E0, symSize: 0x20 }
  - { offset: 0x5B731, size: 0x8, addend: 0x0, symName: __ZNSt3__18ios_baseC2B8ne180100Ev, symObjAddr: 0x1F340, symBinAddr: 0x100020A00, symSize: 0x20 }
  - { offset: 0x5B75B, size: 0x8, addend: 0x0, symName: __ZNSt3__19basic_iosIcNS_11char_traitsIcEEE4initB8ne180100EPNS_15basic_streambufIcS2_EE, symObjAddr: 0x1F360, symBinAddr: 0x100020A20, symSize: 0x50 }
  - { offset: 0x5B792, size: 0x8, addend: 0x0, symName: __ZNSt3__111char_traitsIcE3eofB8ne180100Ev, symObjAddr: 0x1F3B0, symBinAddr: 0x100020A70, symSize: 0x10 }
  - { offset: 0x5B7A6, size: 0x8, addend: 0x0, symName: __ZN7doctest14DiscardOStreamUt_C2Ev, symObjAddr: 0x1F3C0, symBinAddr: 0x100020A80, symSize: 0x40 }
  - { offset: 0x5B7D3, size: 0x8, addend: 0x0, symName: __ZN7doctest14DiscardOStreamUt_D1Ev, symObjAddr: 0x1F400, symBinAddr: 0x100020AC0, symSize: 0x20 }
  - { offset: 0x5B800, size: 0x8, addend: 0x0, symName: __ZN7doctest14DiscardOStreamUt_D0Ev, symObjAddr: 0x1F420, symBinAddr: 0x100020AE0, symSize: 0x30 }
  - { offset: 0x5B82D, size: 0x8, addend: 0x0, symName: __ZN7doctest14DiscardOStreamUt_6xsputnEPKcl, symObjAddr: 0x1F450, symBinAddr: 0x100020B10, symSize: 0x20 }
  - { offset: 0x5B86D, size: 0x8, addend: 0x0, symName: __ZN7doctest14DiscardOStreamUt_8overflowEi, symObjAddr: 0x1F470, symBinAddr: 0x100020B30, symSize: 0x50 }
  - { offset: 0x5B8A2, size: 0x8, addend: 0x0, symName: __ZN7doctest14DiscardOStreamUt_D2Ev, symObjAddr: 0x1F4C0, symBinAddr: 0x100020B80, symSize: 0x20 }
  - { offset: 0x5B8CF, size: 0x8, addend: 0x0, symName: __ZNSt3__111char_traitsIcE7not_eofB8ne180100Ei, symObjAddr: 0x1F510, symBinAddr: 0x100020BD0, symSize: 0x50 }
  - { offset: 0x5B8F3, size: 0x8, addend: 0x0, symName: __ZNSt3__111char_traitsIcE11eq_int_typeB8ne180100Eii, symObjAddr: 0x1F560, symBinAddr: 0x100020C20, symSize: 0x20 }
  - { offset: 0x5B926, size: 0x8, addend: 0x0, symName: __ZN7doctest14DiscardOStreamD2Ev, symObjAddr: 0x1F580, symBinAddr: 0x100020C40, symSize: 0x60 }
  - { offset: 0x5B960, size: 0x8, addend: 0x0, symName: __ZNSt3__13mapINS_4pairIiN7doctest6StringEEEPFPNS2_9IReporterERKNS2_14ContextOptionsEENS_4lessIS4_EENS_9allocatorINS1_IKS4_SB_EEEEEC1B8ne180100Ev, symObjAddr: 0x1F5E0, symBinAddr: 0x100020CA0, symSize: 0x20 }
  - { offset: 0x5B98A, size: 0x8, addend: 0x0, symName: __ZNSt3__13mapINS_4pairIiN7doctest6StringEEEPFPNS2_9IReporterERKNS2_14ContextOptionsEENS_4lessIS4_EENS_9allocatorINS1_IKS4_SB_EEEEED1B8ne180100Ev, symObjAddr: 0x1F600, symBinAddr: 0x100020CC0, symSize: 0x20 }
  - { offset: 0x5B9B4, size: 0x8, addend: 0x0, symName: __ZNSt3__13mapINS_4pairIiN7doctest6StringEEEPFPNS2_9IReporterERKNS2_14ContextOptionsEENS_4lessIS4_EENS_9allocatorINS1_IKS4_SB_EEEEEC2B8ne180100Ev, symObjAddr: 0x1F620, symBinAddr: 0x100020CE0, symSize: 0x30 }
  - { offset: 0x5B9DE, size: 0x8, addend: 0x0, symName: __ZNSt3__119__map_value_compareINS_4pairIiN7doctest6StringEEENS_12__value_typeIS4_PFPNS2_9IReporterERKNS2_14ContextOptionsEEEENS_4lessIS4_EELb1EEC1B8ne180100ESF_, symObjAddr: 0x1F650, symBinAddr: 0x100020D10, symSize: 0x20 }
  - { offset: 0x5BA17, size: 0x8, addend: 0x0, symName: __ZNSt3__16__treeINS_12__value_typeINS_4pairIiN7doctest6StringEEEPFPNS3_9IReporterERKNS3_14ContextOptionsEEEENS_19__map_value_compareIS5_SD_NS_4lessIS5_EELb1EEENS_9allocatorISD_EEEC1ERKSH_, symObjAddr: 0x1F670, symBinAddr: 0x100020D30, symSize: 0x30 }
  - { offset: 0x5BA52, size: 0x8, addend: 0x0, symName: __ZNSt3__119__map_value_compareINS_4pairIiN7doctest6StringEEENS_12__value_typeIS4_PFPNS2_9IReporterERKNS2_14ContextOptionsEEEENS_4lessIS4_EELb1EEC2B8ne180100ESF_, symObjAddr: 0x1F6A0, symBinAddr: 0x100020D60, symSize: 0x10 }
  - { offset: 0x5BA8B, size: 0x8, addend: 0x0, symName: __ZNSt3__16__treeINS_12__value_typeINS_4pairIiN7doctest6StringEEEPFPNS3_9IReporterERKNS3_14ContextOptionsEEEENS_19__map_value_compareIS5_SD_NS_4lessIS5_EELb1EEENS_9allocatorISD_EEEC2ERKSH_, symObjAddr: 0x1F6B0, symBinAddr: 0x100020D70, symSize: 0x80 }
  - { offset: 0x5BAC6, size: 0x8, addend: 0x0, symName: __ZNSt3__117__compressed_pairINS_15__tree_end_nodeIPNS_16__tree_node_baseIPvEEEENS_9allocatorINS_11__tree_nodeINS_12__value_typeINS_4pairIiN7doctest6StringEEEPFPNSB_9IReporterERKNSB_14ContextOptionsEEEES3_EEEEEC1B8ne180100ILb1EvEEv, symObjAddr: 0x1F730, symBinAddr: 0x100020DF0, symSize: 0x20 }
  - { offset: 0x5BAFB, size: 0x8, addend: 0x0, symName: __ZNSt3__117__compressed_pairImNS_19__map_value_compareINS_4pairIiN7doctest6StringEEENS_12__value_typeIS5_PFPNS3_9IReporterERKNS3_14ContextOptionsEEEENS_4lessIS5_EELb1EEEEC1B8ne180100IiRKSH_EEOT_OT0_, symObjAddr: 0x1F750, symBinAddr: 0x100020E10, symSize: 0x30 }
  - { offset: 0x5BB55, size: 0x8, addend: 0x0, symName: __ZNSt3__16__treeINS_12__value_typeINS_4pairIiN7doctest6StringEEEPFPNS3_9IReporterERKNS3_14ContextOptionsEEEENS_19__map_value_compareIS5_SD_NS_4lessIS5_EELb1EEENS_9allocatorISD_EEE10__end_nodeB8ne180100Ev, symObjAddr: 0x1F780, symBinAddr: 0x100020E40, symSize: 0x30 }
  - { offset: 0x5BB7B, size: 0x8, addend: 0x0, symName: __ZNSt3__16__treeINS_12__value_typeINS_4pairIiN7doctest6StringEEEPFPNS3_9IReporterERKNS3_14ContextOptionsEEEENS_19__map_value_compareIS5_SD_NS_4lessIS5_EELb1EEENS_9allocatorISD_EEE12__begin_nodeB8ne180100Ev, symObjAddr: 0x1F7B0, symBinAddr: 0x100020E70, symSize: 0x10 }
  - { offset: 0x5BBA1, size: 0x8, addend: 0x0, symName: __ZNSt3__117__compressed_pairINS_15__tree_end_nodeIPNS_16__tree_node_baseIPvEEEENS_9allocatorINS_11__tree_nodeINS_12__value_typeINS_4pairIiN7doctest6StringEEEPFPNSB_9IReporterERKNSB_14ContextOptionsEEEES3_EEEEEC2B8ne180100ILb1EvEEv, symObjAddr: 0x1F7C0, symBinAddr: 0x100020E80, symSize: 0x30 }
  - { offset: 0x5BBD6, size: 0x8, addend: 0x0, symName: __ZNSt3__122__compressed_pair_elemINS_15__tree_end_nodeIPNS_16__tree_node_baseIPvEEEELi0ELb0EEC2B8ne180100ENS_16__value_init_tagE, symObjAddr: 0x1F7F0, symBinAddr: 0x100020EB0, symSize: 0x20 }
  - { offset: 0x5BC0B, size: 0x8, addend: 0x0, symName: __ZNSt3__122__compressed_pair_elemINS_9allocatorINS_11__tree_nodeINS_12__value_typeINS_4pairIiN7doctest6StringEEEPFPNS5_9IReporterERKNS5_14ContextOptionsEEEEPvEEEELi1ELb1EEC2B8ne180100ENS_16__value_init_tagE, symObjAddr: 0x1F810, symBinAddr: 0x100020ED0, symSize: 0x20 }
  - { offset: 0x5BC40, size: 0x8, addend: 0x0, symName: __ZNSt3__115__tree_end_nodeIPNS_16__tree_node_baseIPvEEEC1B8ne180100Ev, symObjAddr: 0x1F830, symBinAddr: 0x100020EF0, symSize: 0x20 }
  - { offset: 0x5BC6A, size: 0x8, addend: 0x0, symName: __ZNSt3__115__tree_end_nodeIPNS_16__tree_node_baseIPvEEEC2B8ne180100Ev, symObjAddr: 0x1F850, symBinAddr: 0x100020F10, symSize: 0x20 }
  - { offset: 0x5BC94, size: 0x8, addend: 0x0, symName: __ZNSt3__19allocatorINS_11__tree_nodeINS_12__value_typeINS_4pairIiN7doctest6StringEEEPFPNS4_9IReporterERKNS4_14ContextOptionsEEEEPvEEEC2B8ne180100Ev, symObjAddr: 0x1F870, symBinAddr: 0x100020F30, symSize: 0x20 }
  - { offset: 0x5BCBE, size: 0x8, addend: 0x0, symName: __ZNSt3__116__non_trivial_ifILb1ENS_9allocatorINS_11__tree_nodeINS_12__value_typeINS_4pairIiN7doctest6StringEEEPFPNS5_9IReporterERKNS5_14ContextOptionsEEEEPvEEEEEC2B8ne180100Ev, symObjAddr: 0x1F890, symBinAddr: 0x100020F50, symSize: 0x10 }
  - { offset: 0x5BCE8, size: 0x8, addend: 0x0, symName: __ZNSt3__117__compressed_pairImNS_19__map_value_compareINS_4pairIiN7doctest6StringEEENS_12__value_typeIS5_PFPNS3_9IReporterERKNS3_14ContextOptionsEEEENS_4lessIS5_EELb1EEEEC2B8ne180100IiRKSH_EEOT_OT0_, symObjAddr: 0x1F8A0, symBinAddr: 0x100020F60, symSize: 0x40 }
  - { offset: 0x5BD42, size: 0x8, addend: 0x0, symName: __ZNSt3__122__compressed_pair_elemINS_19__map_value_compareINS_4pairIiN7doctest6StringEEENS_12__value_typeIS5_PFPNS3_9IReporterERKNS3_14ContextOptionsEEEENS_4lessIS5_EELb1EEELi1ELb1EEC2B8ne180100IRKSH_vEEOT_, symObjAddr: 0x1F8E0, symBinAddr: 0x100020FA0, symSize: 0x10 }
  - { offset: 0x5BD85, size: 0x8, addend: 0x0, symName: __ZNSt3__114pointer_traitsIPNS_15__tree_end_nodeIPNS_16__tree_node_baseIPvEEEEE10pointer_toB8ne180100ERS6_, symObjAddr: 0x1F8F0, symBinAddr: 0x100020FB0, symSize: 0x10 }
  - { offset: 0x5BDA9, size: 0x8, addend: 0x0, symName: __ZNSt3__117__compressed_pairINS_15__tree_end_nodeIPNS_16__tree_node_baseIPvEEEENS_9allocatorINS_11__tree_nodeINS_12__value_typeINS_4pairIiN7doctest6StringEEEPFPNSB_9IReporterERKNSB_14ContextOptionsEEEES3_EEEEE5firstB8ne180100Ev, symObjAddr: 0x1F900, symBinAddr: 0x100020FC0, symSize: 0x20 }
  - { offset: 0x5BDCF, size: 0x8, addend: 0x0, symName: __ZNSt3__122__compressed_pair_elemINS_15__tree_end_nodeIPNS_16__tree_node_baseIPvEEEELi0ELb0EE5__getB8ne180100Ev, symObjAddr: 0x1F920, symBinAddr: 0x100020FE0, symSize: 0x10 }
  - { offset: 0x5BDF5, size: 0x8, addend: 0x0, symName: __ZNSt3__13mapINS_4pairIiN7doctest6StringEEEPFPNS2_9IReporterERKNS2_14ContextOptionsEENS_4lessIS4_EENS_9allocatorINS1_IKS4_SB_EEEEED2B8ne180100Ev, symObjAddr: 0x1F930, symBinAddr: 0x100020FF0, symSize: 0x20 }
  - { offset: 0x5BE1F, size: 0x8, addend: 0x0, symName: __ZNSt3__16__treeINS_12__value_typeINS_4pairIiN7doctest6StringEEEPFPNS3_9IReporterERKNS3_14ContextOptionsEEEENS_19__map_value_compareIS5_SD_NS_4lessIS5_EELb1EEENS_9allocatorISD_EEED1Ev, symObjAddr: 0x1F950, symBinAddr: 0x100021010, symSize: 0x20 }
  - { offset: 0x5BE4B, size: 0x8, addend: 0x0, symName: __ZNSt3__16__treeINS_12__value_typeINS_4pairIiN7doctest6StringEEEPFPNS3_9IReporterERKNS3_14ContextOptionsEEEENS_19__map_value_compareIS5_SD_NS_4lessIS5_EELb1EEENS_9allocatorISD_EEED2Ev, symObjAddr: 0x1F970, symBinAddr: 0x100021030, symSize: 0x30 }
  - { offset: 0x5BE77, size: 0x8, addend: 0x0, symName: __ZNSt3__16__treeINS_12__value_typeINS_4pairIiN7doctest6StringEEEPFPNS3_9IReporterERKNS3_14ContextOptionsEEEENS_19__map_value_compareIS5_SD_NS_4lessIS5_EELb1EEENS_9allocatorISD_EEE7destroyEPNS_11__tree_nodeISD_PvEE, symObjAddr: 0x1F9A0, symBinAddr: 0x100021060, symSize: 0xB0 }
  - { offset: 0x5BEC3, size: 0x8, addend: 0x0, symName: __ZNKSt3__16__treeINS_12__value_typeINS_4pairIiN7doctest6StringEEEPFPNS3_9IReporterERKNS3_14ContextOptionsEEEENS_19__map_value_compareIS5_SD_NS_4lessIS5_EELb1EEENS_9allocatorISD_EEE6__rootB8ne180100Ev, symObjAddr: 0x1FA50, symBinAddr: 0x100021110, symSize: 0x20 }
  - { offset: 0x5BEE9, size: 0x8, addend: 0x0, symName: __ZNSt3__16__treeINS_12__value_typeINS_4pairIiN7doctest6StringEEEPFPNS3_9IReporterERKNS3_14ContextOptionsEEEENS_19__map_value_compareIS5_SD_NS_4lessIS5_EELb1EEENS_9allocatorISD_EEE12__node_allocB8ne180100Ev, symObjAddr: 0x1FA70, symBinAddr: 0x100021130, symSize: 0x20 }
  - { offset: 0x5BF0F, size: 0x8, addend: 0x0, symName: __ZNSt3__116allocator_traitsINS_9allocatorINS_11__tree_nodeINS_12__value_typeINS_4pairIiN7doctest6StringEEEPFPNS5_9IReporterERKNS5_14ContextOptionsEEEEPvEEEEE7destroyB8ne180100INS4_IKS7_SE_EEvvEEvRSI_PT_, symObjAddr: 0x1FA90, symBinAddr: 0x100021150, symSize: 0x20 }
  - { offset: 0x5BF49, size: 0x8, addend: 0x0, symName: __ZNSt3__122__tree_key_value_typesINS_12__value_typeINS_4pairIiN7doctest6StringEEEPFPNS3_9IReporterERKNS3_14ContextOptionsEEEEE9__get_ptrB8ne180100ERSD_, symObjAddr: 0x1FAB0, symBinAddr: 0x100021170, symSize: 0x20 }
  - { offset: 0x5BF6D, size: 0x8, addend: 0x0, symName: __ZNSt3__116allocator_traitsINS_9allocatorINS_11__tree_nodeINS_12__value_typeINS_4pairIiN7doctest6StringEEEPFPNS5_9IReporterERKNS5_14ContextOptionsEEEEPvEEEEE10deallocateB8ne180100ERSI_PSH_m, symObjAddr: 0x1FAD0, symBinAddr: 0x100021190, symSize: 0x30 }
  - { offset: 0x5BFAF, size: 0x8, addend: 0x0, symName: __ZNSt3__117__compressed_pairINS_15__tree_end_nodeIPNS_16__tree_node_baseIPvEEEENS_9allocatorINS_11__tree_nodeINS_12__value_typeINS_4pairIiN7doctest6StringEEEPFPNSB_9IReporterERKNSB_14ContextOptionsEEEES3_EEEEE6secondB8ne180100Ev, symObjAddr: 0x1FB00, symBinAddr: 0x1000211C0, symSize: 0x20 }
  - { offset: 0x5BFD5, size: 0x8, addend: 0x0, symName: __ZNSt3__122__compressed_pair_elemINS_9allocatorINS_11__tree_nodeINS_12__value_typeINS_4pairIiN7doctest6StringEEEPFPNS5_9IReporterERKNS5_14ContextOptionsEEEEPvEEEELi1ELb1EE5__getB8ne180100Ev, symObjAddr: 0x1FB20, symBinAddr: 0x1000211E0, symSize: 0x10 }
  - { offset: 0x5BFFB, size: 0x8, addend: 0x0, symName: __ZNSt3__112__value_typeINS_4pairIiN7doctest6StringEEEPFPNS2_9IReporterERKNS2_14ContextOptionsEEE11__get_valueB8ne180100Ev, symObjAddr: 0x1FB50, symBinAddr: 0x100021210, symSize: 0x20 }
  - { offset: 0x5C021, size: 0x8, addend: 0x0, symName: __ZNSt3__19allocatorINS_11__tree_nodeINS_12__value_typeINS_4pairIiN7doctest6StringEEEPFPNS4_9IReporterERKNS4_14ContextOptionsEEEEPvEEE10deallocateB8ne180100EPSG_m, symObjAddr: 0x1FBA0, symBinAddr: 0x100021260, symSize: 0x50 }
  - { offset: 0x5C065, size: 0x8, addend: 0x0, symName: __ZNKSt3__16__treeINS_12__value_typeINS_4pairIiN7doctest6StringEEEPFPNS3_9IReporterERKNS3_14ContextOptionsEEEENS_19__map_value_compareIS5_SD_NS_4lessIS5_EELb1EEENS_9allocatorISD_EEE10__end_nodeB8ne180100Ev, symObjAddr: 0x1FBF0, symBinAddr: 0x1000212B0, symSize: 0x30 }
  - { offset: 0x5C08B, size: 0x8, addend: 0x0, symName: __ZNKSt3__117__compressed_pairINS_15__tree_end_nodeIPNS_16__tree_node_baseIPvEEEENS_9allocatorINS_11__tree_nodeINS_12__value_typeINS_4pairIiN7doctest6StringEEEPFPNSB_9IReporterERKNSB_14ContextOptionsEEEES3_EEEEE5firstB8ne180100Ev, symObjAddr: 0x1FC20, symBinAddr: 0x1000212E0, symSize: 0x20 }
  - { offset: 0x5C0B1, size: 0x8, addend: 0x0, symName: __ZNKSt3__122__compressed_pair_elemINS_15__tree_end_nodeIPNS_16__tree_node_baseIPvEEEELi0ELb0EE5__getB8ne180100Ev, symObjAddr: 0x1FC40, symBinAddr: 0x100021300, symSize: 0x10 }
  - { offset: 0x5C0D7, size: 0x8, addend: 0x0, symName: __ZNSt3__16vectorIPN7doctest9IReporterENS_9allocatorIS3_EEE9__end_capB8ne180100Ev, symObjAddr: 0x1FC50, symBinAddr: 0x100021310, symSize: 0x20 }
  - { offset: 0x5C103, size: 0x8, addend: 0x0, symName: __ZNSt3__16vectorIPN7doctest9IReporterENS_9allocatorIS3_EEE22__construct_one_at_endB8ne180100IJS3_EEEvDpOT_, symObjAddr: 0x1FC70, symBinAddr: 0x100021330, symSize: 0x90 }
  - { offset: 0x5C152, size: 0x8, addend: 0x0, symName: __ZNSt3__16vectorIPN7doctest9IReporterENS_9allocatorIS3_EEE21__push_back_slow_pathIS3_EEPS3_OT_, symObjAddr: 0x1FD00, symBinAddr: 0x1000213C0, symSize: 0xE0 }
  - { offset: 0x5C1B0, size: 0x8, addend: 0x0, symName: __ZNSt3__117__compressed_pairIPPN7doctest9IReporterENS_9allocatorIS3_EEE5firstB8ne180100Ev, symObjAddr: 0x1FDE0, symBinAddr: 0x1000214A0, symSize: 0x20 }
  - { offset: 0x5C1D6, size: 0x8, addend: 0x0, symName: __ZNSt3__122__compressed_pair_elemIPPN7doctest9IReporterELi0ELb0EE5__getB8ne180100Ev, symObjAddr: 0x1FE00, symBinAddr: 0x1000214C0, symSize: 0x10 }
  - { offset: 0x5C218, size: 0x8, addend: 0x0, symName: __ZNSt3__16vectorIPN7doctest9IReporterENS_9allocatorIS3_EEE21_ConstructTransactionC1B8ne180100ERS6_m, symObjAddr: 0x1FE10, symBinAddr: 0x1000214D0, symSize: 0x30 }
  - { offset: 0x5C260, size: 0x8, addend: 0x0, symName: __ZNSt3__116allocator_traitsINS_9allocatorIPN7doctest9IReporterEEEE9constructB8ne180100IS4_JS4_EvvEEvRS5_PT_DpOT0_, symObjAddr: 0x1FE40, symBinAddr: 0x100021500, symSize: 0x30 }
  - { offset: 0x5C2B4, size: 0x8, addend: 0x0, symName: __ZNSt3__16vectorIPN7doctest9IReporterENS_9allocatorIS3_EEE21_ConstructTransactionD1B8ne180100Ev, symObjAddr: 0x1FE70, symBinAddr: 0x100021530, symSize: 0x20 }
  - { offset: 0x5C2DE, size: 0x8, addend: 0x0, symName: __ZNSt3__16vectorIPN7doctest9IReporterENS_9allocatorIS3_EEE21_ConstructTransactionC2B8ne180100ERS6_m, symObjAddr: 0x1FE90, symBinAddr: 0x100021550, symSize: 0x40 }
  - { offset: 0x5C326, size: 0x8, addend: 0x0, symName: __ZNSt3__16vectorIPN7doctest9IReporterENS_9allocatorIS3_EEE21_ConstructTransactionD2B8ne180100Ev, symObjAddr: 0x1FF20, symBinAddr: 0x1000215E0, symSize: 0x20 }
  - { offset: 0x5C350, size: 0x8, addend: 0x0, symName: __ZNKSt3__16vectorIPN7doctest9IReporterENS_9allocatorIS3_EEE11__recommendB8ne180100Em, symObjAddr: 0x1FF40, symBinAddr: 0x100021600, symSize: 0x90 }
  - { offset: 0x5C3A5, size: 0x8, addend: 0x0, symName: __ZNKSt3__16vectorIPN7doctest9IReporterENS_9allocatorIS3_EEE4sizeB8ne180100Ev, symObjAddr: 0x1FFD0, symBinAddr: 0x100021690, symSize: 0x20 }
  - { offset: 0x5C3CB, size: 0x8, addend: 0x0, symName: __ZNSt3__114__split_bufferIPN7doctest9IReporterERNS_9allocatorIS3_EEEC1EmmS6_, symObjAddr: 0x1FFF0, symBinAddr: 0x1000216B0, symSize: 0x40 }
  - { offset: 0x5C424, size: 0x8, addend: 0x0, symName: __ZNSt3__114__split_bufferIPN7doctest9IReporterERNS_9allocatorIS3_EEED1Ev, symObjAddr: 0x20150, symBinAddr: 0x100021810, symSize: 0x20 }
  - { offset: 0x5C450, size: 0x8, addend: 0x0, symName: __ZNKSt3__16vectorIPN7doctest9IReporterENS_9allocatorIS3_EEE8max_sizeEv, symObjAddr: 0x20170, symBinAddr: 0x100021830, symSize: 0x60 }
  - { offset: 0x5C478, size: 0x8, addend: 0x0, symName: __ZNKSt3__16vectorIPN7doctest9IReporterENS_9allocatorIS3_EEE20__throw_length_errorB8ne180100Ev, symObjAddr: 0x201D0, symBinAddr: 0x100021890, symSize: 0x20 }
  - { offset: 0x5C4A9, size: 0x8, addend: 0x0, symName: __ZNSt3__116allocator_traitsINS_9allocatorIPN7doctest9IReporterEEEE8max_sizeB8ne180100IS5_vvEEmRKS5_, symObjAddr: 0x201F0, symBinAddr: 0x1000218B0, symSize: 0x20 }
  - { offset: 0x5C4D4, size: 0x8, addend: 0x0, symName: __ZNKSt3__16vectorIPN7doctest9IReporterENS_9allocatorIS3_EEE7__allocB8ne180100Ev, symObjAddr: 0x20210, symBinAddr: 0x1000218D0, symSize: 0x20 }
  - { offset: 0x5C4FA, size: 0x8, addend: 0x0, symName: __ZNKSt3__117__compressed_pairIPPN7doctest9IReporterENS_9allocatorIS3_EEE6secondB8ne180100Ev, symObjAddr: 0x20230, symBinAddr: 0x1000218F0, symSize: 0x20 }
  - { offset: 0x5C520, size: 0x8, addend: 0x0, symName: __ZNKSt3__122__compressed_pair_elemINS_9allocatorIPN7doctest9IReporterEEELi1ELb1EE5__getB8ne180100Ev, symObjAddr: 0x20250, symBinAddr: 0x100021910, symSize: 0x10 }
  - { offset: 0x5C546, size: 0x8, addend: 0x0, symName: __ZNSt3__114__split_bufferIPN7doctest9IReporterERNS_9allocatorIS3_EEEC2EmmS6_, symObjAddr: 0x20260, symBinAddr: 0x100021920, symSize: 0xD0 }
  - { offset: 0x5C5BC, size: 0x8, addend: 0x0, symName: __ZNSt3__117__compressed_pairIPPN7doctest9IReporterERNS_9allocatorIS3_EEEC1B8ne180100IDnS7_EEOT_OT0_, symObjAddr: 0x20330, symBinAddr: 0x1000219F0, symSize: 0x30 }
  - { offset: 0x5C616, size: 0x8, addend: 0x0, symName: __ZNSt3__114__split_bufferIPN7doctest9IReporterERNS_9allocatorIS3_EEE7__allocB8ne180100Ev, symObjAddr: 0x203A0, symBinAddr: 0x100021A60, symSize: 0x20 }
  - { offset: 0x5C63C, size: 0x8, addend: 0x0, symName: __ZNSt3__114__split_bufferIPN7doctest9IReporterERNS_9allocatorIS3_EEE9__end_capB8ne180100Ev, symObjAddr: 0x203C0, symBinAddr: 0x100021A80, symSize: 0x20 }
  - { offset: 0x5C662, size: 0x8, addend: 0x0, symName: __ZNSt3__117__compressed_pairIPPN7doctest9IReporterERNS_9allocatorIS3_EEEC2B8ne180100IDnS7_EEOT_OT0_, symObjAddr: 0x203E0, symBinAddr: 0x100021AA0, symSize: 0x40 }
  - { offset: 0x5C6BC, size: 0x8, addend: 0x0, symName: __ZNSt3__122__compressed_pair_elemIRNS_9allocatorIPN7doctest9IReporterEEELi1ELb0EEC2B8ne180100IS6_vEEOT_, symObjAddr: 0x20420, symBinAddr: 0x100021AE0, symSize: 0x20 }
  - { offset: 0x5C6FF, size: 0x8, addend: 0x0, symName: __ZNSt3__19allocatorIPN7doctest9IReporterEE8allocateB8ne180100Em, symObjAddr: 0x20440, symBinAddr: 0x100021B00, symSize: 0x50 }
  - { offset: 0x5C734, size: 0x8, addend: 0x0, symName: __ZNSt3__117__compressed_pairIPPN7doctest9IReporterERNS_9allocatorIS3_EEE6secondB8ne180100Ev, symObjAddr: 0x20490, symBinAddr: 0x100021B50, symSize: 0x20 }
  - { offset: 0x5C75A, size: 0x8, addend: 0x0, symName: __ZNSt3__122__compressed_pair_elemIRNS_9allocatorIPN7doctest9IReporterEEELi1ELb0EE5__getB8ne180100Ev, symObjAddr: 0x204B0, symBinAddr: 0x100021B70, symSize: 0x20 }
  - { offset: 0x5C780, size: 0x8, addend: 0x0, symName: __ZNSt3__117__compressed_pairIPPN7doctest9IReporterERNS_9allocatorIS3_EEE5firstB8ne180100Ev, symObjAddr: 0x204D0, symBinAddr: 0x100021B90, symSize: 0x20 }
  - { offset: 0x5C7A6, size: 0x8, addend: 0x0, symName: __ZNSt3__116reverse_iteratorIPPN7doctest9IReporterEEC1B8ne180100ES4_, symObjAddr: 0x20560, symBinAddr: 0x100021C20, symSize: 0x30 }
  - { offset: 0x5C7DF, size: 0x8, addend: 0x0, symName: __ZNKSt3__116reverse_iteratorIPPN7doctest9IReporterEE4baseB8ne180100Ev, symObjAddr: 0x20590, symBinAddr: 0x100021C50, symSize: 0x20 }
  - { offset: 0x5C805, size: 0x8, addend: 0x0, symName: __ZNKSt3__16vectorIPN7doctest9IReporterENS_9allocatorIS3_EEE14__annotate_newB8ne180100Em, symObjAddr: 0x205F0, symBinAddr: 0x100021CB0, symSize: 0x10 }
  - { offset: 0x5C857, size: 0x8, addend: 0x0, symName: __ZNKSt3__111__move_loopINS_17_ClassicAlgPolicyEEclB8ne180100INS_16reverse_iteratorIPPN7doctest9IReporterEEES9_S9_EENS_4pairIT_T1_EESB_T0_SC_, symObjAddr: 0x20A10, symBinAddr: 0x1000220D0, symSize: 0xA0 }
  - { offset: 0x5C8C5, size: 0x8, addend: 0x0, symName: __ZNSt3__119__unwrap_range_implINS_16reverse_iteratorIPPN7doctest9IReporterEEES6_E8__unwrapB8ne180100ES6_S6_, symObjAddr: 0x20BF0, symBinAddr: 0x1000222B0, symSize: 0x90 }
  - { offset: 0x5C8FE, size: 0x8, addend: 0x0, symName: __ZNSt3__14pairINS_16reverse_iteratorIPPN7doctest9IReporterEEES6_EC1B8ne180100IS6_S6_Li0EEEOT_OT0_, symObjAddr: 0x20C80, symBinAddr: 0x100022340, symSize: 0x30 }
  - { offset: 0x5C95F, size: 0x8, addend: 0x0, symName: __ZNSt3__14pairINS_16reverse_iteratorIPPN7doctest9IReporterEEES6_EC2B8ne180100IS6_S6_Li0EEEOT_OT0_, symObjAddr: 0x20CB0, symBinAddr: 0x100022370, symSize: 0x40 }
  - { offset: 0x5C9C0, size: 0x8, addend: 0x0, symName: __ZNSt3__18_IterOpsINS_17_ClassicAlgPolicyEE11__iter_moveB8ne180100IRNS_16reverse_iteratorIPPN7doctest9IReporterEEELi0EEEDTclsr3stdE4movedeclsr3stdE7declvalIRT_EEEEOSB_, symObjAddr: 0x20D30, symBinAddr: 0x1000223F0, symSize: 0x20 }
  - { offset: 0x5C9F4, size: 0x8, addend: 0x0, symName: __ZNKSt3__116reverse_iteratorIPPN7doctest9IReporterEEdeB8ne180100Ev, symObjAddr: 0x20D50, symBinAddr: 0x100022410, symSize: 0x30 }
  - { offset: 0x5CA29, size: 0x8, addend: 0x0, symName: __ZNSt3__116reverse_iteratorIPPN7doctest9IReporterEEppB8ne180100Ev, symObjAddr: 0x20D80, symBinAddr: 0x100022440, symSize: 0x20 }
  - { offset: 0x5CA4F, size: 0x8, addend: 0x0, symName: __ZNSt3__18_IterOpsINS_17_ClassicAlgPolicyEE25__validate_iter_referenceB8ne180100IRNS_16reverse_iteratorIPPN7doctest9IReporterEEEEEvv, symObjAddr: 0x20DA0, symBinAddr: 0x100022460, symSize: 0x10 }
  - { offset: 0x5CA6D, size: 0x8, addend: 0x0, symName: __ZNSt3__118__unwrap_iter_implINS_16reverse_iteratorIPPN7doctest9IReporterEEELb0EE8__unwrapB8ne180100ES6_, symObjAddr: 0x20DB0, symBinAddr: 0x100022470, symSize: 0x20 }
  - { offset: 0x5CA91, size: 0x8, addend: 0x0, symName: __ZNSt3__119__unwrap_range_implINS_16reverse_iteratorIPPN7doctest9IReporterEEES6_E8__rewrapB8ne180100ES6_S6_, symObjAddr: 0x20DD0, symBinAddr: 0x100022490, symSize: 0x60 }
  - { offset: 0x5CAC4, size: 0x8, addend: 0x0, symName: __ZNSt3__118__unwrap_iter_implINS_16reverse_iteratorIPPN7doctest9IReporterEEELb0EE8__rewrapB8ne180100ES6_S6_, symObjAddr: 0x20E30, symBinAddr: 0x1000224F0, symSize: 0x30 }
  - { offset: 0x5CAF3, size: 0x8, addend: 0x0, symName: __ZNSt3__116reverse_iteratorIPPN7doctest9IReporterEEC2B8ne180100ES4_, symObjAddr: 0x20E60, symBinAddr: 0x100022520, symSize: 0x30 }
  - { offset: 0x5CB2C, size: 0x8, addend: 0x0, symName: __ZNSt3__114__split_bufferIPN7doctest9IReporterERNS_9allocatorIS3_EEED2Ev, symObjAddr: 0x20E90, symBinAddr: 0x100022550, symSize: 0x70 }
  - { offset: 0x5CB58, size: 0x8, addend: 0x0, symName: __ZNSt3__114__split_bufferIPN7doctest9IReporterERNS_9allocatorIS3_EEE5clearB8ne180100Ev, symObjAddr: 0x20F00, symBinAddr: 0x1000225C0, symSize: 0x20 }
  - { offset: 0x5CB7E, size: 0x8, addend: 0x0, symName: __ZNKSt3__114__split_bufferIPN7doctest9IReporterERNS_9allocatorIS3_EEE8capacityB8ne180100Ev, symObjAddr: 0x20F20, symBinAddr: 0x1000225E0, symSize: 0x30 }
  - { offset: 0x5CBA4, size: 0x8, addend: 0x0, symName: __ZNSt3__114__split_bufferIPN7doctest9IReporterERNS_9allocatorIS3_EEE17__destruct_at_endB8ne180100EPS3_, symObjAddr: 0x20F50, symBinAddr: 0x100022610, symSize: 0x30 }
  - { offset: 0x5CBD9, size: 0x8, addend: 0x0, symName: __ZNSt3__114__split_bufferIPN7doctest9IReporterERNS_9allocatorIS3_EEE17__destruct_at_endB8ne180100EPS3_NS_17integral_constantIbLb0EEE, symObjAddr: 0x20F80, symBinAddr: 0x100022640, symSize: 0x80 }
  - { offset: 0x5CC1B, size: 0x8, addend: 0x0, symName: __ZNKSt3__114__split_bufferIPN7doctest9IReporterERNS_9allocatorIS3_EEE9__end_capB8ne180100Ev, symObjAddr: 0x21000, symBinAddr: 0x1000226C0, symSize: 0x20 }
  - { offset: 0x5CC41, size: 0x8, addend: 0x0, symName: __ZNKSt3__117__compressed_pairIPPN7doctest9IReporterERNS_9allocatorIS3_EEE5firstB8ne180100Ev, symObjAddr: 0x21020, symBinAddr: 0x1000226E0, symSize: 0x20 }
  - { offset: 0x5CC67, size: 0x8, addend: 0x0, symName: __ZNSt3__16vectorIPN7doctest9IReporterENS_9allocatorIS3_EEE12__move_rangeEPS3_S7_S7_, symObjAddr: 0x21080, symBinAddr: 0x100022740, symSize: 0x130 }
  - { offset: 0x5CD25, size: 0x8, addend: 0x0, symName: __ZNSt3__114__split_bufferIPN7doctest9IReporterERNS_9allocatorIS3_EEE9push_backEOS3_, symObjAddr: 0x211B0, symBinAddr: 0x100022870, symSize: 0x290 }
  - { offset: 0x5CD9E, size: 0x8, addend: 0x0, symName: __ZNKSt3__111__wrap_iterIPKPN7doctest9IReporterEE4baseB8ne180100Ev, symObjAddr: 0x215A0, symBinAddr: 0x100022C60, symSize: 0x20 }
  - { offset: 0x5CDEC, size: 0x8, addend: 0x0, symName: __ZNKSt3__123__move_backward_trivialclB8ne180100IPN7doctest9IReporterES4_Li0EEENS_4pairIPT_PT0_EES7_S7_S9_, symObjAddr: 0x21770, symBinAddr: 0x100022E30, symSize: 0x40 }
  - { offset: 0x5CE58, size: 0x8, addend: 0x0, symName: __ZNSt3__119__unwrap_range_implIPPN7doctest9IReporterES4_E8__unwrapB8ne180100ES4_S4_, symObjAddr: 0x21870, symBinAddr: 0x100022F30, symSize: 0x50 }
  - { offset: 0x5CE91, size: 0x8, addend: 0x0, symName: __ZNSt3__14pairIPPN7doctest9IReporterES4_EC1B8ne180100IS4_S4_Li0EEEOT_OT0_, symObjAddr: 0x218C0, symBinAddr: 0x100022F80, symSize: 0x30 }
  - { offset: 0x5CEF2, size: 0x8, addend: 0x0, symName: __ZNSt3__14pairIPPN7doctest9IReporterES4_EC2B8ne180100IS4_S4_Li0EEEOT_OT0_, symObjAddr: 0x218F0, symBinAddr: 0x100022FB0, symSize: 0x30 }
  - { offset: 0x5CF53, size: 0x8, addend: 0x0, symName: __ZNSt3__14pairIPPN7doctest9IReporterES4_EC1B8ne180100IRS4_S7_Li0EEEOT_OT0_, symObjAddr: 0x21A10, symBinAddr: 0x1000230D0, symSize: 0x30 }
  - { offset: 0x5CFB4, size: 0x8, addend: 0x0, symName: __ZNSt3__14pairIPPN7doctest9IReporterES4_EC2B8ne180100IRS4_S7_Li0EEEOT_OT0_, symObjAddr: 0x21A40, symBinAddr: 0x100023100, symSize: 0x30 }
  - { offset: 0x5D015, size: 0x8, addend: 0x0, symName: __ZNSt3__118__unwrap_iter_implIPPN7doctest9IReporterELb1EE8__unwrapB8ne180100ES4_, symObjAddr: 0x21A70, symBinAddr: 0x100023130, symSize: 0x20 }
  - { offset: 0x5D039, size: 0x8, addend: 0x0, symName: __ZNSt3__119__unwrap_range_implIPPN7doctest9IReporterES4_E8__rewrapB8ne180100ES4_S4_, symObjAddr: 0x21A90, symBinAddr: 0x100023150, symSize: 0x30 }
  - { offset: 0x5D06C, size: 0x8, addend: 0x0, symName: __ZNSt3__118__unwrap_iter_implIPPN7doctest9IReporterELb1EE8__rewrapB8ne180100ES4_S4_, symObjAddr: 0x21AC0, symBinAddr: 0x100023180, symSize: 0x50 }
  - { offset: 0x5D09F, size: 0x8, addend: 0x0, symName: __ZNSt3__114__split_bufferIPN7doctest9IReporterERNS_9allocatorIS3_EEE18__construct_at_endINS_13move_iteratorIPS3_EELi0EEEvT_SC_, symObjAddr: 0x21B50, symBinAddr: 0x100023210, symSize: 0x60 }
  - { offset: 0x5D0F5, size: 0x8, addend: 0x0, symName: __ZNSt3__113move_iteratorIPPN7doctest9IReporterEEC1B8ne180100ES4_, symObjAddr: 0x21BB0, symBinAddr: 0x100023270, symSize: 0x30 }
  - { offset: 0x5D139, size: 0x8, addend: 0x0, symName: __ZNKSt3__114__move_trivialclB8ne180100IPN7doctest9IReporterES4_Li0EEENS_4pairIPT_PT0_EES7_S7_S9_, symObjAddr: 0x21D10, symBinAddr: 0x1000233D0, symSize: 0x40 }
  - { offset: 0x5D1A5, size: 0x8, addend: 0x0, symName: __ZNSt3__14pairIPPN7doctest9IReporterES4_EC1B8ne180100IRS4_S4_Li0EEEOT_OT0_, symObjAddr: 0x21DF0, symBinAddr: 0x1000234B0, symSize: 0x30 }
  - { offset: 0x5D206, size: 0x8, addend: 0x0, symName: __ZNSt3__14pairIPPN7doctest9IReporterES4_EC2B8ne180100IRS4_S4_Li0EEEOT_OT0_, symObjAddr: 0x21E20, symBinAddr: 0x1000234E0, symSize: 0x30 }
  - { offset: 0x5D267, size: 0x8, addend: 0x0, symName: __ZNSt3__114__split_bufferIPN7doctest9IReporterERNS_9allocatorIS3_EEE28__construct_at_end_with_sizeINS_13move_iteratorIPS3_EEEEvT_m, symObjAddr: 0x21E50, symBinAddr: 0x100023510, symSize: 0xE0 }
  - { offset: 0x5D2D1, size: 0x8, addend: 0x0, symName: __ZNSt3__114__split_bufferIPN7doctest9IReporterERNS_9allocatorIS3_EEE21_ConstructTransactionC1B8ne180100EPPS3_m, symObjAddr: 0x21F70, symBinAddr: 0x100023630, symSize: 0x30 }
  - { offset: 0x5D319, size: 0x8, addend: 0x0, symName: __ZNKSt3__113move_iteratorIPPN7doctest9IReporterEEdeB8ne180100Ev, symObjAddr: 0x21FA0, symBinAddr: 0x100023660, symSize: 0x30 }
  - { offset: 0x5D33F, size: 0x8, addend: 0x0, symName: __ZNSt3__113move_iteratorIPPN7doctest9IReporterEEppB8ne180100Ev, symObjAddr: 0x21FD0, symBinAddr: 0x100023690, symSize: 0x20 }
  - { offset: 0x5D365, size: 0x8, addend: 0x0, symName: __ZNSt3__114__split_bufferIPN7doctest9IReporterERNS_9allocatorIS3_EEE21_ConstructTransactionD1B8ne180100Ev, symObjAddr: 0x21FF0, symBinAddr: 0x1000236B0, symSize: 0x20 }
  - { offset: 0x5D38F, size: 0x8, addend: 0x0, symName: __ZNSt3__114__split_bufferIPN7doctest9IReporterERNS_9allocatorIS3_EEE21_ConstructTransactionC2B8ne180100EPPS3_m, symObjAddr: 0x22010, symBinAddr: 0x1000236D0, symSize: 0x40 }
  - { offset: 0x5D3DD, size: 0x8, addend: 0x0, symName: __ZNKSt3__16ranges11__iter_move4__fnclB8ne180100IRKPPN7doctest9IReporterEEEDTclsr3stdE4movedeclsr3stdE7forwardIT_Efp_EEEOSA_, symObjAddr: 0x22050, symBinAddr: 0x100023710, symSize: 0x20 }
  - { offset: 0x5D41B, size: 0x8, addend: 0x0, symName: __ZNSt3__114__split_bufferIPN7doctest9IReporterERNS_9allocatorIS3_EEE21_ConstructTransactionD2B8ne180100Ev, symObjAddr: 0x22070, symBinAddr: 0x100023730, symSize: 0x20 }
  - { offset: 0x5D445, size: 0x8, addend: 0x0, symName: __ZNKRSt3__113move_iteratorIPPN7doctest9IReporterEE4baseB8ne180100Ev, symObjAddr: 0x22100, symBinAddr: 0x1000237C0, symSize: 0x10 }
  - { offset: 0x5D46B, size: 0x8, addend: 0x0, symName: __ZNSt3__113move_iteratorIPPN7doctest9IReporterEEC2B8ne180100ES4_, symObjAddr: 0x22110, symBinAddr: 0x1000237D0, symSize: 0x20 }
  - { offset: 0x5D4A4, size: 0x8, addend: 0x0, symName: __ZNSt3__111__wrap_iterIPKPN7doctest9IReporterEEC2B8ne180100IPS3_Li0EEERKNS0_IT_EE, symObjAddr: 0x22160, symBinAddr: 0x100023820, symSize: 0x40 }
  - { offset: 0x5D4ED, size: 0x8, addend: 0x0, symName: __ZN7doctest9QueryDataC2Ev, symObjAddr: 0x221A0, symBinAddr: 0x100023860, symSize: 0x30 }
  - { offset: 0x5D51A, size: 0x8, addend: 0x0, symName: __ZN7doctest12_GLOBAL__N_121FatalConditionHandler15freeAltStackMemEv, symObjAddr: 0x221D0, symBinAddr: 0x100023890, symSize: 0x30 }
  - { offset: 0x5D52E, size: 0x8, addend: 0x0, symName: __ZNKSt3__113basic_fstreamIcNS_11char_traitsIcEEE7is_openEv, symObjAddr: 0x22200, symBinAddr: 0x1000238C0, symSize: 0x30 }
  - { offset: 0x5D556, size: 0x8, addend: 0x0, symName: __ZNSt3__113basic_fstreamIcNS_11char_traitsIcEEE5closeEv, symObjAddr: 0x22230, symBinAddr: 0x1000238F0, symSize: 0x50 }
  - { offset: 0x5D57E, size: 0x8, addend: 0x0, symName: __ZNSt3__16vectorIPN7doctest9IReporterENS_9allocatorIS3_EEE5clearB8ne180100Ev, symObjAddr: 0x22280, symBinAddr: 0x100023940, symSize: 0x40 }
  - { offset: 0x5D5B3, size: 0x8, addend: 0x0, symName: __ZNKSt3__113basic_filebufIcNS_11char_traitsIcEEE7is_openEv, symObjAddr: 0x222C0, symBinAddr: 0x100023980, symSize: 0x20 }
  - { offset: 0x5D5DB, size: 0x8, addend: 0x0, symName: __ZNSt3__19basic_iosIcNS_11char_traitsIcEEE8setstateB8ne180100Ej, symObjAddr: 0x222E0, symBinAddr: 0x1000239A0, symSize: 0x30 }
  - { offset: 0x5D610, size: 0x8, addend: 0x0, symName: __ZNSt3__18ios_base8setstateB8ne180100Ej, symObjAddr: 0x22310, symBinAddr: 0x1000239D0, symSize: 0x30 }
  - { offset: 0x5D647, size: 0x8, addend: 0x0, symName: __ZNKSt3__16vectorIPN7doctest9IReporterENS_9allocatorIS3_EEE17__annotate_shrinkB8ne180100Em, symObjAddr: 0x22340, symBinAddr: 0x100023A00, symSize: 0x10 }
  - { offset: 0x5D67C, size: 0x8, addend: 0x0, symName: __ZNSt3__16vectorIPKN7doctest6detail8TestCaseENS_9allocatorIS5_EEEC2B8ne180100Ev, symObjAddr: 0x22350, symBinAddr: 0x100023A10, symSize: 0x50 }
  - { offset: 0x5D6A6, size: 0x8, addend: 0x0, symName: __ZNSt3__117__compressed_pairIPPKN7doctest6detail8TestCaseENS_9allocatorIS5_EEEC1B8ne180100IDnNS_18__default_init_tagEEEOT_OT0_, symObjAddr: 0x223A0, symBinAddr: 0x100023A60, symSize: 0x30 }
  - { offset: 0x5D700, size: 0x8, addend: 0x0, symName: __ZNSt3__117__compressed_pairIPPKN7doctest6detail8TestCaseENS_9allocatorIS5_EEEC2B8ne180100IDnNS_18__default_init_tagEEEOT_OT0_, symObjAddr: 0x223D0, symBinAddr: 0x100023A90, symSize: 0x40 }
  - { offset: 0x5D75A, size: 0x8, addend: 0x0, symName: __ZNSt3__122__compressed_pair_elemIPPKN7doctest6detail8TestCaseELi0ELb0EEC2B8ne180100IDnvEEOT_, symObjAddr: 0x22410, symBinAddr: 0x100023AD0, symSize: 0x20 }
  - { offset: 0x5D79D, size: 0x8, addend: 0x0, symName: __ZNSt3__122__compressed_pair_elemINS_9allocatorIPKN7doctest6detail8TestCaseEEELi1ELb1EEC2B8ne180100ENS_18__default_init_tagE, symObjAddr: 0x22430, symBinAddr: 0x100023AF0, symSize: 0x20 }
  - { offset: 0x5D7D2, size: 0x8, addend: 0x0, symName: __ZNSt3__19allocatorIPKN7doctest6detail8TestCaseEEC2B8ne180100Ev, symObjAddr: 0x22450, symBinAddr: 0x100023B10, symSize: 0x20 }
  - { offset: 0x5D7FC, size: 0x8, addend: 0x0, symName: __ZNSt3__116__non_trivial_ifILb1ENS_9allocatorIPKN7doctest6detail8TestCaseEEEEC2B8ne180100Ev, symObjAddr: 0x22470, symBinAddr: 0x100023B30, symSize: 0x10 }
  - { offset: 0x5D826, size: 0x8, addend: 0x0, symName: __ZNSt3__16vectorIPKN7doctest6detail8TestCaseENS_9allocatorIS5_EEE9__end_capB8ne180100Ev, symObjAddr: 0x22480, symBinAddr: 0x100023B40, symSize: 0x20 }
  - { offset: 0x5D852, size: 0x8, addend: 0x0, symName: __ZNSt3__16vectorIPKN7doctest6detail8TestCaseENS_9allocatorIS5_EEE22__construct_one_at_endB8ne180100IJS5_EEEvDpOT_, symObjAddr: 0x224A0, symBinAddr: 0x100023B60, symSize: 0x90 }
  - { offset: 0x5D8A1, size: 0x8, addend: 0x0, symName: __ZNSt3__16vectorIPKN7doctest6detail8TestCaseENS_9allocatorIS5_EEE21__push_back_slow_pathIS5_EEPS5_OT_, symObjAddr: 0x22530, symBinAddr: 0x100023BF0, symSize: 0xE0 }
  - { offset: 0x5D8FF, size: 0x8, addend: 0x0, symName: __ZNSt3__117__compressed_pairIPPKN7doctest6detail8TestCaseENS_9allocatorIS5_EEE5firstB8ne180100Ev, symObjAddr: 0x22610, symBinAddr: 0x100023CD0, symSize: 0x20 }
  - { offset: 0x5D925, size: 0x8, addend: 0x0, symName: __ZNSt3__122__compressed_pair_elemIPPKN7doctest6detail8TestCaseELi0ELb0EE5__getB8ne180100Ev, symObjAddr: 0x22630, symBinAddr: 0x100023CF0, symSize: 0x10 }
  - { offset: 0x5D967, size: 0x8, addend: 0x0, symName: __ZNSt3__16vectorIPKN7doctest6detail8TestCaseENS_9allocatorIS5_EEE21_ConstructTransactionC1B8ne180100ERS8_m, symObjAddr: 0x22640, symBinAddr: 0x100023D00, symSize: 0x30 }
  - { offset: 0x5D9AF, size: 0x8, addend: 0x0, symName: __ZNSt3__116allocator_traitsINS_9allocatorIPKN7doctest6detail8TestCaseEEEE9constructB8ne180100IS6_JS6_EvvEEvRS7_PT_DpOT0_, symObjAddr: 0x22670, symBinAddr: 0x100023D30, symSize: 0x30 }
  - { offset: 0x5DA03, size: 0x8, addend: 0x0, symName: __ZNSt3__16vectorIPKN7doctest6detail8TestCaseENS_9allocatorIS5_EEE7__allocB8ne180100Ev, symObjAddr: 0x226A0, symBinAddr: 0x100023D60, symSize: 0x20 }
  - { offset: 0x5DA29, size: 0x8, addend: 0x0, symName: __ZNSt3__16vectorIPKN7doctest6detail8TestCaseENS_9allocatorIS5_EEE21_ConstructTransactionD1B8ne180100Ev, symObjAddr: 0x226D0, symBinAddr: 0x100023D90, symSize: 0x20 }
  - { offset: 0x5DA53, size: 0x8, addend: 0x0, symName: __ZNSt3__16vectorIPKN7doctest6detail8TestCaseENS_9allocatorIS5_EEE21_ConstructTransactionC2B8ne180100ERS8_m, symObjAddr: 0x226F0, symBinAddr: 0x100023DB0, symSize: 0x40 }
  - { offset: 0x5DA9B, size: 0x8, addend: 0x0, symName: __ZNSt3__117__compressed_pairIPPKN7doctest6detail8TestCaseENS_9allocatorIS5_EEE6secondB8ne180100Ev, symObjAddr: 0x22780, symBinAddr: 0x100023E40, symSize: 0x20 }
  - { offset: 0x5DAC1, size: 0x8, addend: 0x0, symName: __ZNSt3__122__compressed_pair_elemINS_9allocatorIPKN7doctest6detail8TestCaseEEELi1ELb1EE5__getB8ne180100Ev, symObjAddr: 0x227A0, symBinAddr: 0x100023E60, symSize: 0x10 }
  - { offset: 0x5DAE7, size: 0x8, addend: 0x0, symName: __ZNSt3__16vectorIPKN7doctest6detail8TestCaseENS_9allocatorIS5_EEE21_ConstructTransactionD2B8ne180100Ev, symObjAddr: 0x227B0, symBinAddr: 0x100023E70, symSize: 0x20 }
  - { offset: 0x5DB11, size: 0x8, addend: 0x0, symName: __ZNKSt3__16vectorIPKN7doctest6detail8TestCaseENS_9allocatorIS5_EEE11__recommendB8ne180100Em, symObjAddr: 0x227D0, symBinAddr: 0x100023E90, symSize: 0x90 }
  - { offset: 0x5DB66, size: 0x8, addend: 0x0, symName: __ZNSt3__114__split_bufferIPKN7doctest6detail8TestCaseERNS_9allocatorIS5_EEEC1EmmS8_, symObjAddr: 0x22860, symBinAddr: 0x100023F20, symSize: 0x40 }
  - { offset: 0x5DBBF, size: 0x8, addend: 0x0, symName: __ZNSt3__114__split_bufferIPKN7doctest6detail8TestCaseERNS_9allocatorIS5_EEED1Ev, symObjAddr: 0x229C0, symBinAddr: 0x100024080, symSize: 0x20 }
  - { offset: 0x5DBEB, size: 0x8, addend: 0x0, symName: __ZNKSt3__16vectorIPKN7doctest6detail8TestCaseENS_9allocatorIS5_EEE8max_sizeEv, symObjAddr: 0x229E0, symBinAddr: 0x1000240A0, symSize: 0x60 }
  - { offset: 0x5DC13, size: 0x8, addend: 0x0, symName: __ZNKSt3__16vectorIPKN7doctest6detail8TestCaseENS_9allocatorIS5_EEE20__throw_length_errorB8ne180100Ev, symObjAddr: 0x22A40, symBinAddr: 0x100024100, symSize: 0x20 }
  - { offset: 0x5DC39, size: 0x8, addend: 0x0, symName: __ZNKSt3__16vectorIPKN7doctest6detail8TestCaseENS_9allocatorIS5_EEE8capacityB8ne180100Ev, symObjAddr: 0x22A60, symBinAddr: 0x100024120, symSize: 0x30 }
  - { offset: 0x5DC6A, size: 0x8, addend: 0x0, symName: __ZNSt3__116allocator_traitsINS_9allocatorIPKN7doctest6detail8TestCaseEEEE8max_sizeB8ne180100IS7_vvEEmRKS7_, symObjAddr: 0x22A90, symBinAddr: 0x100024150, symSize: 0x20 }
  - { offset: 0x5DC95, size: 0x8, addend: 0x0, symName: __ZNKSt3__16vectorIPKN7doctest6detail8TestCaseENS_9allocatorIS5_EEE7__allocB8ne180100Ev, symObjAddr: 0x22AB0, symBinAddr: 0x100024170, symSize: 0x20 }
  - { offset: 0x5DCBB, size: 0x8, addend: 0x0, symName: __ZNKSt3__117__compressed_pairIPPKN7doctest6detail8TestCaseENS_9allocatorIS5_EEE6secondB8ne180100Ev, symObjAddr: 0x22AD0, symBinAddr: 0x100024190, symSize: 0x20 }
  - { offset: 0x5DCE1, size: 0x8, addend: 0x0, symName: __ZNKSt3__122__compressed_pair_elemINS_9allocatorIPKN7doctest6detail8TestCaseEEELi1ELb1EE5__getB8ne180100Ev, symObjAddr: 0x22AF0, symBinAddr: 0x1000241B0, symSize: 0x10 }
  - { offset: 0x5DD07, size: 0x8, addend: 0x0, symName: __ZNKSt3__16vectorIPKN7doctest6detail8TestCaseENS_9allocatorIS5_EEE9__end_capB8ne180100Ev, symObjAddr: 0x22B00, symBinAddr: 0x1000241C0, symSize: 0x20 }
  - { offset: 0x5DD2D, size: 0x8, addend: 0x0, symName: __ZNKSt3__117__compressed_pairIPPKN7doctest6detail8TestCaseENS_9allocatorIS5_EEE5firstB8ne180100Ev, symObjAddr: 0x22B20, symBinAddr: 0x1000241E0, symSize: 0x20 }
  - { offset: 0x5DD53, size: 0x8, addend: 0x0, symName: __ZNKSt3__122__compressed_pair_elemIPPKN7doctest6detail8TestCaseELi0ELb0EE5__getB8ne180100Ev, symObjAddr: 0x22B40, symBinAddr: 0x100024200, symSize: 0x10 }
  - { offset: 0x5DD79, size: 0x8, addend: 0x0, symName: __ZNSt3__114__split_bufferIPKN7doctest6detail8TestCaseERNS_9allocatorIS5_EEEC2EmmS8_, symObjAddr: 0x22B50, symBinAddr: 0x100024210, symSize: 0xD0 }
  - { offset: 0x5DDEF, size: 0x8, addend: 0x0, symName: __ZNSt3__117__compressed_pairIPPKN7doctest6detail8TestCaseERNS_9allocatorIS5_EEEC1B8ne180100IDnS9_EEOT_OT0_, symObjAddr: 0x22C20, symBinAddr: 0x1000242E0, symSize: 0x30 }
  - { offset: 0x5DE49, size: 0x8, addend: 0x0, symName: __ZNSt3__114__split_bufferIPKN7doctest6detail8TestCaseERNS_9allocatorIS5_EEE7__allocB8ne180100Ev, symObjAddr: 0x22C90, symBinAddr: 0x100024350, symSize: 0x20 }
  - { offset: 0x5DE6F, size: 0x8, addend: 0x0, symName: __ZNSt3__114__split_bufferIPKN7doctest6detail8TestCaseERNS_9allocatorIS5_EEE9__end_capB8ne180100Ev, symObjAddr: 0x22CB0, symBinAddr: 0x100024370, symSize: 0x20 }
  - { offset: 0x5DE95, size: 0x8, addend: 0x0, symName: __ZNSt3__117__compressed_pairIPPKN7doctest6detail8TestCaseERNS_9allocatorIS5_EEEC2B8ne180100IDnS9_EEOT_OT0_, symObjAddr: 0x22CD0, symBinAddr: 0x100024390, symSize: 0x40 }
  - { offset: 0x5DEEF, size: 0x8, addend: 0x0, symName: __ZNSt3__122__compressed_pair_elemIRNS_9allocatorIPKN7doctest6detail8TestCaseEEELi1ELb0EEC2B8ne180100IS8_vEEOT_, symObjAddr: 0x22D10, symBinAddr: 0x1000243D0, symSize: 0x20 }
  - { offset: 0x5DF32, size: 0x8, addend: 0x0, symName: __ZNSt3__19allocatorIPKN7doctest6detail8TestCaseEE8allocateB8ne180100Em, symObjAddr: 0x22D30, symBinAddr: 0x1000243F0, symSize: 0x50 }
  - { offset: 0x5DF67, size: 0x8, addend: 0x0, symName: __ZNSt3__117__compressed_pairIPPKN7doctest6detail8TestCaseERNS_9allocatorIS5_EEE6secondB8ne180100Ev, symObjAddr: 0x22D80, symBinAddr: 0x100024440, symSize: 0x20 }
  - { offset: 0x5DF8D, size: 0x8, addend: 0x0, symName: __ZNSt3__122__compressed_pair_elemIRNS_9allocatorIPKN7doctest6detail8TestCaseEEELi1ELb0EE5__getB8ne180100Ev, symObjAddr: 0x22DA0, symBinAddr: 0x100024460, symSize: 0x20 }
  - { offset: 0x5DFB3, size: 0x8, addend: 0x0, symName: __ZNSt3__117__compressed_pairIPPKN7doctest6detail8TestCaseERNS_9allocatorIS5_EEE5firstB8ne180100Ev, symObjAddr: 0x22DC0, symBinAddr: 0x100024480, symSize: 0x20 }
  - { offset: 0x5DFD9, size: 0x8, addend: 0x0, symName: __ZNKSt3__16vectorIPKN7doctest6detail8TestCaseENS_9allocatorIS5_EEE17__annotate_deleteB8ne180100Ev, symObjAddr: 0x22DE0, symBinAddr: 0x1000244A0, symSize: 0x10 }
  - { offset: 0x5DFFF, size: 0x8, addend: 0x0, symName: __ZNSt3__116reverse_iteratorIPPKN7doctest6detail8TestCaseEEC1B8ne180100ES6_, symObjAddr: 0x22E60, symBinAddr: 0x100024520, symSize: 0x30 }
  - { offset: 0x5E038, size: 0x8, addend: 0x0, symName: __ZNKSt3__116reverse_iteratorIPPKN7doctest6detail8TestCaseEE4baseB8ne180100Ev, symObjAddr: 0x22E90, symBinAddr: 0x100024550, symSize: 0x20 }
  - { offset: 0x5E05E, size: 0x8, addend: 0x0, symName: __ZNKSt3__16vectorIPKN7doctest6detail8TestCaseENS_9allocatorIS5_EEE14__annotate_newB8ne180100Em, symObjAddr: 0x22EF0, symBinAddr: 0x1000245B0, symSize: 0x10 }
  - { offset: 0x5E0B0, size: 0x8, addend: 0x0, symName: __ZNKSt3__111__move_loopINS_17_ClassicAlgPolicyEEclB8ne180100INS_16reverse_iteratorIPPKN7doctest6detail8TestCaseEEESB_SB_EENS_4pairIT_T1_EESD_T0_SE_, symObjAddr: 0x23310, symBinAddr: 0x1000249D0, symSize: 0xA0 }
  - { offset: 0x5E11E, size: 0x8, addend: 0x0, symName: __ZNSt3__119__unwrap_range_implINS_16reverse_iteratorIPPKN7doctest6detail8TestCaseEEES8_E8__unwrapB8ne180100ES8_S8_, symObjAddr: 0x234F0, symBinAddr: 0x100024BB0, symSize: 0x90 }
  - { offset: 0x5E157, size: 0x8, addend: 0x0, symName: __ZNSt3__14pairINS_16reverse_iteratorIPPKN7doctest6detail8TestCaseEEES8_EC1B8ne180100IS8_S8_Li0EEEOT_OT0_, symObjAddr: 0x23580, symBinAddr: 0x100024C40, symSize: 0x30 }
  - { offset: 0x5E1B8, size: 0x8, addend: 0x0, symName: __ZNSt3__14pairINS_16reverse_iteratorIPPKN7doctest6detail8TestCaseEEES8_EC2B8ne180100IS8_S8_Li0EEEOT_OT0_, symObjAddr: 0x235B0, symBinAddr: 0x100024C70, symSize: 0x40 }
  - { offset: 0x5E21F, size: 0x8, addend: 0x0, symName: __ZNSt3__18_IterOpsINS_17_ClassicAlgPolicyEE11__iter_moveB8ne180100IRNS_16reverse_iteratorIPPKN7doctest6detail8TestCaseEEELi0EEEDTclsr3stdE4movedeclsr3stdE7declvalIRT_EEEEOSD_, symObjAddr: 0x23630, symBinAddr: 0x100024CF0, symSize: 0x20 }
  - { offset: 0x5E253, size: 0x8, addend: 0x0, symName: __ZNKSt3__116reverse_iteratorIPPKN7doctest6detail8TestCaseEEdeB8ne180100Ev, symObjAddr: 0x23650, symBinAddr: 0x100024D10, symSize: 0x30 }
  - { offset: 0x5E288, size: 0x8, addend: 0x0, symName: __ZNSt3__116reverse_iteratorIPPKN7doctest6detail8TestCaseEEppB8ne180100Ev, symObjAddr: 0x23680, symBinAddr: 0x100024D40, symSize: 0x20 }
  - { offset: 0x5E2AE, size: 0x8, addend: 0x0, symName: __ZNSt3__18_IterOpsINS_17_ClassicAlgPolicyEE25__validate_iter_referenceB8ne180100IRNS_16reverse_iteratorIPPKN7doctest6detail8TestCaseEEEEEvv, symObjAddr: 0x236A0, symBinAddr: 0x100024D60, symSize: 0x10 }
  - { offset: 0x5E2CC, size: 0x8, addend: 0x0, symName: __ZNSt3__118__unwrap_iter_implINS_16reverse_iteratorIPPKN7doctest6detail8TestCaseEEELb0EE8__unwrapB8ne180100ES8_, symObjAddr: 0x236B0, symBinAddr: 0x100024D70, symSize: 0x20 }
  - { offset: 0x5E2F0, size: 0x8, addend: 0x0, symName: __ZNSt3__119__unwrap_range_implINS_16reverse_iteratorIPPKN7doctest6detail8TestCaseEEES8_E8__rewrapB8ne180100ES8_S8_, symObjAddr: 0x236D0, symBinAddr: 0x100024D90, symSize: 0x60 }
  - { offset: 0x5E323, size: 0x8, addend: 0x0, symName: __ZNSt3__118__unwrap_iter_implINS_16reverse_iteratorIPPKN7doctest6detail8TestCaseEEELb0EE8__rewrapB8ne180100ES8_S8_, symObjAddr: 0x23730, symBinAddr: 0x100024DF0, symSize: 0x30 }
  - { offset: 0x5E352, size: 0x8, addend: 0x0, symName: __ZNSt3__116reverse_iteratorIPPKN7doctest6detail8TestCaseEEC2B8ne180100ES6_, symObjAddr: 0x23760, symBinAddr: 0x100024E20, symSize: 0x30 }
  - { offset: 0x5E38B, size: 0x8, addend: 0x0, symName: __ZNSt3__114__split_bufferIPKN7doctest6detail8TestCaseERNS_9allocatorIS5_EEED2Ev, symObjAddr: 0x23790, symBinAddr: 0x100024E50, symSize: 0x70 }
  - { offset: 0x5E3B7, size: 0x8, addend: 0x0, symName: __ZNSt3__114__split_bufferIPKN7doctest6detail8TestCaseERNS_9allocatorIS5_EEE5clearB8ne180100Ev, symObjAddr: 0x23800, symBinAddr: 0x100024EC0, symSize: 0x20 }
  - { offset: 0x5E3DD, size: 0x8, addend: 0x0, symName: __ZNSt3__116allocator_traitsINS_9allocatorIPKN7doctest6detail8TestCaseEEEE10deallocateB8ne180100ERS7_PS6_m, symObjAddr: 0x23820, symBinAddr: 0x100024EE0, symSize: 0x30 }
  - { offset: 0x5E41F, size: 0x8, addend: 0x0, symName: __ZNKSt3__114__split_bufferIPKN7doctest6detail8TestCaseERNS_9allocatorIS5_EEE8capacityB8ne180100Ev, symObjAddr: 0x23850, symBinAddr: 0x100024F10, symSize: 0x30 }
  - { offset: 0x5E445, size: 0x8, addend: 0x0, symName: __ZNSt3__114__split_bufferIPKN7doctest6detail8TestCaseERNS_9allocatorIS5_EEE17__destruct_at_endB8ne180100EPS5_, symObjAddr: 0x23880, symBinAddr: 0x100024F40, symSize: 0x30 }
  - { offset: 0x5E47A, size: 0x8, addend: 0x0, symName: __ZNSt3__114__split_bufferIPKN7doctest6detail8TestCaseERNS_9allocatorIS5_EEE17__destruct_at_endB8ne180100EPS5_NS_17integral_constantIbLb0EEE, symObjAddr: 0x238B0, symBinAddr: 0x100024F70, symSize: 0x80 }
  - { offset: 0x5E4BC, size: 0x8, addend: 0x0, symName: __ZNSt3__116allocator_traitsINS_9allocatorIPKN7doctest6detail8TestCaseEEEE7destroyB8ne180100IS6_vvEEvRS7_PT_, symObjAddr: 0x23930, symBinAddr: 0x100024FF0, symSize: 0x20 }
  - { offset: 0x5E4F6, size: 0x8, addend: 0x0, symName: __ZNSt3__19allocatorIPKN7doctest6detail8TestCaseEE10deallocateB8ne180100EPS5_m, symObjAddr: 0x23960, symBinAddr: 0x100025020, symSize: 0x40 }
  - { offset: 0x5E53A, size: 0x8, addend: 0x0, symName: __ZNKSt3__114__split_bufferIPKN7doctest6detail8TestCaseERNS_9allocatorIS5_EEE9__end_capB8ne180100Ev, symObjAddr: 0x239A0, symBinAddr: 0x100025060, symSize: 0x20 }
  - { offset: 0x5E560, size: 0x8, addend: 0x0, symName: __ZNKSt3__117__compressed_pairIPPKN7doctest6detail8TestCaseERNS_9allocatorIS5_EEE5firstB8ne180100Ev, symObjAddr: 0x239C0, symBinAddr: 0x100025080, symSize: 0x20 }
  - { offset: 0x5E586, size: 0x8, addend: 0x0, symName: __ZNSt3__18_IterOpsINS_17_ClassicAlgPolicyEE9iter_swapB8ne180100IRPPKN7doctest6detail8TestCaseESA_EEvOT_OT0_, symObjAddr: 0x24000, symBinAddr: 0x1000256C0, symSize: 0x30 }
  - { offset: 0x5E5D1, size: 0x8, addend: 0x0, symName: __ZNSt3__18_IterOpsINS_17_ClassicAlgPolicyEE9iter_swapB8ne180100IRPPKN7doctest6detail8TestCaseES9_EEvOT_OT0_, symObjAddr: 0x24530, symBinAddr: 0x100025BF0, symSize: 0x30 }
  - { offset: 0x5E616, size: 0x8, addend: 0x0, symName: __ZNSt3__18_IterOpsINS_17_ClassicAlgPolicyEE11__iter_moveB8ne180100IRPPKN7doctest6detail8TestCaseELi0EEEDTclsr3stdE4movedeclsr3stdE7declvalIRT_EEEEOSB_, symObjAddr: 0x250F0, symBinAddr: 0x1000267B0, symSize: 0x20 }
  - { offset: 0x5E64A, size: 0x8, addend: 0x0, symName: __ZNSt3__18_IterOpsINS_17_ClassicAlgPolicyEE25__validate_iter_referenceB8ne180100IRPPKN7doctest6detail8TestCaseEEEvv, symObjAddr: 0x25110, symBinAddr: 0x1000267D0, symSize: 0x10 }
  - { offset: 0x5E668, size: 0x8, addend: 0x0, symName: __ZNSt3__18_IterOpsINS_17_ClassicAlgPolicyEE4nextB8ne180100IPPKN7doctest6detail8TestCaseEEET_SA_SA_, symObjAddr: 0x25120, symBinAddr: 0x1000267E0, symSize: 0x20 }
  - { offset: 0x5E6A0, size: 0x8, addend: 0x0, symName: __ZNSt3__18_IterOpsINS_17_ClassicAlgPolicyEE9iter_swapB8ne180100IPPKN7doctest6detail8TestCaseES9_EEvOT_OT0_, symObjAddr: 0x25ED0, symBinAddr: 0x100027590, symSize: 0x30 }
  - { offset: 0x5E702, size: 0x8, addend: 0x0, symName: __ZNSt3__14pairIPPKN7doctest6detail8TestCaseEbEC1B8ne180100IRS6_RbLi0EEEOT_OT0_, symObjAddr: 0x25F20, symBinAddr: 0x1000275E0, symSize: 0x30 }
  - { offset: 0x5E763, size: 0x8, addend: 0x0, symName: __ZNSt3__14pairIPPKN7doctest6detail8TestCaseEbEC2B8ne180100IRS6_RbLi0EEEOT_OT0_, symObjAddr: 0x25F50, symBinAddr: 0x100027610, symSize: 0x30 }
  - { offset: 0x5E7C4, size: 0x8, addend: 0x0, symName: __ZNSt3__118__unwrap_iter_implINS_11__wrap_iterIPPKN7doctest6detail8TestCaseEEELb1EE8__unwrapB8ne180100ES8_, symObjAddr: 0x25F80, symBinAddr: 0x100027640, symSize: 0x20 }
  - { offset: 0x5E7F4, size: 0x8, addend: 0x0, symName: __ZNSt3__119__to_address_helperINS_11__wrap_iterIPPKN7doctest6detail8TestCaseEEEvE6__callB8ne180100ERKS8_, symObjAddr: 0x25FC0, symBinAddr: 0x100027680, symSize: 0x30 }
  - { offset: 0x5E818, size: 0x8, addend: 0x0, symName: __ZNSt3__114pointer_traitsINS_11__wrap_iterIPPKN7doctest6detail8TestCaseEEEE10to_addressB8ne180100ES8_, symObjAddr: 0x25FF0, symBinAddr: 0x1000276B0, symSize: 0x30 }
  - { offset: 0x5E83C, size: 0x8, addend: 0x0, symName: __ZNKSt3__111__wrap_iterIPPKN7doctest6detail8TestCaseEE4baseB8ne180100Ev, symObjAddr: 0x26020, symBinAddr: 0x1000276E0, symSize: 0x20 }
  - { offset: 0x5E862, size: 0x8, addend: 0x0, symName: __ZNSt3__16vectorIPKN7doctest6detail8TestCaseENS_9allocatorIS5_EEE11__make_iterB8ne180100EPS5_, symObjAddr: 0x26040, symBinAddr: 0x100027700, symSize: 0x30 }
  - { offset: 0x5E897, size: 0x8, addend: 0x0, symName: __ZNSt3__111__wrap_iterIPPKN7doctest6detail8TestCaseEEC1B8ne180100ES6_, symObjAddr: 0x26070, symBinAddr: 0x100027730, symSize: 0x30 }
  - { offset: 0x5E8D0, size: 0x8, addend: 0x0, symName: __ZNSt3__111__wrap_iterIPPKN7doctest6detail8TestCaseEEC2B8ne180100ES6_, symObjAddr: 0x260A0, symBinAddr: 0x100027760, symSize: 0x20 }
  - { offset: 0x5E909, size: 0x8, addend: 0x0, symName: __ZNSt3__16vectorIPKN7doctest12TestCaseDataENS_9allocatorIS4_EEEC2B8ne180100Ev, symObjAddr: 0x260C0, symBinAddr: 0x100027780, symSize: 0x50 }
  - { offset: 0x5E933, size: 0x8, addend: 0x0, symName: __ZNSt3__117__compressed_pairIPPKN7doctest12TestCaseDataENS_9allocatorIS4_EEEC1B8ne180100IDnNS_18__default_init_tagEEEOT_OT0_, symObjAddr: 0x26110, symBinAddr: 0x1000277D0, symSize: 0x30 }
  - { offset: 0x5E98D, size: 0x8, addend: 0x0, symName: __ZNSt3__117__compressed_pairIPPKN7doctest12TestCaseDataENS_9allocatorIS4_EEEC2B8ne180100IDnNS_18__default_init_tagEEEOT_OT0_, symObjAddr: 0x26140, symBinAddr: 0x100027800, symSize: 0x40 }
  - { offset: 0x5E9E7, size: 0x8, addend: 0x0, symName: __ZNSt3__122__compressed_pair_elemIPPKN7doctest12TestCaseDataELi0ELb0EEC2B8ne180100IDnvEEOT_, symObjAddr: 0x26180, symBinAddr: 0x100027840, symSize: 0x20 }
  - { offset: 0x5EA2A, size: 0x8, addend: 0x0, symName: __ZNSt3__122__compressed_pair_elemINS_9allocatorIPKN7doctest12TestCaseDataEEELi1ELb1EEC2B8ne180100ENS_18__default_init_tagE, symObjAddr: 0x261A0, symBinAddr: 0x100027860, symSize: 0x20 }
  - { offset: 0x5EA5F, size: 0x8, addend: 0x0, symName: __ZNSt3__19allocatorIPKN7doctest12TestCaseDataEEC2B8ne180100Ev, symObjAddr: 0x261C0, symBinAddr: 0x100027880, symSize: 0x20 }
  - { offset: 0x5EA89, size: 0x8, addend: 0x0, symName: __ZNSt3__116__non_trivial_ifILb1ENS_9allocatorIPKN7doctest12TestCaseDataEEEEC2B8ne180100Ev, symObjAddr: 0x261E0, symBinAddr: 0x1000278A0, symSize: 0x10 }
  - { offset: 0x5EAB3, size: 0x8, addend: 0x0, symName: __ZNSt3__16vectorIPKN7doctest12TestCaseDataENS_9allocatorIS4_EEE9__end_capB8ne180100Ev, symObjAddr: 0x26230, symBinAddr: 0x1000278F0, symSize: 0x20 }
  - { offset: 0x5EADF, size: 0x8, addend: 0x0, symName: __ZNSt3__16vectorIPKN7doctest12TestCaseDataENS_9allocatorIS4_EEE22__construct_one_at_endB8ne180100IJS4_EEEvDpOT_, symObjAddr: 0x26250, symBinAddr: 0x100027910, symSize: 0x90 }
  - { offset: 0x5EB2E, size: 0x8, addend: 0x0, symName: __ZNSt3__16vectorIPKN7doctest12TestCaseDataENS_9allocatorIS4_EEE21__push_back_slow_pathIS4_EEPS4_OT_, symObjAddr: 0x262E0, symBinAddr: 0x1000279A0, symSize: 0xE0 }
  - { offset: 0x5EB8C, size: 0x8, addend: 0x0, symName: __ZNSt3__117__compressed_pairIPPKN7doctest12TestCaseDataENS_9allocatorIS4_EEE5firstB8ne180100Ev, symObjAddr: 0x263C0, symBinAddr: 0x100027A80, symSize: 0x20 }
  - { offset: 0x5EBB2, size: 0x8, addend: 0x0, symName: __ZNSt3__122__compressed_pair_elemIPPKN7doctest12TestCaseDataELi0ELb0EE5__getB8ne180100Ev, symObjAddr: 0x263E0, symBinAddr: 0x100027AA0, symSize: 0x10 }
  - { offset: 0x5EBF4, size: 0x8, addend: 0x0, symName: __ZNSt3__16vectorIPKN7doctest12TestCaseDataENS_9allocatorIS4_EEE21_ConstructTransactionC1B8ne180100ERS7_m, symObjAddr: 0x263F0, symBinAddr: 0x100027AB0, symSize: 0x30 }
  - { offset: 0x5EC3C, size: 0x8, addend: 0x0, symName: __ZNSt3__116allocator_traitsINS_9allocatorIPKN7doctest12TestCaseDataEEEE9constructB8ne180100IS5_JS5_EvvEEvRS6_PT_DpOT0_, symObjAddr: 0x26420, symBinAddr: 0x100027AE0, symSize: 0x30 }
  - { offset: 0x5EC90, size: 0x8, addend: 0x0, symName: __ZNSt3__16vectorIPKN7doctest12TestCaseDataENS_9allocatorIS4_EEE7__allocB8ne180100Ev, symObjAddr: 0x26450, symBinAddr: 0x100027B10, symSize: 0x20 }
  - { offset: 0x5ECB6, size: 0x8, addend: 0x0, symName: __ZNSt3__16vectorIPKN7doctest12TestCaseDataENS_9allocatorIS4_EEE21_ConstructTransactionD1B8ne180100Ev, symObjAddr: 0x26480, symBinAddr: 0x100027B40, symSize: 0x20 }
  - { offset: 0x5ECE0, size: 0x8, addend: 0x0, symName: __ZNSt3__16vectorIPKN7doctest12TestCaseDataENS_9allocatorIS4_EEE21_ConstructTransactionC2B8ne180100ERS7_m, symObjAddr: 0x264A0, symBinAddr: 0x100027B60, symSize: 0x40 }
  - { offset: 0x5ED28, size: 0x8, addend: 0x0, symName: __ZNSt3__117__compressed_pairIPPKN7doctest12TestCaseDataENS_9allocatorIS4_EEE6secondB8ne180100Ev, symObjAddr: 0x26530, symBinAddr: 0x100027BF0, symSize: 0x20 }
  - { offset: 0x5ED4E, size: 0x8, addend: 0x0, symName: __ZNSt3__122__compressed_pair_elemINS_9allocatorIPKN7doctest12TestCaseDataEEELi1ELb1EE5__getB8ne180100Ev, symObjAddr: 0x26550, symBinAddr: 0x100027C10, symSize: 0x10 }
  - { offset: 0x5ED74, size: 0x8, addend: 0x0, symName: __ZNSt3__16vectorIPKN7doctest12TestCaseDataENS_9allocatorIS4_EEE21_ConstructTransactionD2B8ne180100Ev, symObjAddr: 0x26560, symBinAddr: 0x100027C20, symSize: 0x20 }
  - { offset: 0x5ED9E, size: 0x8, addend: 0x0, symName: __ZNKSt3__16vectorIPKN7doctest12TestCaseDataENS_9allocatorIS4_EEE11__recommendB8ne180100Em, symObjAddr: 0x26580, symBinAddr: 0x100027C40, symSize: 0x90 }
  - { offset: 0x5EDF3, size: 0x8, addend: 0x0, symName: __ZNSt3__114__split_bufferIPKN7doctest12TestCaseDataERNS_9allocatorIS4_EEEC1EmmS7_, symObjAddr: 0x26610, symBinAddr: 0x100027CD0, symSize: 0x40 }
  - { offset: 0x5EE4C, size: 0x8, addend: 0x0, symName: __ZNSt3__114__split_bufferIPKN7doctest12TestCaseDataERNS_9allocatorIS4_EEED1Ev, symObjAddr: 0x26770, symBinAddr: 0x100027E30, symSize: 0x20 }
  - { offset: 0x5EE78, size: 0x8, addend: 0x0, symName: __ZNKSt3__16vectorIPKN7doctest12TestCaseDataENS_9allocatorIS4_EEE8max_sizeEv, symObjAddr: 0x26790, symBinAddr: 0x100027E50, symSize: 0x60 }
  - { offset: 0x5EEA0, size: 0x8, addend: 0x0, symName: __ZNKSt3__16vectorIPKN7doctest12TestCaseDataENS_9allocatorIS4_EEE20__throw_length_errorB8ne180100Ev, symObjAddr: 0x267F0, symBinAddr: 0x100027EB0, symSize: 0x20 }
  - { offset: 0x5EEC6, size: 0x8, addend: 0x0, symName: __ZNKSt3__16vectorIPKN7doctest12TestCaseDataENS_9allocatorIS4_EEE8capacityB8ne180100Ev, symObjAddr: 0x26810, symBinAddr: 0x100027ED0, symSize: 0x30 }
  - { offset: 0x5EEF7, size: 0x8, addend: 0x0, symName: __ZNSt3__116allocator_traitsINS_9allocatorIPKN7doctest12TestCaseDataEEEE8max_sizeB8ne180100IS6_vvEEmRKS6_, symObjAddr: 0x26840, symBinAddr: 0x100027F00, symSize: 0x20 }
  - { offset: 0x5EF22, size: 0x8, addend: 0x0, symName: __ZNKSt3__16vectorIPKN7doctest12TestCaseDataENS_9allocatorIS4_EEE7__allocB8ne180100Ev, symObjAddr: 0x26860, symBinAddr: 0x100027F20, symSize: 0x20 }
  - { offset: 0x5EF48, size: 0x8, addend: 0x0, symName: __ZNKSt3__117__compressed_pairIPPKN7doctest12TestCaseDataENS_9allocatorIS4_EEE6secondB8ne180100Ev, symObjAddr: 0x26880, symBinAddr: 0x100027F40, symSize: 0x20 }
  - { offset: 0x5EF6E, size: 0x8, addend: 0x0, symName: __ZNKSt3__122__compressed_pair_elemINS_9allocatorIPKN7doctest12TestCaseDataEEELi1ELb1EE5__getB8ne180100Ev, symObjAddr: 0x268A0, symBinAddr: 0x100027F60, symSize: 0x10 }
  - { offset: 0x5EF94, size: 0x8, addend: 0x0, symName: __ZNKSt3__16vectorIPKN7doctest12TestCaseDataENS_9allocatorIS4_EEE9__end_capB8ne180100Ev, symObjAddr: 0x268B0, symBinAddr: 0x100027F70, symSize: 0x20 }
  - { offset: 0x5EFBA, size: 0x8, addend: 0x0, symName: __ZNKSt3__117__compressed_pairIPPKN7doctest12TestCaseDataENS_9allocatorIS4_EEE5firstB8ne180100Ev, symObjAddr: 0x268D0, symBinAddr: 0x100027F90, symSize: 0x20 }
  - { offset: 0x5EFE0, size: 0x8, addend: 0x0, symName: __ZNKSt3__122__compressed_pair_elemIPPKN7doctest12TestCaseDataELi0ELb0EE5__getB8ne180100Ev, symObjAddr: 0x268F0, symBinAddr: 0x100027FB0, symSize: 0x10 }
  - { offset: 0x5F006, size: 0x8, addend: 0x0, symName: __ZNSt3__114__split_bufferIPKN7doctest12TestCaseDataERNS_9allocatorIS4_EEEC2EmmS7_, symObjAddr: 0x26900, symBinAddr: 0x100027FC0, symSize: 0xD0 }
  - { offset: 0x5F07C, size: 0x8, addend: 0x0, symName: __ZNSt3__117__compressed_pairIPPKN7doctest12TestCaseDataERNS_9allocatorIS4_EEEC1B8ne180100IDnS8_EEOT_OT0_, symObjAddr: 0x269D0, symBinAddr: 0x100028090, symSize: 0x30 }
  - { offset: 0x5F0D6, size: 0x8, addend: 0x0, symName: __ZNSt3__114__split_bufferIPKN7doctest12TestCaseDataERNS_9allocatorIS4_EEE7__allocB8ne180100Ev, symObjAddr: 0x26A40, symBinAddr: 0x100028100, symSize: 0x20 }
  - { offset: 0x5F0FC, size: 0x8, addend: 0x0, symName: __ZNSt3__114__split_bufferIPKN7doctest12TestCaseDataERNS_9allocatorIS4_EEE9__end_capB8ne180100Ev, symObjAddr: 0x26A60, symBinAddr: 0x100028120, symSize: 0x20 }
  - { offset: 0x5F122, size: 0x8, addend: 0x0, symName: __ZNSt3__117__compressed_pairIPPKN7doctest12TestCaseDataERNS_9allocatorIS4_EEEC2B8ne180100IDnS8_EEOT_OT0_, symObjAddr: 0x26A80, symBinAddr: 0x100028140, symSize: 0x40 }
  - { offset: 0x5F17C, size: 0x8, addend: 0x0, symName: __ZNSt3__122__compressed_pair_elemIRNS_9allocatorIPKN7doctest12TestCaseDataEEELi1ELb0EEC2B8ne180100IS7_vEEOT_, symObjAddr: 0x26AC0, symBinAddr: 0x100028180, symSize: 0x20 }
  - { offset: 0x5F1BF, size: 0x8, addend: 0x0, symName: __ZNSt3__19allocatorIPKN7doctest12TestCaseDataEE8allocateB8ne180100Em, symObjAddr: 0x26AE0, symBinAddr: 0x1000281A0, symSize: 0x50 }
  - { offset: 0x5F1F4, size: 0x8, addend: 0x0, symName: __ZNSt3__117__compressed_pairIPPKN7doctest12TestCaseDataERNS_9allocatorIS4_EEE6secondB8ne180100Ev, symObjAddr: 0x26B30, symBinAddr: 0x1000281F0, symSize: 0x20 }
  - { offset: 0x5F21A, size: 0x8, addend: 0x0, symName: __ZNSt3__122__compressed_pair_elemIRNS_9allocatorIPKN7doctest12TestCaseDataEEELi1ELb0EE5__getB8ne180100Ev, symObjAddr: 0x26B50, symBinAddr: 0x100028210, symSize: 0x20 }
  - { offset: 0x5F240, size: 0x8, addend: 0x0, symName: __ZNSt3__117__compressed_pairIPPKN7doctest12TestCaseDataERNS_9allocatorIS4_EEE5firstB8ne180100Ev, symObjAddr: 0x26B70, symBinAddr: 0x100028230, symSize: 0x20 }
  - { offset: 0x5F266, size: 0x8, addend: 0x0, symName: __ZNKSt3__16vectorIPKN7doctest12TestCaseDataENS_9allocatorIS4_EEE17__annotate_deleteB8ne180100Ev, symObjAddr: 0x26B90, symBinAddr: 0x100028250, symSize: 0x10 }
  - { offset: 0x5F28C, size: 0x8, addend: 0x0, symName: __ZNSt3__116reverse_iteratorIPPKN7doctest12TestCaseDataEEC1B8ne180100ES5_, symObjAddr: 0x26C10, symBinAddr: 0x1000282D0, symSize: 0x30 }
  - { offset: 0x5F2C5, size: 0x8, addend: 0x0, symName: __ZNKSt3__116reverse_iteratorIPPKN7doctest12TestCaseDataEE4baseB8ne180100Ev, symObjAddr: 0x26C40, symBinAddr: 0x100028300, symSize: 0x20 }
  - { offset: 0x5F2EB, size: 0x8, addend: 0x0, symName: __ZNKSt3__16vectorIPKN7doctest12TestCaseDataENS_9allocatorIS4_EEE14__annotate_newB8ne180100Em, symObjAddr: 0x26CA0, symBinAddr: 0x100028360, symSize: 0x10 }
  - { offset: 0x5F33D, size: 0x8, addend: 0x0, symName: __ZNKSt3__111__move_loopINS_17_ClassicAlgPolicyEEclB8ne180100INS_16reverse_iteratorIPPKN7doctest12TestCaseDataEEESA_SA_EENS_4pairIT_T1_EESC_T0_SD_, symObjAddr: 0x270C0, symBinAddr: 0x100028780, symSize: 0xA0 }
  - { offset: 0x5F3AB, size: 0x8, addend: 0x0, symName: __ZNSt3__119__unwrap_range_implINS_16reverse_iteratorIPPKN7doctest12TestCaseDataEEES7_E8__unwrapB8ne180100ES7_S7_, symObjAddr: 0x272A0, symBinAddr: 0x100028960, symSize: 0x90 }
  - { offset: 0x5F3E4, size: 0x8, addend: 0x0, symName: __ZNSt3__14pairINS_16reverse_iteratorIPPKN7doctest12TestCaseDataEEES7_EC1B8ne180100IS7_S7_Li0EEEOT_OT0_, symObjAddr: 0x27330, symBinAddr: 0x1000289F0, symSize: 0x30 }
  - { offset: 0x5F445, size: 0x8, addend: 0x0, symName: __ZNSt3__14pairINS_16reverse_iteratorIPPKN7doctest12TestCaseDataEEES7_EC2B8ne180100IS7_S7_Li0EEEOT_OT0_, symObjAddr: 0x27360, symBinAddr: 0x100028A20, symSize: 0x40 }
  - { offset: 0x5F4AC, size: 0x8, addend: 0x0, symName: __ZNSt3__18_IterOpsINS_17_ClassicAlgPolicyEE11__iter_moveB8ne180100IRNS_16reverse_iteratorIPPKN7doctest12TestCaseDataEEELi0EEEDTclsr3stdE4movedeclsr3stdE7declvalIRT_EEEEOSC_, symObjAddr: 0x273E0, symBinAddr: 0x100028AA0, symSize: 0x20 }
  - { offset: 0x5F4E0, size: 0x8, addend: 0x0, symName: __ZNKSt3__116reverse_iteratorIPPKN7doctest12TestCaseDataEEdeB8ne180100Ev, symObjAddr: 0x27400, symBinAddr: 0x100028AC0, symSize: 0x30 }
  - { offset: 0x5F515, size: 0x8, addend: 0x0, symName: __ZNSt3__116reverse_iteratorIPPKN7doctest12TestCaseDataEEppB8ne180100Ev, symObjAddr: 0x27430, symBinAddr: 0x100028AF0, symSize: 0x20 }
  - { offset: 0x5F53B, size: 0x8, addend: 0x0, symName: __ZNSt3__18_IterOpsINS_17_ClassicAlgPolicyEE25__validate_iter_referenceB8ne180100IRNS_16reverse_iteratorIPPKN7doctest12TestCaseDataEEEEEvv, symObjAddr: 0x27450, symBinAddr: 0x100028B10, symSize: 0x10 }
  - { offset: 0x5F559, size: 0x8, addend: 0x0, symName: __ZNSt3__118__unwrap_iter_implINS_16reverse_iteratorIPPKN7doctest12TestCaseDataEEELb0EE8__unwrapB8ne180100ES7_, symObjAddr: 0x27460, symBinAddr: 0x100028B20, symSize: 0x20 }
  - { offset: 0x5F57D, size: 0x8, addend: 0x0, symName: __ZNSt3__119__unwrap_range_implINS_16reverse_iteratorIPPKN7doctest12TestCaseDataEEES7_E8__rewrapB8ne180100ES7_S7_, symObjAddr: 0x27480, symBinAddr: 0x100028B40, symSize: 0x60 }
  - { offset: 0x5F5B0, size: 0x8, addend: 0x0, symName: __ZNSt3__118__unwrap_iter_implINS_16reverse_iteratorIPPKN7doctest12TestCaseDataEEELb0EE8__rewrapB8ne180100ES7_S7_, symObjAddr: 0x274E0, symBinAddr: 0x100028BA0, symSize: 0x30 }
  - { offset: 0x5F5DF, size: 0x8, addend: 0x0, symName: __ZNSt3__116reverse_iteratorIPPKN7doctest12TestCaseDataEEC2B8ne180100ES5_, symObjAddr: 0x27510, symBinAddr: 0x100028BD0, symSize: 0x30 }
  - { offset: 0x5F618, size: 0x8, addend: 0x0, symName: __ZNSt3__114__split_bufferIPKN7doctest12TestCaseDataERNS_9allocatorIS4_EEED2Ev, symObjAddr: 0x27540, symBinAddr: 0x100028C00, symSize: 0x70 }
  - { offset: 0x5F644, size: 0x8, addend: 0x0, symName: __ZNSt3__114__split_bufferIPKN7doctest12TestCaseDataERNS_9allocatorIS4_EEE5clearB8ne180100Ev, symObjAddr: 0x275B0, symBinAddr: 0x100028C70, symSize: 0x20 }
  - { offset: 0x5F66A, size: 0x8, addend: 0x0, symName: __ZNSt3__116allocator_traitsINS_9allocatorIPKN7doctest12TestCaseDataEEEE10deallocateB8ne180100ERS6_PS5_m, symObjAddr: 0x275D0, symBinAddr: 0x100028C90, symSize: 0x30 }
  - { offset: 0x5F6AC, size: 0x8, addend: 0x0, symName: __ZNKSt3__114__split_bufferIPKN7doctest12TestCaseDataERNS_9allocatorIS4_EEE8capacityB8ne180100Ev, symObjAddr: 0x27600, symBinAddr: 0x100028CC0, symSize: 0x30 }
  - { offset: 0x5F6D2, size: 0x8, addend: 0x0, symName: __ZNSt3__114__split_bufferIPKN7doctest12TestCaseDataERNS_9allocatorIS4_EEE17__destruct_at_endB8ne180100EPS4_, symObjAddr: 0x27630, symBinAddr: 0x100028CF0, symSize: 0x30 }
  - { offset: 0x5F707, size: 0x8, addend: 0x0, symName: __ZNSt3__114__split_bufferIPKN7doctest12TestCaseDataERNS_9allocatorIS4_EEE17__destruct_at_endB8ne180100EPS4_NS_17integral_constantIbLb0EEE, symObjAddr: 0x27660, symBinAddr: 0x100028D20, symSize: 0x80 }
  - { offset: 0x5F749, size: 0x8, addend: 0x0, symName: __ZNSt3__116allocator_traitsINS_9allocatorIPKN7doctest12TestCaseDataEEEE7destroyB8ne180100IS5_vvEEvRS6_PT_, symObjAddr: 0x276E0, symBinAddr: 0x100028DA0, symSize: 0x20 }
  - { offset: 0x5F783, size: 0x8, addend: 0x0, symName: __ZNSt3__19allocatorIPKN7doctest12TestCaseDataEE10deallocateB8ne180100EPS4_m, symObjAddr: 0x27710, symBinAddr: 0x100028DD0, symSize: 0x40 }
  - { offset: 0x5F7C7, size: 0x8, addend: 0x0, symName: __ZNKSt3__114__split_bufferIPKN7doctest12TestCaseDataERNS_9allocatorIS4_EEE9__end_capB8ne180100Ev, symObjAddr: 0x27750, symBinAddr: 0x100028E10, symSize: 0x20 }
  - { offset: 0x5F7ED, size: 0x8, addend: 0x0, symName: __ZNKSt3__117__compressed_pairIPPKN7doctest12TestCaseDataERNS_9allocatorIS4_EEE5firstB8ne180100Ev, symObjAddr: 0x27770, symBinAddr: 0x100028E30, symSize: 0x20 }
  - { offset: 0x5F813, size: 0x8, addend: 0x0, symName: __ZN7doctest12_GLOBAL__N_121FatalConditionHandlerC2Ev, symObjAddr: 0x27790, symBinAddr: 0x100028E50, symSize: 0xC0 }
  - { offset: 0x5F886, size: 0x8, addend: 0x0, symName: __ZN7doctest12_GLOBAL__N_121FatalConditionHandler12handleSignalEi, symObjAddr: 0x27850, symBinAddr: 0x100028F10, symSize: 0xD0 }
  - { offset: 0x5F8F3, size: 0x8, addend: 0x0, symName: __ZNSt3__16vectorIN7doctest16SubcaseSignatureENS_9allocatorIS2_EEE8pop_backEv, symObjAddr: 0x27CA0, symBinAddr: 0x100029360, symSize: 0x30 }
  - { offset: 0x5F91B, size: 0x8, addend: 0x0, symName: __ZNSt3__16vectorIN7doctest16SubcaseSignatureENS_9allocatorIS2_EEE17__destruct_at_endB8ne180100EPS2_, symObjAddr: 0x27CD0, symBinAddr: 0x100029390, symSize: 0x50 }
  - { offset: 0x5F95F, size: 0x8, addend: 0x0, symName: __ZN7doctest12_GLOBAL__N_121FatalConditionHandlerD2Ev, symObjAddr: 0x27D20, symBinAddr: 0x1000293E0, symSize: 0x30 }
  - { offset: 0x5F989, size: 0x8, addend: 0x0, symName: __ZNK7doctest6detail5Timer17getElapsedSecondsEv, symObjAddr: 0x27D50, symBinAddr: 0x100029410, symSize: 0x60 }
  - { offset: 0x5F9AF, size: 0x8, addend: 0x0, symName: __ZNSt3__16vectorIPKN7doctest12TestCaseDataENS_9allocatorIS4_EEED2B8ne180100Ev, symObjAddr: 0x27E10, symBinAddr: 0x1000294D0, symSize: 0x40 }
  - { offset: 0x5F9D9, size: 0x8, addend: 0x0, symName: __ZNSt3__16vectorIPKN7doctest12TestCaseDataENS_9allocatorIS4_EEE16__destroy_vectorC1B8ne180100ERS7_, symObjAddr: 0x27E50, symBinAddr: 0x100029510, symSize: 0x30 }
  - { offset: 0x5FA12, size: 0x8, addend: 0x0, symName: __ZNSt3__16vectorIPKN7doctest12TestCaseDataENS_9allocatorIS4_EEE16__destroy_vectorclB8ne180100Ev, symObjAddr: 0x27E80, symBinAddr: 0x100029540, symSize: 0x80 }
  - { offset: 0x5FA38, size: 0x8, addend: 0x0, symName: __ZNSt3__16vectorIPKN7doctest12TestCaseDataENS_9allocatorIS4_EEE16__destroy_vectorC2B8ne180100ERS7_, symObjAddr: 0x27F00, symBinAddr: 0x1000295C0, symSize: 0x20 }
  - { offset: 0x5FA71, size: 0x8, addend: 0x0, symName: __ZNSt3__16vectorIPKN7doctest12TestCaseDataENS_9allocatorIS4_EEE7__clearB8ne180100Ev, symObjAddr: 0x27F20, symBinAddr: 0x1000295E0, symSize: 0x20 }
  - { offset: 0x5FA97, size: 0x8, addend: 0x0, symName: __ZNSt3__16vectorIPKN7doctest12TestCaseDataENS_9allocatorIS4_EEE22__base_destruct_at_endB8ne180100EPS4_, symObjAddr: 0x27F40, symBinAddr: 0x100029600, symSize: 0x80 }
  - { offset: 0x5FADB, size: 0x8, addend: 0x0, symName: __ZNSt3__16vectorIPKN7doctest6detail8TestCaseENS_9allocatorIS5_EEED2B8ne180100Ev, symObjAddr: 0x27FC0, symBinAddr: 0x100029680, symSize: 0x40 }
  - { offset: 0x5FB05, size: 0x8, addend: 0x0, symName: __ZNSt3__16vectorIPKN7doctest6detail8TestCaseENS_9allocatorIS5_EEE16__destroy_vectorC1B8ne180100ERS8_, symObjAddr: 0x28000, symBinAddr: 0x1000296C0, symSize: 0x30 }
  - { offset: 0x5FB3E, size: 0x8, addend: 0x0, symName: __ZNSt3__16vectorIPKN7doctest6detail8TestCaseENS_9allocatorIS5_EEE16__destroy_vectorclB8ne180100Ev, symObjAddr: 0x28030, symBinAddr: 0x1000296F0, symSize: 0x80 }
  - { offset: 0x5FB64, size: 0x8, addend: 0x0, symName: __ZNSt3__16vectorIPKN7doctest6detail8TestCaseENS_9allocatorIS5_EEE16__destroy_vectorC2B8ne180100ERS8_, symObjAddr: 0x280B0, symBinAddr: 0x100029770, symSize: 0x20 }
  - { offset: 0x5FB9D, size: 0x8, addend: 0x0, symName: __ZNSt3__16vectorIPKN7doctest6detail8TestCaseENS_9allocatorIS5_EEE7__clearB8ne180100Ev, symObjAddr: 0x280D0, symBinAddr: 0x100029790, symSize: 0x20 }
  - { offset: 0x5FBC3, size: 0x8, addend: 0x0, symName: __ZNSt3__16vectorIPKN7doctest6detail8TestCaseENS_9allocatorIS5_EEE22__base_destruct_at_endB8ne180100EPS5_, symObjAddr: 0x280F0, symBinAddr: 0x1000297B0, symSize: 0x80 }
  - { offset: 0x5FC07, size: 0x8, addend: 0x0, symName: __ZNSt3__113basic_fstreamIcNS_11char_traitsIcEEED2Ev, symObjAddr: 0x28170, symBinAddr: 0x100029830, symSize: 0x60 }
  - { offset: 0x5FC40, size: 0x8, addend: 0x0, symName: __ZThn16_NSt3__113basic_fstreamIcNS_11char_traitsIcEEED1Ev, symObjAddr: 0x281D0, symBinAddr: 0x100029890, symSize: 0x20 }
  - { offset: 0x5FC56, size: 0x8, addend: 0x0, symName: __ZTv0_n24_NSt3__113basic_fstreamIcNS_11char_traitsIcEEED1Ev, symObjAddr: 0x281F0, symBinAddr: 0x1000298B0, symSize: 0x20 }
  - { offset: 0x5FC6C, size: 0x8, addend: 0x0, symName: __ZNSt3__113basic_fstreamIcNS_11char_traitsIcEEED0Ev, symObjAddr: 0x28210, symBinAddr: 0x1000298D0, symSize: 0x30 }
  - { offset: 0x5FC98, size: 0x8, addend: 0x0, symName: __ZThn16_NSt3__113basic_fstreamIcNS_11char_traitsIcEEED0Ev, symObjAddr: 0x28240, symBinAddr: 0x100029900, symSize: 0x20 }
  - { offset: 0x5FCAE, size: 0x8, addend: 0x0, symName: __ZTv0_n24_NSt3__113basic_fstreamIcNS_11char_traitsIcEEED0Ev, symObjAddr: 0x28260, symBinAddr: 0x100029920, symSize: 0x20 }
  - { offset: 0x5FCC4, size: 0x8, addend: 0x0, symName: __ZNSt3__14pairIiN7doctest6StringEEC2B8ne180100IRiRPKcLi0EEEOT_OT0_, symObjAddr: 0x28280, symBinAddr: 0x100029940, symSize: 0x40 }
  - { offset: 0x5FD25, size: 0x8, addend: 0x0, symName: __ZNSt3__14pairIKNS0_IiN7doctest6StringEEEPFPNS1_9IReporterERKNS1_14ContextOptionsEEEC2B8ne180100IS3_RSB_Li0EEEOT_OT0_, symObjAddr: 0x282C0, symBinAddr: 0x100029980, symSize: 0x40 }
  - { offset: 0x5FD86, size: 0x8, addend: 0x0, symName: __ZNSt3__14pairIiN7doctest6StringEEC1B8ne180100EOS3_, symObjAddr: 0x28300, symBinAddr: 0x1000299C0, symSize: 0x30 }
  - { offset: 0x5FDBB, size: 0x8, addend: 0x0, symName: __ZNSt3__14pairIiN7doctest6StringEEC2B8ne180100EOS3_, symObjAddr: 0x28330, symBinAddr: 0x1000299F0, symSize: 0x40 }
  - { offset: 0x5FDF0, size: 0x8, addend: 0x0, symName: __ZNSt3__14pairIKNS0_IiN7doctest6StringEEEPFPNS1_9IReporterERKNS1_14ContextOptionsEEED2Ev, symObjAddr: 0x28370, symBinAddr: 0x100029A30, symSize: 0x20 }
  - { offset: 0x5FE1C, size: 0x8, addend: 0x0, symName: __ZNSt3__14pairIiN7doctest6StringEED2Ev, symObjAddr: 0x28390, symBinAddr: 0x100029A50, symSize: 0x20 }
  - { offset: 0x5FE65, size: 0x8, addend: 0x0, symName: __ZNKSt3__113basic_ostreamIcNS_11char_traitsIcEEE6sentrycvbB8ne180100Ev, symObjAddr: 0x286E0, symBinAddr: 0x100029DA0, symSize: 0x20 }
  - { offset: 0x5FE8B, size: 0x8, addend: 0x0, symName: __ZNSt3__119ostreambuf_iteratorIcNS_11char_traitsIcEEEC1B8ne180100ERNS_13basic_ostreamIcS2_EE, symObjAddr: 0x28920, symBinAddr: 0x100029FE0, symSize: 0x30 }
  - { offset: 0x5FEC4, size: 0x8, addend: 0x0, symName: __ZNKSt3__18ios_base5flagsB8ne180100Ev, symObjAddr: 0x28950, symBinAddr: 0x10002A010, symSize: 0x20 }
  - { offset: 0x5FEEC, size: 0x8, addend: 0x0, symName: __ZNKSt3__19basic_iosIcNS_11char_traitsIcEEE4fillB8ne180100Ev, symObjAddr: 0x28970, symBinAddr: 0x10002A030, symSize: 0x70 }
  - { offset: 0x5FF14, size: 0x8, addend: 0x0, symName: __ZNKSt3__119ostreambuf_iteratorIcNS_11char_traitsIcEEE6failedB8ne180100Ev, symObjAddr: 0x289E0, symBinAddr: 0x10002A0A0, symSize: 0x20 }
  - { offset: 0x5FF3A, size: 0x8, addend: 0x0, symName: __ZNKSt3__18ios_base5widthB8ne180100Ev, symObjAddr: 0x28A00, symBinAddr: 0x10002A0C0, symSize: 0x20 }
  - { offset: 0x5FF62, size: 0x8, addend: 0x0, symName: __ZNSt3__115basic_streambufIcNS_11char_traitsIcEEE5sputnB8ne180100EPKcl, symObjAddr: 0x28A20, symBinAddr: 0x10002A0E0, symSize: 0x30 }
  - { offset: 0x5FFA6, size: 0x8, addend: 0x0, symName: __ZNSt3__112basic_stringIcNS_11char_traitsIcEENS_9allocatorIcEEEC1B8ne180100Emc, symObjAddr: 0x28A50, symBinAddr: 0x10002A110, symSize: 0x30 }
  - { offset: 0x5FFEE, size: 0x8, addend: 0x0, symName: __ZNSt3__18ios_base5widthB8ne180100El, symObjAddr: 0x28A80, symBinAddr: 0x10002A140, symSize: 0x30 }
  - { offset: 0x60034, size: 0x8, addend: 0x0, symName: __ZNSt3__112basic_stringIcNS_11char_traitsIcEENS_9allocatorIcEEEC2B8ne180100Emc, symObjAddr: 0x28AB0, symBinAddr: 0x10002A170, symSize: 0x50 }
  - { offset: 0x6007C, size: 0x8, addend: 0x0, symName: __ZNSt3__119ostreambuf_iteratorIcNS_11char_traitsIcEEEC2B8ne180100ERNS_13basic_ostreamIcS2_EE, symObjAddr: 0x28B00, symBinAddr: 0x10002A1C0, symSize: 0x50 }
  - { offset: 0x600B5, size: 0x8, addend: 0x0, symName: __ZNKSt3__19basic_iosIcNS_11char_traitsIcEEE5widenB8ne180100Ec, symObjAddr: 0x28B50, symBinAddr: 0x10002A210, symSize: 0x80 }
  - { offset: 0x60125, size: 0x8, addend: 0x0, symName: __ZNKSt3__15ctypeIcE5widenB8ne180100Ec, symObjAddr: 0x28C00, symBinAddr: 0x10002A2C0, symSize: 0x30 }
  - { offset: 0x60165, size: 0x8, addend: 0x0, symName: __ZNSt3__116allocator_traitsINS_9allocatorIcEEE37select_on_container_copy_constructionB8ne180100IS2_vvEES2_RKS2_, symObjAddr: 0x28C30, symBinAddr: 0x10002A2F0, symSize: 0x10 }
  - { offset: 0x60194, size: 0x8, addend: 0x0, symName: __ZNKSt3__112basic_stringIcNS_11char_traitsIcEENS_9allocatorIcEEE13get_allocatorB8ne180100Ev, symObjAddr: 0x28C40, symBinAddr: 0x10002A300, symSize: 0x20 }
  - { offset: 0x601BA, size: 0x8, addend: 0x0, symName: __ZNSt3__112basic_stringIcNS_11char_traitsIcEENS_9allocatorIcEEEC1B8ne180100ENS_24__uninitialized_size_tagEmRKS4_, symObjAddr: 0x28C60, symBinAddr: 0x10002A320, symSize: 0x30 }
  - { offset: 0x6020D, size: 0x8, addend: 0x0, symName: __ZNSt3__111char_traitsIcE4copyB8ne180100EPcPKcm, symObjAddr: 0x28C90, symBinAddr: 0x10002A350, symSize: 0x40 }
  - { offset: 0x6024F, size: 0x8, addend: 0x0, symName: __ZNSt3__111char_traitsIcE6assignB8ne180100EPcmc, symObjAddr: 0x28CD0, symBinAddr: 0x10002A390, symSize: 0x40 }
  - { offset: 0x60291, size: 0x8, addend: 0x0, symName: __ZNKSt3__112basic_stringIcNS_11char_traitsIcEENS_9allocatorIcEEE7__allocB8ne180100Ev, symObjAddr: 0x28D10, symBinAddr: 0x10002A3D0, symSize: 0x20 }
  - { offset: 0x602B7, size: 0x8, addend: 0x0, symName: __ZNKSt3__117__compressed_pairINS_12basic_stringIcNS_11char_traitsIcEENS_9allocatorIcEEE5__repES5_E6secondB8ne180100Ev, symObjAddr: 0x28D30, symBinAddr: 0x10002A3F0, symSize: 0x20 }
  - { offset: 0x602DD, size: 0x8, addend: 0x0, symName: __ZNKSt3__122__compressed_pair_elemINS_9allocatorIcEELi1ELb1EE5__getB8ne180100Ev, symObjAddr: 0x28D50, symBinAddr: 0x10002A410, symSize: 0x10 }
  - { offset: 0x60303, size: 0x8, addend: 0x0, symName: __ZNSt3__112basic_stringIcNS_11char_traitsIcEENS_9allocatorIcEEEC2B8ne180100ENS_24__uninitialized_size_tagEmRKS4_, symObjAddr: 0x28D60, symBinAddr: 0x10002A420, symSize: 0x120 }
  - { offset: 0x60384, size: 0x8, addend: 0x0, symName: __ZNSt3__117__compressed_pairINS_12basic_stringIcNS_11char_traitsIcEENS_9allocatorIcEEE5__repES5_EC1B8ne180100INS_18__default_init_tagERKS5_EEOT_OT0_, symObjAddr: 0x28E80, symBinAddr: 0x10002A540, symSize: 0x30 }
  - { offset: 0x603DE, size: 0x8, addend: 0x0, symName: __ZNKSt3__112basic_stringIcNS_11char_traitsIcEENS_9allocatorIcEEE8max_sizeB8ne180100Ev, symObjAddr: 0x28EB0, symBinAddr: 0x10002A570, symSize: 0xA0 }
  - { offset: 0x60430, size: 0x8, addend: 0x0, symName: __ZNKSt3__112basic_stringIcNS_11char_traitsIcEENS_9allocatorIcEEE20__throw_length_errorB8ne180100Ev, symObjAddr: 0x28F50, symBinAddr: 0x10002A610, symSize: 0x20 }
  - { offset: 0x60456, size: 0x8, addend: 0x0, symName: __ZNSt3__112basic_stringIcNS_11char_traitsIcEENS_9allocatorIcEEE13__fits_in_ssoB8ne180100Em, symObjAddr: 0x28F70, symBinAddr: 0x10002A630, symSize: 0x20 }
  - { offset: 0x6047A, size: 0x8, addend: 0x0, symName: __ZNSt3__112basic_stringIcNS_11char_traitsIcEENS_9allocatorIcEEE11__recommendB8ne180100Em, symObjAddr: 0x28F90, symBinAddr: 0x10002A650, symSize: 0x70 }
  - { offset: 0x604AD, size: 0x8, addend: 0x0, symName: __ZNSt3__116allocator_traitsINS_9allocatorIcEEE8allocateB8ne180100ERS2_m, symObjAddr: 0x29000, symBinAddr: 0x10002A6C0, symSize: 0x30 }
  - { offset: 0x604E0, size: 0x8, addend: 0x0, symName: __ZNSt3__112basic_stringIcNS_11char_traitsIcEENS_9allocatorIcEEE16__begin_lifetimeB8ne180100EPcm, symObjAddr: 0x29030, symBinAddr: 0x10002A6F0, symSize: 0x10 }
  - { offset: 0x60513, size: 0x8, addend: 0x0, symName: __ZNSt3__112basic_stringIcNS_11char_traitsIcEENS_9allocatorIcEEE14__set_long_capB8ne180100Em, symObjAddr: 0x29040, symBinAddr: 0x10002A700, symSize: 0x70 }
  - { offset: 0x60548, size: 0x8, addend: 0x0, symName: __ZNSt3__112basic_stringIcNS_11char_traitsIcEENS_9allocatorIcEEE18__set_long_pointerB8ne180100EPc, symObjAddr: 0x290B0, symBinAddr: 0x10002A770, symSize: 0x30 }
  - { offset: 0x6057D, size: 0x8, addend: 0x0, symName: __ZNSt3__112basic_stringIcNS_11char_traitsIcEENS_9allocatorIcEEE15__set_long_sizeB8ne180100Em, symObjAddr: 0x290E0, symBinAddr: 0x10002A7A0, symSize: 0x30 }
  - { offset: 0x605B2, size: 0x8, addend: 0x0, symName: __ZNSt3__117__compressed_pairINS_12basic_stringIcNS_11char_traitsIcEENS_9allocatorIcEEE5__repES5_EC2B8ne180100INS_18__default_init_tagERKS5_EEOT_OT0_, symObjAddr: 0x29110, symBinAddr: 0x10002A7D0, symSize: 0x40 }
  - { offset: 0x6060C, size: 0x8, addend: 0x0, symName: __ZNSt3__122__compressed_pair_elemINS_9allocatorIcEELi1ELb1EEC2B8ne180100IRKS2_vEEOT_, symObjAddr: 0x29150, symBinAddr: 0x10002A810, symSize: 0x10 }
  - { offset: 0x6064F, size: 0x8, addend: 0x0, symName: __ZNSt3__116allocator_traitsINS_9allocatorIcEEE8max_sizeB8ne180100IS2_vvEEmRKS2_, symObjAddr: 0x29160, symBinAddr: 0x10002A820, symSize: 0x20 }
  - { offset: 0x6067A, size: 0x8, addend: 0x0, symName: __ZNSt3__112basic_stringIcNS_11char_traitsIcEENS_9allocatorIcEEE10__align_itB8ne180100ILm8EEEmm, symObjAddr: 0x29180, symBinAddr: 0x10002A840, symSize: 0x20 }
  - { offset: 0x606A8, size: 0x8, addend: 0x0, symName: __ZNSt3__19allocatorIcE8allocateB8ne180100Em, symObjAddr: 0x291A0, symBinAddr: 0x10002A860, symSize: 0x50 }
  - { offset: 0x60705, size: 0x8, addend: 0x0, symName: __ZNKSt3__114__copy_trivialclB8ne180100IKccLi0EEENS_4pairIPT_PT0_EES5_S5_S7_, symObjAddr: 0x293E0, symBinAddr: 0x10002AAA0, symSize: 0x40 }
  - { offset: 0x6078E, size: 0x8, addend: 0x0, symName: __ZNSt3__119__unwrap_range_implIPKcS2_E8__unwrapB8ne180100ES2_S2_, symObjAddr: 0x294E0, symBinAddr: 0x10002ABA0, symSize: 0x50 }
  - { offset: 0x607C7, size: 0x8, addend: 0x0, symName: __ZNSt3__14pairIPKcS2_EC1B8ne180100IS2_S2_Li0EEEOT_OT0_, symObjAddr: 0x29550, symBinAddr: 0x10002AC10, symSize: 0x30 }
  - { offset: 0x60828, size: 0x8, addend: 0x0, symName: __ZNSt3__118__unwrap_iter_implIPKcLb1EE8__unwrapB8ne180100ES2_, symObjAddr: 0x29580, symBinAddr: 0x10002AC40, symSize: 0x20 }
  - { offset: 0x6084C, size: 0x8, addend: 0x0, symName: __ZNSt3__14pairIPKcS2_EC2B8ne180100IS2_S2_Li0EEEOT_OT0_, symObjAddr: 0x295A0, symBinAddr: 0x10002AC60, symSize: 0x30 }
  - { offset: 0x608B3, size: 0x8, addend: 0x0, symName: __ZNSt3__14pairIPKcPcEC1B8ne180100IRS2_S3_Li0EEEOT_OT0_, symObjAddr: 0x296C0, symBinAddr: 0x10002AD80, symSize: 0x30 }
  - { offset: 0x60914, size: 0x8, addend: 0x0, symName: __ZNSt3__14pairIPKcPcEC2B8ne180100IRS2_S3_Li0EEEOT_OT0_, symObjAddr: 0x296F0, symBinAddr: 0x10002ADB0, symSize: 0x30 }
  - { offset: 0x60975, size: 0x8, addend: 0x0, symName: __ZNSt3__118__unwrap_iter_implIPcLb1EE8__unwrapB8ne180100ES1_, symObjAddr: 0x29720, symBinAddr: 0x10002ADE0, symSize: 0x20 }
  - { offset: 0x60999, size: 0x8, addend: 0x0, symName: __ZNSt3__14pairIPKcPcEC1B8ne180100IS2_S3_Li0EEEOT_OT0_, symObjAddr: 0x29740, symBinAddr: 0x10002AE00, symSize: 0x30 }
  - { offset: 0x609FA, size: 0x8, addend: 0x0, symName: __ZNSt3__14pairIPKcPcEC2B8ne180100IS2_S3_Li0EEEOT_OT0_, symObjAddr: 0x29770, symBinAddr: 0x10002AE30, symSize: 0x30 }
  - { offset: 0x60A5B, size: 0x8, addend: 0x0, symName: __ZNSt3__119__unwrap_range_implIPKcS2_E8__rewrapB8ne180100ES2_S2_, symObjAddr: 0x297A0, symBinAddr: 0x10002AE60, symSize: 0x30 }
  - { offset: 0x60A8E, size: 0x8, addend: 0x0, symName: __ZNSt3__118__unwrap_iter_implIPKcLb1EE8__rewrapB8ne180100ES2_S2_, symObjAddr: 0x29810, symBinAddr: 0x10002AED0, symSize: 0x40 }
  - { offset: 0x60AC1, size: 0x8, addend: 0x0, symName: __ZNSt3__118__unwrap_iter_implIPcLb1EE8__rewrapB8ne180100ES1_S1_, symObjAddr: 0x29850, symBinAddr: 0x10002AF10, symSize: 0x40 }
  - { offset: 0x60AF4, size: 0x8, addend: 0x0, symName: __ZNSt3__118basic_stringstreamIcNS_11char_traitsIcEENS_9allocatorIcEEED2Ev, symObjAddr: 0x29930, symBinAddr: 0x10002AFF0, symSize: 0x60 }
  - { offset: 0x60B2E, size: 0x8, addend: 0x0, symName: __ZThn16_NSt3__118basic_stringstreamIcNS_11char_traitsIcEENS_9allocatorIcEEED1Ev, symObjAddr: 0x29990, symBinAddr: 0x10002B050, symSize: 0x20 }
  - { offset: 0x60B45, size: 0x8, addend: 0x0, symName: __ZTv0_n24_NSt3__118basic_stringstreamIcNS_11char_traitsIcEENS_9allocatorIcEEED1Ev, symObjAddr: 0x299B0, symBinAddr: 0x10002B070, symSize: 0x20 }
  - { offset: 0x60B5C, size: 0x8, addend: 0x0, symName: __ZN7doctest6detail8TestCaseD2Ev, symObjAddr: 0x299D0, symBinAddr: 0x10002B090, symSize: 0x40 }
  - { offset: 0x60B86, size: 0x8, addend: 0x0, symName: __ZNSt3__112basic_stringIcNS_11char_traitsIcEENS_9allocatorIcEEEC1B8ne180100Ev, symObjAddr: 0x29A10, symBinAddr: 0x10002B0D0, symSize: 0x20 }
  - { offset: 0x60BB0, size: 0x8, addend: 0x0, symName: __ZNSt3__112basic_stringIcNS_11char_traitsIcEENS_9allocatorIcEEEaSB8ne180100EPKc, symObjAddr: 0x29A30, symBinAddr: 0x10002B0F0, symSize: 0x30 }
  - { offset: 0x60BFC, size: 0x8, addend: 0x0, symName: __ZN7doctest6detail20ExpressionDecomposerlsINSt3__112basic_stringIcNS3_11char_traitsIcEENS3_9allocatorIcEEEEEENS0_14Expression_lhsIT_EEOSB_, symObjAddr: 0x29A60, symBinAddr: 0x10002B120, symSize: 0x40 }
  - { offset: 0x60C3A, size: 0x8, addend: 0x0, symName: __ZN2ds25InfixToPostfixTransformer9transformERKNSt3__112basic_stringIcNS1_11char_traitsIcEENS1_9allocatorIcEEEE, symObjAddr: 0x29AA0, symBinAddr: 0x10002B160, symSize: 0x70 }
  - { offset: 0x60C6D, size: 0x8, addend: 0x0, symName: __ZN7doctest6detail14Expression_lhsINSt3__112basic_stringIcNS2_11char_traitsIcEENS2_9allocatorIcEEEEEeqIRS8_EEDTcmcvveqclL_ZNS0_7declvalIS8_EEOT_vEEclsr7doctest6detailE7declvalISD_EEtlNS0_6ResultEEESE_, symObjAddr: 0x29B10, symBinAddr: 0x10002B1D0, symSize: 0x1E0 }
  - { offset: 0x60CBD, size: 0x8, addend: 0x0, symName: __ZN7doctest6detail6ResultD1Ev, symObjAddr: 0x29CF0, symBinAddr: 0x10002B3B0, symSize: 0x20 }
  - { offset: 0x60CEA, size: 0x8, addend: 0x0, symName: __ZN7doctest6detail14Expression_lhsINSt3__112basic_stringIcNS2_11char_traitsIcEENS2_9allocatorIcEEEEED1Ev, symObjAddr: 0x29D10, symBinAddr: 0x10002B3D0, symSize: 0x20 }
  - { offset: 0x60D17, size: 0x8, addend: 0x0, symName: __ZNSt3__15stackIN2ds5TokenENS_5dequeIS2_NS_9allocatorIS2_EEEEED1Ev, symObjAddr: 0x29D30, symBinAddr: 0x10002B3F0, symSize: 0x20 }
  - { offset: 0x60D43, size: 0x8, addend: 0x0, symName: __ZNSt3__112basic_stringIcNS_11char_traitsIcEENS_9allocatorIcEEEC2B8ne180100Ev, symObjAddr: 0x29D50, symBinAddr: 0x10002B410, symSize: 0x50 }
  - { offset: 0x60D6D, size: 0x8, addend: 0x0, symName: __ZNSt3__117__compressed_pairINS_12basic_stringIcNS_11char_traitsIcEENS_9allocatorIcEEE5__repES5_EC1B8ne180100INS_16__value_init_tagENS_18__default_init_tagEEEOT_OT0_, symObjAddr: 0x29DA0, symBinAddr: 0x10002B460, symSize: 0x30 }
  - { offset: 0x60DC7, size: 0x8, addend: 0x0, symName: __ZNSt3__117__compressed_pairINS_12basic_stringIcNS_11char_traitsIcEENS_9allocatorIcEEE5__repES5_EC2B8ne180100INS_16__value_init_tagENS_18__default_init_tagEEEOT_OT0_, symObjAddr: 0x29DD0, symBinAddr: 0x10002B490, symSize: 0x30 }
  - { offset: 0x60E21, size: 0x8, addend: 0x0, symName: __ZNSt3__122__compressed_pair_elemINS_12basic_stringIcNS_11char_traitsIcEENS_9allocatorIcEEE5__repELi0ELb0EEC2B8ne180100ENS_16__value_init_tagE, symObjAddr: 0x29E00, symBinAddr: 0x10002B4C0, symSize: 0x30 }
  - { offset: 0x60E56, size: 0x8, addend: 0x0, symName: __ZN7doctest6detail14Expression_lhsINSt3__112basic_stringIcNS2_11char_traitsIcEENS2_9allocatorIcEEEEEC1EOS8_NS_10assertType4EnumE, symObjAddr: 0x29E30, symBinAddr: 0x10002B4F0, symSize: 0x30 }
  - { offset: 0x60E9E, size: 0x8, addend: 0x0, symName: __ZN7doctest6detail14Expression_lhsINSt3__112basic_stringIcNS2_11char_traitsIcEENS2_9allocatorIcEEEEEC2EOS8_NS_10assertType4EnumE, symObjAddr: 0x29E60, symBinAddr: 0x10002B520, symSize: 0x40 }
  - { offset: 0x60EE6, size: 0x8, addend: 0x0, symName: __ZNSt3__112basic_stringIcNS_11char_traitsIcEENS_9allocatorIcEEEC1B8ne180100EOS5_, symObjAddr: 0x29EA0, symBinAddr: 0x10002B560, symSize: 0x30 }
  - { offset: 0x60F1F, size: 0x8, addend: 0x0, symName: __ZNSt3__112basic_stringIcNS_11char_traitsIcEENS_9allocatorIcEEEC2B8ne180100EOS5_, symObjAddr: 0x29ED0, symBinAddr: 0x10002B590, symSize: 0xD0 }
  - { offset: 0x60F89, size: 0x8, addend: 0x0, symName: __ZZNSt3__112basic_stringIcNS_11char_traitsIcEENS_9allocatorIcEEEC1B8ne180100EOS5_ENKUlRS5_E_clES7_, symObjAddr: 0x29FA0, symBinAddr: 0x10002B660, symSize: 0x40 }
  - { offset: 0x60FC2, size: 0x8, addend: 0x0, symName: __ZN2ds25InfixToPostfixTransformer17tokenStreamToListERKNSt3__112basic_stringIcNS1_11char_traitsIcEENS1_9allocatorIcEEEE, symObjAddr: 0x29FE0, symBinAddr: 0x10002B6A0, symSize: 0x140 }
  - { offset: 0x61022, size: 0x8, addend: 0x0, symName: __ZNSt3__16vectorIN2ds5TokenENS_9allocatorIS2_EEED1B8ne180100Ev, symObjAddr: 0x2A120, symBinAddr: 0x10002B7E0, symSize: 0x20 }
  - { offset: 0x6105D, size: 0x8, addend: 0x0, symName: __ZN2ds9TokenizerC1ERKNSt3__112basic_stringIcNS1_11char_traitsIcEENS1_9allocatorIcEEEE, symObjAddr: 0x2A140, symBinAddr: 0x10002B800, symSize: 0x30 }
  - { offset: 0x61096, size: 0x8, addend: 0x0, symName: __ZNSt3__16vectorIN2ds5TokenENS_9allocatorIS2_EEEC1B8ne180100Ev, symObjAddr: 0x2A170, symBinAddr: 0x10002B830, symSize: 0x20 }
  - { offset: 0x610C0, size: 0x8, addend: 0x0, symName: __ZN2ds9Tokenizer4nextEv, symObjAddr: 0x2A190, symBinAddr: 0x10002B850, symSize: 0x1C0 }
  - { offset: 0x610E6, size: 0x8, addend: 0x0, symName: __ZNK2ds5Token9is_one_ofENS0_4KindES1_, symObjAddr: 0x2A350, symBinAddr: 0x10002BA10, symSize: 0x50 }
  - { offset: 0x6112A, size: 0x8, addend: 0x0, symName: __ZNSt3__16vectorIN2ds5TokenENS_9allocatorIS2_EEE9push_backB8ne180100ERKS2_, symObjAddr: 0x2A3A0, symBinAddr: 0x10002BA60, symSize: 0x80 }
  - { offset: 0x61176, size: 0x8, addend: 0x0, symName: __ZN2ds5TokenaSEOS0_, symObjAddr: 0x2A420, symBinAddr: 0x10002BAE0, symSize: 0x40 }
  - { offset: 0x611A7, size: 0x8, addend: 0x0, symName: __ZN2ds5TokenD1Ev, symObjAddr: 0x2A460, symBinAddr: 0x10002BB20, symSize: 0x20 }
  - { offset: 0x611D3, size: 0x8, addend: 0x0, symName: __ZN2ds9TokenizerC2ERKNSt3__112basic_stringIcNS1_11char_traitsIcEENS1_9allocatorIcEEEE, symObjAddr: 0x2A480, symBinAddr: 0x10002BB40, symSize: 0x40 }
  - { offset: 0x6120C, size: 0x8, addend: 0x0, symName: __ZNKSt3__112basic_stringIcNS_11char_traitsIcEENS_9allocatorIcEEE5beginB8ne180100Ev, symObjAddr: 0x2A4C0, symBinAddr: 0x10002BB80, symSize: 0x50 }
  - { offset: 0x61232, size: 0x8, addend: 0x0, symName: __ZNKSt3__112basic_stringIcNS_11char_traitsIcEENS_9allocatorIcEEE21__make_const_iteratorB8ne180100EPKc, symObjAddr: 0x2A510, symBinAddr: 0x10002BBD0, symSize: 0x30 }
  - { offset: 0x61267, size: 0x8, addend: 0x0, symName: __ZNSt3__111__wrap_iterIPKcEC1B8ne180100ES2_, symObjAddr: 0x2A540, symBinAddr: 0x10002BC00, symSize: 0x30 }
  - { offset: 0x612A0, size: 0x8, addend: 0x0, symName: __ZNSt3__111__wrap_iterIPKcEC2B8ne180100ES2_, symObjAddr: 0x2A570, symBinAddr: 0x10002BC30, symSize: 0x20 }
  - { offset: 0x612D9, size: 0x8, addend: 0x0, symName: __ZNSt3__16vectorIN2ds5TokenENS_9allocatorIS2_EEEC2B8ne180100Ev, symObjAddr: 0x2A590, symBinAddr: 0x10002BC50, symSize: 0x50 }
  - { offset: 0x61303, size: 0x8, addend: 0x0, symName: __ZNSt3__117__compressed_pairIPN2ds5TokenENS_9allocatorIS2_EEEC1B8ne180100IDnNS_18__default_init_tagEEEOT_OT0_, symObjAddr: 0x2A5E0, symBinAddr: 0x10002BCA0, symSize: 0x30 }
  - { offset: 0x6135D, size: 0x8, addend: 0x0, symName: __ZNSt3__117__compressed_pairIPN2ds5TokenENS_9allocatorIS2_EEEC2B8ne180100IDnNS_18__default_init_tagEEEOT_OT0_, symObjAddr: 0x2A610, symBinAddr: 0x10002BCD0, symSize: 0x40 }
  - { offset: 0x613B7, size: 0x8, addend: 0x0, symName: __ZNSt3__122__compressed_pair_elemIPN2ds5TokenELi0ELb0EEC2B8ne180100IDnvEEOT_, symObjAddr: 0x2A650, symBinAddr: 0x10002BD10, symSize: 0x20 }
  - { offset: 0x613FA, size: 0x8, addend: 0x0, symName: __ZNSt3__122__compressed_pair_elemINS_9allocatorIN2ds5TokenEEELi1ELb1EEC2B8ne180100ENS_18__default_init_tagE, symObjAddr: 0x2A670, symBinAddr: 0x10002BD30, symSize: 0x20 }
  - { offset: 0x6142F, size: 0x8, addend: 0x0, symName: __ZNSt3__19allocatorIN2ds5TokenEEC2B8ne180100Ev, symObjAddr: 0x2A690, symBinAddr: 0x10002BD50, symSize: 0x20 }
  - { offset: 0x61459, size: 0x8, addend: 0x0, symName: __ZNSt3__116__non_trivial_ifILb1ENS_9allocatorIN2ds5TokenEEEEC2B8ne180100Ev, symObjAddr: 0x2A6B0, symBinAddr: 0x10002BD70, symSize: 0x10 }
  - { offset: 0x61482, size: 0x8, addend: 0x0, symName: __Z7isspacei, symObjAddr: 0x2A6C0, symBinAddr: 0x10002BD80, symSize: 0x20 }
  - { offset: 0x614B1, size: 0x8, addend: 0x0, symName: __ZNK2ds9Tokenizer4peekEv, symObjAddr: 0x2A6E0, symBinAddr: 0x10002BDA0, symSize: 0x20 }
  - { offset: 0x614D7, size: 0x8, addend: 0x0, symName: __ZN2ds9Tokenizer7forwardEv, symObjAddr: 0x2A700, symBinAddr: 0x10002BDC0, symSize: 0x20 }
  - { offset: 0x614FD, size: 0x8, addend: 0x0, symName: __Z7isdigiti, symObjAddr: 0x2A720, symBinAddr: 0x10002BDE0, symSize: 0x20 }
  - { offset: 0x6152B, size: 0x8, addend: 0x0, symName: __ZN2ds9Tokenizer6numberEv, symObjAddr: 0x2A740, symBinAddr: 0x10002BE00, symSize: 0x90 }
  - { offset: 0x61560, size: 0x8, addend: 0x0, symName: __ZN2ds9Tokenizer4atomENS_5Token4KindE, symObjAddr: 0x2A7D0, symBinAddr: 0x10002BE90, symSize: 0x60 }
  - { offset: 0x615A4, size: 0x8, addend: 0x0, symName: __ZN2ds5TokenC1ENS0_4KindENSt3__111__wrap_iterIPKcEEm, symObjAddr: 0x2A830, symBinAddr: 0x10002BEF0, symSize: 0x40 }
  - { offset: 0x615FB, size: 0x8, addend: 0x0, symName: __Z8__istypeim, symObjAddr: 0x2A870, symBinAddr: 0x10002BF30, symSize: 0x70 }
  - { offset: 0x61638, size: 0x8, addend: 0x0, symName: __Z7isasciii, symObjAddr: 0x2A8E0, symBinAddr: 0x10002BFA0, symSize: 0x20 }
  - { offset: 0x61666, size: 0x8, addend: 0x0, symName: __ZNKSt3__111__wrap_iterIPKcEdeB8ne180100Ev, symObjAddr: 0x2A900, symBinAddr: 0x10002BFC0, symSize: 0x20 }
  - { offset: 0x6168C, size: 0x8, addend: 0x0, symName: __ZNSt3__111__wrap_iterIPKcEppB8ne180100Ev, symObjAddr: 0x2A920, symBinAddr: 0x10002BFE0, symSize: 0x20 }
  - { offset: 0x616B2, size: 0x8, addend: 0x0, symName: __Z9__isctypeim, symObjAddr: 0x2A940, symBinAddr: 0x10002C000, symSize: 0x60 }
  - { offset: 0x616EF, size: 0x8, addend: 0x0, symName: __ZN2ds5TokenC1ENS0_4KindENSt3__111__wrap_iterIPKcEES6_, symObjAddr: 0x2A9A0, symBinAddr: 0x10002C060, symSize: 0x40 }
  - { offset: 0x61746, size: 0x8, addend: 0x0, symName: __ZN2ds5TokenC2ENS0_4KindENSt3__111__wrap_iterIPKcEES6_, symObjAddr: 0x2A9E0, symBinAddr: 0x10002C0A0, symSize: 0x50 }
  - { offset: 0x6179D, size: 0x8, addend: 0x0, symName: __ZNSt3__112basic_stringIcNS_11char_traitsIcEENS_9allocatorIcEEEC1B8ne180100INS_11__wrap_iterIPKcEELi0EEET_SB_, symObjAddr: 0x2AA30, symBinAddr: 0x10002C0F0, symSize: 0x30 }
  - { offset: 0x617F5, size: 0x8, addend: 0x0, symName: __ZNSt3__112basic_stringIcNS_11char_traitsIcEENS_9allocatorIcEEEC2B8ne180100INS_11__wrap_iterIPKcEELi0EEET_SB_, symObjAddr: 0x2AA60, symBinAddr: 0x10002C120, symSize: 0x50 }
  - { offset: 0x6184D, size: 0x8, addend: 0x0, symName: __ZNSt3__112basic_stringIcNS_11char_traitsIcEENS_9allocatorIcEEE6__initINS_11__wrap_iterIPKcEELi0EEEvT_SB_, symObjAddr: 0x2AAB0, symBinAddr: 0x10002C170, symSize: 0x70 }
  - { offset: 0x618B2, size: 0x8, addend: 0x0, symName: __ZNSt3__112basic_stringIcNS_11char_traitsIcEENS_9allocatorIcEEE16__init_with_sizeB8ne180100INS_11__wrap_iterIPKcEESA_EEvT_T0_m, symObjAddr: 0x2AB60, symBinAddr: 0x10002C220, symSize: 0x160 }
  - { offset: 0x61945, size: 0x8, addend: 0x0, symName: __ZNKSt3__111__wrap_iterIPKcE4baseB8ne180100Ev, symObjAddr: 0x2AD30, symBinAddr: 0x10002C3F0, symSize: 0x20 }
  - { offset: 0x6196B, size: 0x8, addend: 0x0, symName: __ZN2ds5TokenC2ENS0_4KindENSt3__111__wrap_iterIPKcEEm, symObjAddr: 0x2AE00, symBinAddr: 0x10002C4C0, symSize: 0x60 }
  - { offset: 0x619C2, size: 0x8, addend: 0x0, symName: __ZNKSt3__111__wrap_iterIPKcEplB8ne180100El, symObjAddr: 0x2AE60, symBinAddr: 0x10002C520, symSize: 0x40 }
  - { offset: 0x61A06, size: 0x8, addend: 0x0, symName: __ZNSt3__111__wrap_iterIPKcEpLB8ne180100El, symObjAddr: 0x2AEA0, symBinAddr: 0x10002C560, symSize: 0x20 }
  - { offset: 0x61A3B, size: 0x8, addend: 0x0, symName: __ZNK2ds5Token2isENS0_4KindE, symObjAddr: 0x2AEC0, symBinAddr: 0x10002C580, symSize: 0x20 }
  - { offset: 0x61A70, size: 0x8, addend: 0x0, symName: __ZNSt3__16vectorIN2ds5TokenENS_9allocatorIS2_EEE9__end_capB8ne180100Ev, symObjAddr: 0x2AEE0, symBinAddr: 0x10002C5A0, symSize: 0x20 }
  - { offset: 0x61A96, size: 0x8, addend: 0x0, symName: __ZNSt3__16vectorIN2ds5TokenENS_9allocatorIS2_EEE22__construct_one_at_endB8ne180100IJRKS2_EEEvDpOT_, symObjAddr: 0x2AF00, symBinAddr: 0x10002C5C0, symSize: 0x90 }
  - { offset: 0x61AE5, size: 0x8, addend: 0x0, symName: __ZNSt3__16vectorIN2ds5TokenENS_9allocatorIS2_EEE21__push_back_slow_pathIRKS2_EEPS2_OT_, symObjAddr: 0x2AF90, symBinAddr: 0x10002C650, symSize: 0xE0 }
  - { offset: 0x61B43, size: 0x8, addend: 0x0, symName: __ZNSt3__117__compressed_pairIPN2ds5TokenENS_9allocatorIS2_EEE5firstB8ne180100Ev, symObjAddr: 0x2B070, symBinAddr: 0x10002C730, symSize: 0x20 }
  - { offset: 0x61B69, size: 0x8, addend: 0x0, symName: __ZNSt3__122__compressed_pair_elemIPN2ds5TokenELi0ELb0EE5__getB8ne180100Ev, symObjAddr: 0x2B090, symBinAddr: 0x10002C750, symSize: 0x10 }
  - { offset: 0x61BAB, size: 0x8, addend: 0x0, symName: __ZNSt3__16vectorIN2ds5TokenENS_9allocatorIS2_EEE21_ConstructTransactionC1B8ne180100ERS5_m, symObjAddr: 0x2B0A0, symBinAddr: 0x10002C760, symSize: 0x30 }
  - { offset: 0x61BF3, size: 0x8, addend: 0x0, symName: __ZNSt3__116allocator_traitsINS_9allocatorIN2ds5TokenEEEE9constructB8ne180100IS3_JRKS3_EvvEEvRS4_PT_DpOT0_, symObjAddr: 0x2B0D0, symBinAddr: 0x10002C790, symSize: 0x30 }
  - { offset: 0x61C47, size: 0x8, addend: 0x0, symName: __ZNSt3__16vectorIN2ds5TokenENS_9allocatorIS2_EEE7__allocB8ne180100Ev, symObjAddr: 0x2B100, symBinAddr: 0x10002C7C0, symSize: 0x20 }
  - { offset: 0x61C6D, size: 0x8, addend: 0x0, symName: __ZNSt3__16vectorIN2ds5TokenENS_9allocatorIS2_EEE21_ConstructTransactionD1B8ne180100Ev, symObjAddr: 0x2B130, symBinAddr: 0x10002C7F0, symSize: 0x20 }
  - { offset: 0x61C97, size: 0x8, addend: 0x0, symName: __ZNSt3__16vectorIN2ds5TokenENS_9allocatorIS2_EEE21_ConstructTransactionC2B8ne180100ERS5_m, symObjAddr: 0x2B150, symBinAddr: 0x10002C810, symSize: 0x40 }
  - { offset: 0x61CDF, size: 0x8, addend: 0x0, symName: __ZN2ds5TokenC1ERKS0_, symObjAddr: 0x2B1F0, symBinAddr: 0x10002C8B0, symSize: 0x30 }
  - { offset: 0x61D14, size: 0x8, addend: 0x0, symName: __ZN2ds5TokenC2ERKS0_, symObjAddr: 0x2B220, symBinAddr: 0x10002C8E0, symSize: 0x40 }
  - { offset: 0x61D49, size: 0x8, addend: 0x0, symName: __ZNSt3__117__compressed_pairIPN2ds5TokenENS_9allocatorIS2_EEE6secondB8ne180100Ev, symObjAddr: 0x2B260, symBinAddr: 0x10002C920, symSize: 0x20 }
  - { offset: 0x61D6F, size: 0x8, addend: 0x0, symName: __ZNSt3__122__compressed_pair_elemINS_9allocatorIN2ds5TokenEEELi1ELb1EE5__getB8ne180100Ev, symObjAddr: 0x2B280, symBinAddr: 0x10002C940, symSize: 0x10 }
  - { offset: 0x61D95, size: 0x8, addend: 0x0, symName: __ZNSt3__16vectorIN2ds5TokenENS_9allocatorIS2_EEE21_ConstructTransactionD2B8ne180100Ev, symObjAddr: 0x2B290, symBinAddr: 0x10002C950, symSize: 0x20 }
  - { offset: 0x61DBF, size: 0x8, addend: 0x0, symName: __ZNKSt3__16vectorIN2ds5TokenENS_9allocatorIS2_EEE11__recommendB8ne180100Em, symObjAddr: 0x2B2B0, symBinAddr: 0x10002C970, symSize: 0x90 }
  - { offset: 0x61E14, size: 0x8, addend: 0x0, symName: __ZNKSt3__16vectorIN2ds5TokenENS_9allocatorIS2_EEE4sizeB8ne180100Ev, symObjAddr: 0x2B340, symBinAddr: 0x10002CA00, symSize: 0x20 }
  - { offset: 0x61E3A, size: 0x8, addend: 0x0, symName: __ZNSt3__114__split_bufferIN2ds5TokenERNS_9allocatorIS2_EEEC1EmmS5_, symObjAddr: 0x2B360, symBinAddr: 0x10002CA20, symSize: 0x40 }
  - { offset: 0x61E93, size: 0x8, addend: 0x0, symName: __ZNSt3__114__split_bufferIN2ds5TokenERNS_9allocatorIS2_EEED1Ev, symObjAddr: 0x2B4C0, symBinAddr: 0x10002CB80, symSize: 0x20 }
  - { offset: 0x61EBF, size: 0x8, addend: 0x0, symName: __ZNKSt3__16vectorIN2ds5TokenENS_9allocatorIS2_EEE8max_sizeEv, symObjAddr: 0x2B4E0, symBinAddr: 0x10002CBA0, symSize: 0x60 }
  - { offset: 0x61EE7, size: 0x8, addend: 0x0, symName: __ZNKSt3__16vectorIN2ds5TokenENS_9allocatorIS2_EEE20__throw_length_errorB8ne180100Ev, symObjAddr: 0x2B540, symBinAddr: 0x10002CC00, symSize: 0x20 }
  - { offset: 0x61F0D, size: 0x8, addend: 0x0, symName: __ZNKSt3__16vectorIN2ds5TokenENS_9allocatorIS2_EEE8capacityB8ne180100Ev, symObjAddr: 0x2B560, symBinAddr: 0x10002CC20, symSize: 0x30 }
  - { offset: 0x61F3E, size: 0x8, addend: 0x0, symName: __ZNSt3__116allocator_traitsINS_9allocatorIN2ds5TokenEEEE8max_sizeB8ne180100IS4_vvEEmRKS4_, symObjAddr: 0x2B590, symBinAddr: 0x10002CC50, symSize: 0x20 }
  - { offset: 0x61F69, size: 0x8, addend: 0x0, symName: __ZNKSt3__16vectorIN2ds5TokenENS_9allocatorIS2_EEE7__allocB8ne180100Ev, symObjAddr: 0x2B5B0, symBinAddr: 0x10002CC70, symSize: 0x20 }
  - { offset: 0x61F8F, size: 0x8, addend: 0x0, symName: __ZNKSt3__117__compressed_pairIPN2ds5TokenENS_9allocatorIS2_EEE6secondB8ne180100Ev, symObjAddr: 0x2B5D0, symBinAddr: 0x10002CC90, symSize: 0x20 }
  - { offset: 0x61FB5, size: 0x8, addend: 0x0, symName: __ZNKSt3__122__compressed_pair_elemINS_9allocatorIN2ds5TokenEEELi1ELb1EE5__getB8ne180100Ev, symObjAddr: 0x2B5F0, symBinAddr: 0x10002CCB0, symSize: 0x10 }
  - { offset: 0x61FDB, size: 0x8, addend: 0x0, symName: __ZNKSt3__16vectorIN2ds5TokenENS_9allocatorIS2_EEE9__end_capB8ne180100Ev, symObjAddr: 0x2B600, symBinAddr: 0x10002CCC0, symSize: 0x20 }
  - { offset: 0x62001, size: 0x8, addend: 0x0, symName: __ZNKSt3__117__compressed_pairIPN2ds5TokenENS_9allocatorIS2_EEE5firstB8ne180100Ev, symObjAddr: 0x2B620, symBinAddr: 0x10002CCE0, symSize: 0x20 }
  - { offset: 0x62027, size: 0x8, addend: 0x0, symName: __ZNKSt3__122__compressed_pair_elemIPN2ds5TokenELi0ELb0EE5__getB8ne180100Ev, symObjAddr: 0x2B640, symBinAddr: 0x10002CD00, symSize: 0x10 }
  - { offset: 0x6204D, size: 0x8, addend: 0x0, symName: __ZNSt3__114__split_bufferIN2ds5TokenERNS_9allocatorIS2_EEEC2EmmS5_, symObjAddr: 0x2B650, symBinAddr: 0x10002CD10, symSize: 0xD0 }
  - { offset: 0x620C3, size: 0x8, addend: 0x0, symName: __ZNSt3__117__compressed_pairIPN2ds5TokenERNS_9allocatorIS2_EEEC1B8ne180100IDnS6_EEOT_OT0_, symObjAddr: 0x2B720, symBinAddr: 0x10002CDE0, symSize: 0x30 }
  - { offset: 0x6211D, size: 0x8, addend: 0x0, symName: __ZNSt3__114__split_bufferIN2ds5TokenERNS_9allocatorIS2_EEE7__allocB8ne180100Ev, symObjAddr: 0x2B790, symBinAddr: 0x10002CE50, symSize: 0x20 }
  - { offset: 0x62143, size: 0x8, addend: 0x0, symName: __ZNSt3__114__split_bufferIN2ds5TokenERNS_9allocatorIS2_EEE9__end_capB8ne180100Ev, symObjAddr: 0x2B7B0, symBinAddr: 0x10002CE70, symSize: 0x20 }
  - { offset: 0x62169, size: 0x8, addend: 0x0, symName: __ZNSt3__117__compressed_pairIPN2ds5TokenERNS_9allocatorIS2_EEEC2B8ne180100IDnS6_EEOT_OT0_, symObjAddr: 0x2B7D0, symBinAddr: 0x10002CE90, symSize: 0x40 }
  - { offset: 0x621C3, size: 0x8, addend: 0x0, symName: __ZNSt3__122__compressed_pair_elemIRNS_9allocatorIN2ds5TokenEEELi1ELb0EEC2B8ne180100IS5_vEEOT_, symObjAddr: 0x2B810, symBinAddr: 0x10002CED0, symSize: 0x20 }
  - { offset: 0x62206, size: 0x8, addend: 0x0, symName: __ZNSt3__19allocatorIN2ds5TokenEE8allocateB8ne180100Em, symObjAddr: 0x2B830, symBinAddr: 0x10002CEF0, symSize: 0x50 }
  - { offset: 0x6223B, size: 0x8, addend: 0x0, symName: __ZNSt3__117__compressed_pairIPN2ds5TokenERNS_9allocatorIS2_EEE6secondB8ne180100Ev, symObjAddr: 0x2B880, symBinAddr: 0x10002CF40, symSize: 0x20 }
  - { offset: 0x62261, size: 0x8, addend: 0x0, symName: __ZNSt3__122__compressed_pair_elemIRNS_9allocatorIN2ds5TokenEEELi1ELb0EE5__getB8ne180100Ev, symObjAddr: 0x2B8A0, symBinAddr: 0x10002CF60, symSize: 0x20 }
  - { offset: 0x62287, size: 0x8, addend: 0x0, symName: __ZNSt3__117__compressed_pairIPN2ds5TokenERNS_9allocatorIS2_EEE5firstB8ne180100Ev, symObjAddr: 0x2B8C0, symBinAddr: 0x10002CF80, symSize: 0x20 }
  - { offset: 0x622AD, size: 0x8, addend: 0x0, symName: __ZNKSt3__16vectorIN2ds5TokenENS_9allocatorIS2_EEE17__annotate_deleteB8ne180100Ev, symObjAddr: 0x2B8E0, symBinAddr: 0x10002CFA0, symSize: 0x10 }
  - { offset: 0x622D3, size: 0x8, addend: 0x0, symName: __ZNSt3__116reverse_iteratorIPN2ds5TokenEEC1B8ne180100ES3_, symObjAddr: 0x2BA70, symBinAddr: 0x10002D130, symSize: 0x30 }
  - { offset: 0x6230C, size: 0x8, addend: 0x0, symName: __ZNKSt3__116reverse_iteratorIPN2ds5TokenEE4baseB8ne180100Ev, symObjAddr: 0x2BAA0, symBinAddr: 0x10002D160, symSize: 0x20 }
  - { offset: 0x62332, size: 0x8, addend: 0x0, symName: __ZNKSt3__16vectorIN2ds5TokenENS_9allocatorIS2_EEE14__annotate_newB8ne180100Em, symObjAddr: 0x2BB00, symBinAddr: 0x10002D1C0, symSize: 0x10 }
  - { offset: 0x62367, size: 0x8, addend: 0x0, symName: __ZNSt3__129_AllocatorDestroyRangeReverseINS_9allocatorIN2ds5TokenEEENS_16reverse_iteratorIPS3_EEEC1B8ne180100ERS4_RS7_SA_, symObjAddr: 0x2BB70, symBinAddr: 0x10002D230, symSize: 0x40 }
  - { offset: 0x623BE, size: 0x8, addend: 0x0, symName: __ZNSt3__116allocator_traitsINS_9allocatorIN2ds5TokenEEEE9constructB8ne180100IS3_JS3_EvvEEvRS4_PT_DpOT0_, symObjAddr: 0x2BBF0, symBinAddr: 0x10002D2B0, symSize: 0x30 }
  - { offset: 0x62412, size: 0x8, addend: 0x0, symName: __ZNKSt3__116reverse_iteratorIPN2ds5TokenEEdeB8ne180100Ev, symObjAddr: 0x2BC40, symBinAddr: 0x10002D300, symSize: 0x30 }
  - { offset: 0x62447, size: 0x8, addend: 0x0, symName: __ZNSt3__116reverse_iteratorIPN2ds5TokenEEppB8ne180100Ev, symObjAddr: 0x2BC70, symBinAddr: 0x10002D330, symSize: 0x20 }
  - { offset: 0x6246D, size: 0x8, addend: 0x0, symName: __ZNSt3__128__exception_guard_exceptionsINS_29_AllocatorDestroyRangeReverseINS_9allocatorIN2ds5TokenEEENS_16reverse_iteratorIPS4_EEEEE10__completeB8ne180100Ev, symObjAddr: 0x2BC90, symBinAddr: 0x10002D350, symSize: 0x20 }
  - { offset: 0x62493, size: 0x8, addend: 0x0, symName: __ZNSt3__128__exception_guard_exceptionsINS_29_AllocatorDestroyRangeReverseINS_9allocatorIN2ds5TokenEEENS_16reverse_iteratorIPS4_EEEEED1B8ne180100Ev, symObjAddr: 0x2BCB0, symBinAddr: 0x10002D370, symSize: 0x20 }
  - { offset: 0x624BD, size: 0x8, addend: 0x0, symName: __ZNSt3__128__exception_guard_exceptionsINS_29_AllocatorDestroyRangeReverseINS_9allocatorIN2ds5TokenEEENS_16reverse_iteratorIPS4_EEEEEC1B8ne180100ES9_, symObjAddr: 0x2BCD0, symBinAddr: 0x10002D390, symSize: 0x40 }
  - { offset: 0x624F6, size: 0x8, addend: 0x0, symName: __ZNSt3__128__exception_guard_exceptionsINS_29_AllocatorDestroyRangeReverseINS_9allocatorIN2ds5TokenEEENS_16reverse_iteratorIPS4_EEEEEC2B8ne180100ES9_, symObjAddr: 0x2BD10, symBinAddr: 0x10002D3D0, symSize: 0x30 }
  - { offset: 0x6252F, size: 0x8, addend: 0x0, symName: __ZNSt3__129_AllocatorDestroyRangeReverseINS_9allocatorIN2ds5TokenEEENS_16reverse_iteratorIPS3_EEEC2B8ne180100ERS4_RS7_SA_, symObjAddr: 0x2BD40, symBinAddr: 0x10002D400, symSize: 0x40 }
  - { offset: 0x62586, size: 0x8, addend: 0x0, symName: __ZN2ds5TokenC1EOS0_, symObjAddr: 0x2BDE0, symBinAddr: 0x10002D4A0, symSize: 0x30 }
  - { offset: 0x625BB, size: 0x8, addend: 0x0, symName: __ZN2ds5TokenC2EOS0_, symObjAddr: 0x2BE10, symBinAddr: 0x10002D4D0, symSize: 0x40 }
  - { offset: 0x625F6, size: 0x8, addend: 0x0, symName: __ZNSt3__119__to_address_helperINS_16reverse_iteratorIPN2ds5TokenEEEvE6__callB8ne180100ERKS5_, symObjAddr: 0x2BE50, symBinAddr: 0x10002D510, symSize: 0x40 }
  - { offset: 0x6261A, size: 0x8, addend: 0x0, symName: __ZNKSt3__116reverse_iteratorIPN2ds5TokenEEptB8ne180100Ev, symObjAddr: 0x2BE90, symBinAddr: 0x10002D550, symSize: 0x30 }
  - { offset: 0x62640, size: 0x8, addend: 0x0, symName: __ZNSt3__128__exception_guard_exceptionsINS_29_AllocatorDestroyRangeReverseINS_9allocatorIN2ds5TokenEEENS_16reverse_iteratorIPS4_EEEEED2B8ne180100Ev, symObjAddr: 0x2BF40, symBinAddr: 0x10002D600, symSize: 0x40 }
  - { offset: 0x6266A, size: 0x8, addend: 0x0, symName: __ZNKSt3__129_AllocatorDestroyRangeReverseINS_9allocatorIN2ds5TokenEEENS_16reverse_iteratorIPS3_EEEclB8ne180100Ev, symObjAddr: 0x2BF80, symBinAddr: 0x10002D640, symSize: 0xF0 }
  - { offset: 0x62691, size: 0x8, addend: 0x0, symName: __ZNSt3__116reverse_iteratorINS0_IPN2ds5TokenEEEEC1B8ne180100ES4_, symObjAddr: 0x2C0E0, symBinAddr: 0x10002D7A0, symSize: 0x30 }
  - { offset: 0x626CA, size: 0x8, addend: 0x0, symName: __ZNSt3__116allocator_traitsINS_9allocatorIN2ds5TokenEEEE7destroyB8ne180100IS3_vvEEvRS4_PT_, symObjAddr: 0x2C160, symBinAddr: 0x10002D820, symSize: 0x20 }
  - { offset: 0x62704, size: 0x8, addend: 0x0, symName: __ZNSt3__116reverse_iteratorINS0_IPN2ds5TokenEEEEppB8ne180100Ev, symObjAddr: 0x2C1A0, symBinAddr: 0x10002D860, symSize: 0x30 }
  - { offset: 0x6272A, size: 0x8, addend: 0x0, symName: __ZNKSt3__116reverse_iteratorINS0_IPN2ds5TokenEEEE4baseB8ne180100Ev, symObjAddr: 0x2C1D0, symBinAddr: 0x10002D890, symSize: 0x20 }
  - { offset: 0x62756, size: 0x8, addend: 0x0, symName: __ZNSt3__119__to_address_helperINS_16reverse_iteratorINS1_IPN2ds5TokenEEEEEvE6__callB8ne180100ERKS6_, symObjAddr: 0x2C210, symBinAddr: 0x10002D8D0, symSize: 0x40 }
  - { offset: 0x6277A, size: 0x8, addend: 0x0, symName: __ZNKSt3__116reverse_iteratorINS0_IPN2ds5TokenEEEEptB8ne180100Ev, symObjAddr: 0x2C250, symBinAddr: 0x10002D910, symSize: 0x50 }
  - { offset: 0x627A0, size: 0x8, addend: 0x0, symName: __ZNSt3__116reverse_iteratorIPN2ds5TokenEEpLB8ne180100El, symObjAddr: 0x2C340, symBinAddr: 0x10002DA00, symSize: 0x30 }
  - { offset: 0x627D5, size: 0x8, addend: 0x0, symName: __ZNSt3__116reverse_iteratorIPN2ds5TokenEEmmB8ne180100Ev, symObjAddr: 0x2C370, symBinAddr: 0x10002DA30, symSize: 0x20 }
  - { offset: 0x627FB, size: 0x8, addend: 0x0, symName: __ZNSt3__116reverse_iteratorINS0_IPN2ds5TokenEEEEC2B8ne180100ES4_, symObjAddr: 0x2C390, symBinAddr: 0x10002DA50, symSize: 0x40 }
  - { offset: 0x62834, size: 0x8, addend: 0x0, symName: __ZNSt3__116reverse_iteratorIPN2ds5TokenEEC2B8ne180100ES3_, symObjAddr: 0x2C3D0, symBinAddr: 0x10002DA90, symSize: 0x30 }
  - { offset: 0x6286D, size: 0x8, addend: 0x0, symName: __ZNSt3__114__split_bufferIN2ds5TokenERNS_9allocatorIS2_EEED2Ev, symObjAddr: 0x2C400, symBinAddr: 0x10002DAC0, symSize: 0x70 }
  - { offset: 0x62899, size: 0x8, addend: 0x0, symName: __ZNSt3__114__split_bufferIN2ds5TokenERNS_9allocatorIS2_EEE5clearB8ne180100Ev, symObjAddr: 0x2C470, symBinAddr: 0x10002DB30, symSize: 0x20 }
  - { offset: 0x628BF, size: 0x8, addend: 0x0, symName: __ZNSt3__116allocator_traitsINS_9allocatorIN2ds5TokenEEEE10deallocateB8ne180100ERS4_PS3_m, symObjAddr: 0x2C490, symBinAddr: 0x10002DB50, symSize: 0x30 }
  - { offset: 0x62901, size: 0x8, addend: 0x0, symName: __ZNKSt3__114__split_bufferIN2ds5TokenERNS_9allocatorIS2_EEE8capacityB8ne180100Ev, symObjAddr: 0x2C4C0, symBinAddr: 0x10002DB80, symSize: 0x30 }
  - { offset: 0x62927, size: 0x8, addend: 0x0, symName: __ZNSt3__114__split_bufferIN2ds5TokenERNS_9allocatorIS2_EEE17__destruct_at_endB8ne180100EPS2_, symObjAddr: 0x2C4F0, symBinAddr: 0x10002DBB0, symSize: 0x30 }
  - { offset: 0x6295C, size: 0x8, addend: 0x0, symName: __ZNSt3__114__split_bufferIN2ds5TokenERNS_9allocatorIS2_EEE17__destruct_at_endB8ne180100EPS2_NS_17integral_constantIbLb0EEE, symObjAddr: 0x2C520, symBinAddr: 0x10002DBE0, symSize: 0x80 }
  - { offset: 0x6299E, size: 0x8, addend: 0x0, symName: __ZNSt3__19allocatorIN2ds5TokenEE10deallocateB8ne180100EPS2_m, symObjAddr: 0x2C5A0, symBinAddr: 0x10002DC60, symSize: 0x40 }
  - { offset: 0x629E2, size: 0x8, addend: 0x0, symName: __ZNKSt3__114__split_bufferIN2ds5TokenERNS_9allocatorIS2_EEE9__end_capB8ne180100Ev, symObjAddr: 0x2C5E0, symBinAddr: 0x10002DCA0, symSize: 0x20 }
  - { offset: 0x62A08, size: 0x8, addend: 0x0, symName: __ZNKSt3__117__compressed_pairIPN2ds5TokenERNS_9allocatorIS2_EEE5firstB8ne180100Ev, symObjAddr: 0x2C600, symBinAddr: 0x10002DCC0, symSize: 0x20 }
  - { offset: 0x62A2E, size: 0x8, addend: 0x0, symName: __ZN2ds5TokenD2Ev, symObjAddr: 0x2C620, symBinAddr: 0x10002DCE0, symSize: 0x20 }
  - { offset: 0x62A5A, size: 0x8, addend: 0x0, symName: __ZNSt3__16vectorIN2ds5TokenENS_9allocatorIS2_EEED2B8ne180100Ev, symObjAddr: 0x2C640, symBinAddr: 0x10002DD00, symSize: 0x40 }
  - { offset: 0x62A84, size: 0x8, addend: 0x0, symName: __ZNSt3__16vectorIN2ds5TokenENS_9allocatorIS2_EEE16__destroy_vectorC1B8ne180100ERS5_, symObjAddr: 0x2C680, symBinAddr: 0x10002DD40, symSize: 0x30 }
  - { offset: 0x62ABD, size: 0x8, addend: 0x0, symName: __ZNSt3__16vectorIN2ds5TokenENS_9allocatorIS2_EEE16__destroy_vectorclB8ne180100Ev, symObjAddr: 0x2C6B0, symBinAddr: 0x10002DD70, symSize: 0x80 }
  - { offset: 0x62AE3, size: 0x8, addend: 0x0, symName: __ZNSt3__16vectorIN2ds5TokenENS_9allocatorIS2_EEE16__destroy_vectorC2B8ne180100ERS5_, symObjAddr: 0x2C730, symBinAddr: 0x10002DDF0, symSize: 0x20 }
  - { offset: 0x62B1C, size: 0x8, addend: 0x0, symName: __ZNSt3__16vectorIN2ds5TokenENS_9allocatorIS2_EEE7__clearB8ne180100Ev, symObjAddr: 0x2C750, symBinAddr: 0x10002DE10, symSize: 0x20 }
  - { offset: 0x62B42, size: 0x8, addend: 0x0, symName: __ZNSt3__16vectorIN2ds5TokenENS_9allocatorIS2_EEE22__base_destruct_at_endB8ne180100EPS2_, symObjAddr: 0x2C770, symBinAddr: 0x10002DE30, symSize: 0x80 }
  - { offset: 0x62B86, size: 0x8, addend: 0x0, symName: __ZNSt3__111char_traitsIcE7compareB8ne180100EPKcS3_m, symObjAddr: 0x2CAE0, symBinAddr: 0x10002E1A0, symSize: 0x30 }
  - { offset: 0x62BC8, size: 0x8, addend: 0x0, symName: __ZN7doctest6detail15StringMakerBaseILb1EE7convertINSt3__112basic_stringIcNS4_11char_traitsIcEENS4_9allocatorIcEEEEEENS_6StringERKT_, symObjAddr: 0x2CB40, symBinAddr: 0x10002E200, symSize: 0x30 }
  - { offset: 0x62BF5, size: 0x8, addend: 0x0, symName: __ZN7doctest6detail8filldataINSt3__112basic_stringIcNS2_11char_traitsIcEENS2_9allocatorIcEEEEE4fillEPNS2_13basic_ostreamIcS5_EERKS8_, symObjAddr: 0x2CBF0, symBinAddr: 0x10002E2B0, symSize: 0x30 }
  - { offset: 0x62C28, size: 0x8, addend: 0x0, symName: __ZN7doctest6detail6ResultD2Ev, symObjAddr: 0x2CC20, symBinAddr: 0x10002E2E0, symSize: 0x20 }
  - { offset: 0x62C55, size: 0x8, addend: 0x0, symName: __ZN7doctest6detail14Expression_lhsINSt3__112basic_stringIcNS2_11char_traitsIcEENS2_9allocatorIcEEEEED2Ev, symObjAddr: 0x2CC40, symBinAddr: 0x10002E300, symSize: 0x20 }
  - { offset: 0x62C82, size: 0x8, addend: 0x0, symName: __ZNSt3__15stackIN2ds5TokenENS_5dequeIS2_NS_9allocatorIS2_EEEEED2Ev, symObjAddr: 0x2CC60, symBinAddr: 0x10002E320, symSize: 0x20 }
  - { offset: 0x62CAE, size: 0x8, addend: 0x0, symName: __ZNSt3__15dequeIN2ds5TokenENS_9allocatorIS2_EEED1B8ne180100Ev, symObjAddr: 0x2CC80, symBinAddr: 0x10002E340, symSize: 0x20 }
  - { offset: 0x62CD8, size: 0x8, addend: 0x0, symName: __ZNSt3__15dequeIN2ds5TokenENS_9allocatorIS2_EEED2B8ne180100Ev, symObjAddr: 0x2CCA0, symBinAddr: 0x10002E360, symSize: 0x90 }
  - { offset: 0x62D2E, size: 0x8, addend: 0x0, symName: __ZNSt3__15dequeIN2ds5TokenENS_9allocatorIS2_EEE5clearEv, symObjAddr: 0x2CD30, symBinAddr: 0x10002E3F0, symSize: 0x1A0 }
  - { offset: 0x62D89, size: 0x8, addend: 0x0, symName: __ZNKSt3__15dequeIN2ds5TokenENS_9allocatorIS2_EEE17__annotate_deleteB8ne180100Ev, symObjAddr: 0x2CED0, symBinAddr: 0x10002E590, symSize: 0x10 }
  - { offset: 0x62DAF, size: 0x8, addend: 0x0, symName: __ZNSt3__114__split_bufferIPN2ds5TokenENS_9allocatorIS3_EEE5beginB8ne180100Ev, symObjAddr: 0x2CEE0, symBinAddr: 0x10002E5A0, symSize: 0x20 }
  - { offset: 0x62DD5, size: 0x8, addend: 0x0, symName: __ZNSt3__114__split_bufferIPN2ds5TokenENS_9allocatorIS3_EEE3endB8ne180100Ev, symObjAddr: 0x2CF00, symBinAddr: 0x10002E5C0, symSize: 0x20 }
  - { offset: 0x62DFB, size: 0x8, addend: 0x0, symName: __ZNSt3__15dequeIN2ds5TokenENS_9allocatorIS2_EEE7__allocB8ne180100Ev, symObjAddr: 0x2CF20, symBinAddr: 0x10002E5E0, symSize: 0x20 }
  - { offset: 0x62E21, size: 0x8, addend: 0x0, symName: __ZNSt3__114__split_bufferIPN2ds5TokenENS_9allocatorIS3_EEED1Ev, symObjAddr: 0x2CF40, symBinAddr: 0x10002E600, symSize: 0x20 }
  - { offset: 0x62E4D, size: 0x8, addend: 0x0, symName: __ZNSt3__15dequeIN2ds5TokenENS_9allocatorIS2_EEE5beginB8ne180100Ev, symObjAddr: 0x2CF60, symBinAddr: 0x10002E620, symSize: 0xB0 }
  - { offset: 0x62E82, size: 0x8, addend: 0x0, symName: __ZNSt3__15dequeIN2ds5TokenENS_9allocatorIS2_EEE3endB8ne180100Ev, symObjAddr: 0x2D010, symBinAddr: 0x10002E6D0, symSize: 0xA0 }
  - { offset: 0x62EC6, size: 0x8, addend: 0x0, symName: __ZNKSt3__116__deque_iteratorIN2ds5TokenEPS2_RS2_PS3_lLl128EEdeB8ne180100Ev, symObjAddr: 0x2D0E0, symBinAddr: 0x10002E7A0, symSize: 0x20 }
  - { offset: 0x62EEC, size: 0x8, addend: 0x0, symName: __ZNSt3__116__deque_iteratorIN2ds5TokenEPS2_RS2_PS3_lLl128EEppB8ne180100Ev, symObjAddr: 0x2D100, symBinAddr: 0x10002E7C0, symSize: 0x60 }
  - { offset: 0x62F12, size: 0x8, addend: 0x0, symName: __ZNSt3__15dequeIN2ds5TokenENS_9allocatorIS2_EEE6__sizeB8ne180100Ev, symObjAddr: 0x2D160, symBinAddr: 0x10002E820, symSize: 0x20 }
  - { offset: 0x62F38, size: 0x8, addend: 0x0, symName: __ZNKSt3__114__split_bufferIPN2ds5TokenENS_9allocatorIS3_EEE4sizeB8ne180100Ev, symObjAddr: 0x2D180, symBinAddr: 0x10002E840, symSize: 0x20 }
  - { offset: 0x62F5E, size: 0x8, addend: 0x0, symName: __ZNSt3__114__split_bufferIPN2ds5TokenENS_9allocatorIS3_EEE5frontB8ne180100Ev, symObjAddr: 0x2D1A0, symBinAddr: 0x10002E860, symSize: 0x20 }
  - { offset: 0x62F84, size: 0x8, addend: 0x0, symName: __ZNSt3__114__split_bufferIPN2ds5TokenENS_9allocatorIS3_EEE9pop_frontB8ne180100Ev, symObjAddr: 0x2D1C0, symBinAddr: 0x10002E880, symSize: 0x30 }
  - { offset: 0x62FAA, size: 0x8, addend: 0x0, symName: __ZNKSt3__15dequeIN2ds5TokenENS_9allocatorIS2_EEE14__annotate_newB8ne180100Em, symObjAddr: 0x2D1F0, symBinAddr: 0x10002E8B0, symSize: 0x10 }
  - { offset: 0x62FDF, size: 0x8, addend: 0x0, symName: __ZNKSt3__114__split_bufferIPN2ds5TokenENS_9allocatorIS3_EEE5emptyB8ne180100Ev, symObjAddr: 0x2D200, symBinAddr: 0x10002E8C0, symSize: 0x20 }
  - { offset: 0x63005, size: 0x8, addend: 0x0, symName: __ZNSt3__116__deque_iteratorIN2ds5TokenEPS2_RS2_PS3_lLl128EEC1B8ne180100ES5_S3_, symObjAddr: 0x2D220, symBinAddr: 0x10002E8E0, symSize: 0x30 }
  - { offset: 0x6304D, size: 0x8, addend: 0x0, symName: __ZNSt3__116__deque_iteratorIN2ds5TokenEPS2_RS2_PS3_lLl128EEC2B8ne180100ES5_S3_, symObjAddr: 0x2D250, symBinAddr: 0x10002E910, symSize: 0x30 }
  - { offset: 0x63095, size: 0x8, addend: 0x0, symName: __ZNKSt3__15dequeIN2ds5TokenENS_9allocatorIS2_EEE4sizeB8ne180100Ev, symObjAddr: 0x2D280, symBinAddr: 0x10002E940, symSize: 0x20 }
  - { offset: 0x630BB, size: 0x8, addend: 0x0, symName: __ZNKSt3__15dequeIN2ds5TokenENS_9allocatorIS2_EEE6__sizeB8ne180100Ev, symObjAddr: 0x2D2A0, symBinAddr: 0x10002E960, symSize: 0x20 }
  - { offset: 0x630E1, size: 0x8, addend: 0x0, symName: __ZNKSt3__117__compressed_pairImNS_9allocatorIN2ds5TokenEEEE5firstB8ne180100Ev, symObjAddr: 0x2D2C0, symBinAddr: 0x10002E980, symSize: 0x20 }
  - { offset: 0x63107, size: 0x8, addend: 0x0, symName: __ZNKSt3__122__compressed_pair_elemImLi0ELb0EE5__getB8ne180100Ev, symObjAddr: 0x2D2E0, symBinAddr: 0x10002E9A0, symSize: 0x10 }
  - { offset: 0x6312D, size: 0x8, addend: 0x0, symName: __ZNSt3__117__compressed_pairImNS_9allocatorIN2ds5TokenEEEE5firstB8ne180100Ev, symObjAddr: 0x2D320, symBinAddr: 0x10002E9E0, symSize: 0x20 }
  - { offset: 0x63153, size: 0x8, addend: 0x0, symName: __ZNSt3__114__split_bufferIPN2ds5TokenENS_9allocatorIS3_EEE19__destruct_at_beginB8ne180100EPS3_, symObjAddr: 0x2D340, symBinAddr: 0x10002EA00, symSize: 0x30 }
  - { offset: 0x63188, size: 0x8, addend: 0x0, symName: __ZNSt3__114__split_bufferIPN2ds5TokenENS_9allocatorIS3_EEE19__destruct_at_beginEPS3_NS_17integral_constantIbLb1EEE, symObjAddr: 0x2D370, symBinAddr: 0x10002EA30, symSize: 0x20 }
  - { offset: 0x631CA, size: 0x8, addend: 0x0, symName: __ZNSt3__117__compressed_pairImNS_9allocatorIN2ds5TokenEEEE6secondB8ne180100Ev, symObjAddr: 0x2D390, symBinAddr: 0x10002EA50, symSize: 0x20 }
  - { offset: 0x631F0, size: 0x8, addend: 0x0, symName: __ZNSt3__114__split_bufferIPN2ds5TokenENS_9allocatorIS3_EEED2Ev, symObjAddr: 0x2D3B0, symBinAddr: 0x10002EA70, symSize: 0x70 }
  - { offset: 0x6321C, size: 0x8, addend: 0x0, symName: __ZNSt3__114__split_bufferIPN2ds5TokenENS_9allocatorIS3_EEE5clearB8ne180100Ev, symObjAddr: 0x2D420, symBinAddr: 0x10002EAE0, symSize: 0x20 }
  - { offset: 0x63242, size: 0x8, addend: 0x0, symName: __ZNSt3__116allocator_traitsINS_9allocatorIPN2ds5TokenEEEE10deallocateB8ne180100ERS5_PS4_m, symObjAddr: 0x2D440, symBinAddr: 0x10002EB00, symSize: 0x30 }
  - { offset: 0x63284, size: 0x8, addend: 0x0, symName: __ZNSt3__114__split_bufferIPN2ds5TokenENS_9allocatorIS3_EEE7__allocB8ne180100Ev, symObjAddr: 0x2D470, symBinAddr: 0x10002EB30, symSize: 0x20 }
  - { offset: 0x632AA, size: 0x8, addend: 0x0, symName: __ZNKSt3__114__split_bufferIPN2ds5TokenENS_9allocatorIS3_EEE8capacityB8ne180100Ev, symObjAddr: 0x2D490, symBinAddr: 0x10002EB50, symSize: 0x30 }
  - { offset: 0x632D0, size: 0x8, addend: 0x0, symName: __ZNSt3__114__split_bufferIPN2ds5TokenENS_9allocatorIS3_EEE17__destruct_at_endB8ne180100EPS3_, symObjAddr: 0x2D4C0, symBinAddr: 0x10002EB80, symSize: 0x30 }
  - { offset: 0x63305, size: 0x8, addend: 0x0, symName: __ZNSt3__114__split_bufferIPN2ds5TokenENS_9allocatorIS3_EEE17__destruct_at_endB8ne180100EPS3_NS_17integral_constantIbLb0EEE, symObjAddr: 0x2D4F0, symBinAddr: 0x10002EBB0, symSize: 0x80 }
  - { offset: 0x63347, size: 0x8, addend: 0x0, symName: __ZNSt3__116allocator_traitsINS_9allocatorIPN2ds5TokenEEEE7destroyB8ne180100IS4_vvEEvRS5_PT_, symObjAddr: 0x2D570, symBinAddr: 0x10002EC30, symSize: 0x20 }
  - { offset: 0x63381, size: 0x8, addend: 0x0, symName: __ZNSt3__19allocatorIPN2ds5TokenEE10deallocateB8ne180100EPS3_m, symObjAddr: 0x2D5B0, symBinAddr: 0x10002EC70, symSize: 0x40 }
  - { offset: 0x633C5, size: 0x8, addend: 0x0, symName: __ZNSt3__117__compressed_pairIPPN2ds5TokenENS_9allocatorIS3_EEE6secondB8ne180100Ev, symObjAddr: 0x2D5F0, symBinAddr: 0x10002ECB0, symSize: 0x20 }
  - { offset: 0x633EB, size: 0x8, addend: 0x0, symName: __ZNSt3__122__compressed_pair_elemINS_9allocatorIPN2ds5TokenEEELi1ELb1EE5__getB8ne180100Ev, symObjAddr: 0x2D610, symBinAddr: 0x10002ECD0, symSize: 0x10 }
  - { offset: 0x63411, size: 0x8, addend: 0x0, symName: __ZNKSt3__114__split_bufferIPN2ds5TokenENS_9allocatorIS3_EEE9__end_capB8ne180100Ev, symObjAddr: 0x2D620, symBinAddr: 0x10002ECE0, symSize: 0x20 }
  - { offset: 0x63437, size: 0x8, addend: 0x0, symName: __ZNKSt3__117__compressed_pairIPPN2ds5TokenENS_9allocatorIS3_EEE5firstB8ne180100Ev, symObjAddr: 0x2D640, symBinAddr: 0x10002ED00, symSize: 0x20 }
  - { offset: 0x6345D, size: 0x8, addend: 0x0, symName: __ZNKSt3__122__compressed_pair_elemIPPN2ds5TokenELi0ELb0EE5__getB8ne180100Ev, symObjAddr: 0x2D660, symBinAddr: 0x10002ED20, symSize: 0x10 }
  - { offset: 0x634A0, size: 0x8, addend: 0x0, symName: __ZN2ds6BigIntD1Ev, symObjAddr: 0x2D6F0, symBinAddr: 0x10002EDB0, symSize: 0x20 }
  - { offset: 0x634CC, size: 0x8, addend: 0x0, symName: __ZNKSt3__16vectorIiNS_9allocatorIiEEE5beginB8ne180100Ev, symObjAddr: 0x2D710, symBinAddr: 0x10002EDD0, symSize: 0x30 }
  - { offset: 0x634F4, size: 0x8, addend: 0x0, symName: __ZNKSt3__16vectorIiNS_9allocatorIiEEE3endB8ne180100Ev, symObjAddr: 0x2D740, symBinAddr: 0x10002EE00, symSize: 0x30 }
  - { offset: 0x6351C, size: 0x8, addend: 0x0, symName: __ZNKSt3__111__wrap_iterIPKiEdeB8ne180100Ev, symObjAddr: 0x2D7A0, symBinAddr: 0x10002EE60, symSize: 0x20 }
  - { offset: 0x63542, size: 0x8, addend: 0x0, symName: __ZNSt3__111__wrap_iterIPKiEppB8ne180100Ev, symObjAddr: 0x2D7C0, symBinAddr: 0x10002EE80, symSize: 0x20 }
  - { offset: 0x63568, size: 0x8, addend: 0x0, symName: __ZNKSt3__16vectorIiNS_9allocatorIiEEE11__make_iterB8ne180100EPKi, symObjAddr: 0x2D7E0, symBinAddr: 0x10002EEA0, symSize: 0x30 }
  - { offset: 0x6359D, size: 0x8, addend: 0x0, symName: __ZNSt3__111__wrap_iterIPKiEC1B8ne180100ES2_, symObjAddr: 0x2D810, symBinAddr: 0x10002EED0, symSize: 0x30 }
  - { offset: 0x635D6, size: 0x8, addend: 0x0, symName: __ZNSt3__111__wrap_iterIPKiEC2B8ne180100ES2_, symObjAddr: 0x2D840, symBinAddr: 0x10002EF00, symSize: 0x20 }
  - { offset: 0x6360F, size: 0x8, addend: 0x0, symName: __ZNKSt3__111__wrap_iterIPKiE4baseB8ne180100Ev, symObjAddr: 0x2D8A0, symBinAddr: 0x10002EF60, symSize: 0x20 }
  - { offset: 0x63635, size: 0x8, addend: 0x0, symName: __ZN2ds6BigIntD2Ev, symObjAddr: 0x2D8C0, symBinAddr: 0x10002EF80, symSize: 0x20 }
  - { offset: 0x63661, size: 0x8, addend: 0x0, symName: __ZNSt3__16vectorIiNS_9allocatorIiEEED1B8ne180100Ev, symObjAddr: 0x2D8E0, symBinAddr: 0x10002EFA0, symSize: 0x20 }
  - { offset: 0x6368B, size: 0x8, addend: 0x0, symName: __ZNSt3__16vectorIiNS_9allocatorIiEEED2B8ne180100Ev, symObjAddr: 0x2D900, symBinAddr: 0x10002EFC0, symSize: 0x40 }
  - { offset: 0x636B5, size: 0x8, addend: 0x0, symName: __ZNSt3__16vectorIiNS_9allocatorIiEEE16__destroy_vectorC1B8ne180100ERS3_, symObjAddr: 0x2D940, symBinAddr: 0x10002F000, symSize: 0x30 }
  - { offset: 0x636EE, size: 0x8, addend: 0x0, symName: __ZNSt3__16vectorIiNS_9allocatorIiEEE16__destroy_vectorclB8ne180100Ev, symObjAddr: 0x2D970, symBinAddr: 0x10002F030, symSize: 0x80 }
  - { offset: 0x63714, size: 0x8, addend: 0x0, symName: __ZNSt3__16vectorIiNS_9allocatorIiEEE16__destroy_vectorC2B8ne180100ERS3_, symObjAddr: 0x2D9F0, symBinAddr: 0x10002F0B0, symSize: 0x20 }
  - { offset: 0x6374D, size: 0x8, addend: 0x0, symName: __ZNSt3__16vectorIiNS_9allocatorIiEEE7__clearB8ne180100Ev, symObjAddr: 0x2DA10, symBinAddr: 0x10002F0D0, symSize: 0x20 }
  - { offset: 0x63773, size: 0x8, addend: 0x0, symName: __ZNKSt3__16vectorIiNS_9allocatorIiEEE17__annotate_deleteB8ne180100Ev, symObjAddr: 0x2DA30, symBinAddr: 0x10002F0F0, symSize: 0x10 }
  - { offset: 0x63799, size: 0x8, addend: 0x0, symName: __ZNSt3__116allocator_traitsINS_9allocatorIiEEE10deallocateB8ne180100ERS2_Pim, symObjAddr: 0x2DA40, symBinAddr: 0x10002F100, symSize: 0x30 }
  - { offset: 0x637DB, size: 0x8, addend: 0x0, symName: __ZNSt3__16vectorIiNS_9allocatorIiEEE7__allocB8ne180100Ev, symObjAddr: 0x2DA70, symBinAddr: 0x10002F130, symSize: 0x20 }
  - { offset: 0x63801, size: 0x8, addend: 0x0, symName: __ZNKSt3__16vectorIiNS_9allocatorIiEEE8capacityB8ne180100Ev, symObjAddr: 0x2DA90, symBinAddr: 0x10002F150, symSize: 0x30 }
  - { offset: 0x63827, size: 0x8, addend: 0x0, symName: __ZNSt3__16vectorIiNS_9allocatorIiEEE22__base_destruct_at_endB8ne180100EPi, symObjAddr: 0x2DAC0, symBinAddr: 0x10002F180, symSize: 0x80 }
  - { offset: 0x6386B, size: 0x8, addend: 0x0, symName: __ZNSt3__116allocator_traitsINS_9allocatorIiEEE7destroyB8ne180100IivvEEvRS2_PT_, symObjAddr: 0x2DB40, symBinAddr: 0x10002F200, symSize: 0x20 }
  - { offset: 0x638A5, size: 0x8, addend: 0x0, symName: __ZNSt3__19allocatorIiE10deallocateB8ne180100EPim, symObjAddr: 0x2DB80, symBinAddr: 0x10002F240, symSize: 0x40 }
  - { offset: 0x638E9, size: 0x8, addend: 0x0, symName: __ZNSt3__117__compressed_pairIPiNS_9allocatorIiEEE6secondB8ne180100Ev, symObjAddr: 0x2DBC0, symBinAddr: 0x10002F280, symSize: 0x20 }
  - { offset: 0x6390F, size: 0x8, addend: 0x0, symName: __ZNSt3__122__compressed_pair_elemINS_9allocatorIiEELi1ELb1EE5__getB8ne180100Ev, symObjAddr: 0x2DBE0, symBinAddr: 0x10002F2A0, symSize: 0x10 }
  - { offset: 0x63935, size: 0x8, addend: 0x0, symName: __ZNKSt3__16vectorIiNS_9allocatorIiEEE9__end_capB8ne180100Ev, symObjAddr: 0x2DBF0, symBinAddr: 0x10002F2B0, symSize: 0x20 }
  - { offset: 0x6395B, size: 0x8, addend: 0x0, symName: __ZNKSt3__117__compressed_pairIPiNS_9allocatorIiEEE5firstB8ne180100Ev, symObjAddr: 0x2DC10, symBinAddr: 0x10002F2D0, symSize: 0x20 }
  - { offset: 0x63981, size: 0x8, addend: 0x0, symName: __ZNKSt3__122__compressed_pair_elemIPiLi0ELb0EE5__getB8ne180100Ev, symObjAddr: 0x2DC30, symBinAddr: 0x10002F2F0, symSize: 0x10 }
  - { offset: 0x639A7, size: 0x8, addend: 0x0, symName: __ZNSt3__114basic_iostreamIcNS_11char_traitsIcEEEC2B8ne180100EPNS_15basic_streambufIcS2_EE, symObjAddr: 0x2DC40, symBinAddr: 0x10002F300, symSize: 0xA0 }
  - { offset: 0x639ED, size: 0x8, addend: 0x0, symName: __ZNSt3__115basic_stringbufIcNS_11char_traitsIcEENS_9allocatorIcEEEC1B8ne180100Ej, symObjAddr: 0x2DCE0, symBinAddr: 0x10002F3A0, symSize: 0x30 }
  - { offset: 0x63A26, size: 0x8, addend: 0x0, symName: __ZNSt3__113basic_istreamIcNS_11char_traitsIcEEEC2B8ne180100EPNS_15basic_streambufIcS2_EE, symObjAddr: 0x2DD10, symBinAddr: 0x10002F3D0, symSize: 0x50 }
  - { offset: 0x63A6C, size: 0x8, addend: 0x0, symName: __ZNSt3__113basic_ostreamIcNS_11char_traitsIcEEEC2B8ne180100Ev, symObjAddr: 0x2DD60, symBinAddr: 0x10002F420, symSize: 0x30 }
  - { offset: 0x63AA3, size: 0x8, addend: 0x0, symName: __ZNSt3__115basic_stringbufIcNS_11char_traitsIcEENS_9allocatorIcEEEC2B8ne180100Ej, symObjAddr: 0x2DD90, symBinAddr: 0x10002F450, symSize: 0x50 }
  - { offset: 0x63ADC, size: 0x8, addend: 0x0, symName: __ZNK7doctest6detail15MultiLaneAtomicIiE4loadENSt3__112memory_orderE, symObjAddr: 0x2DDE0, symBinAddr: 0x10002F4A0, symSize: 0x80 }
  - { offset: 0x63B6F, size: 0x8, addend: 0x0, symName: __ZNKSt3__113__atomic_baseIiLb0EE4loadB8ne180100ENS_12memory_orderE, symObjAddr: 0x2DE60, symBinAddr: 0x10002F520, symSize: 0x30 }
  - { offset: 0x63BA4, size: 0x8, addend: 0x0, symName: __ZNSt3__113__atomic_baseIbLb0EE5storeB8ne180100EbNS_12memory_orderE, symObjAddr: 0x2DF00, symBinAddr: 0x10002F5C0, symSize: 0x40 }
  - { offset: 0x63BE8, size: 0x8, addend: 0x0, symName: __ZNSt3__112__hash_tableIyNS_4hashIyEENS_8equal_toIyEENS_9allocatorIyEEE4findIyEENS_15__hash_iteratorIPNS_11__hash_nodeIyPvEEEERKT_, symObjAddr: 0x2DFB0, symBinAddr: 0x10002F670, symSize: 0x180 }
  - { offset: 0x63C72, size: 0x8, addend: 0x0, symName: __ZNSt3__121__hash_const_iteratorIPNS_11__hash_nodeIyPvEEEC1B8ne180100ERKNS_15__hash_iteratorIS4_EE, symObjAddr: 0x2E130, symBinAddr: 0x10002F7F0, symSize: 0x30 }
  - { offset: 0x63CAB, size: 0x8, addend: 0x0, symName: __ZNSt3__112__hash_tableIyNS_4hashIyEENS_8equal_toIyEENS_9allocatorIyEEE13hash_functionB8ne180100Ev, symObjAddr: 0x2E160, symBinAddr: 0x10002F820, symSize: 0x20 }
  - { offset: 0x63CD1, size: 0x8, addend: 0x0, symName: __ZNKSt3__113__scalar_hashIyLm1EEclB8ne180100Ey, symObjAddr: 0x2E180, symBinAddr: 0x10002F840, symSize: 0x20 }
  - { offset: 0x63D37, size: 0x8, addend: 0x0, symName: __ZNKSt3__112__hash_tableIyNS_4hashIyEENS_8equal_toIyEENS_9allocatorIyEEE12bucket_countB8ne180100Ev, symObjAddr: 0x2E1A0, symBinAddr: 0x10002F860, symSize: 0x30 }
  - { offset: 0x63D5D, size: 0x8, addend: 0x0, symName: __ZNKSt3__110unique_ptrIA_PNS_16__hash_node_baseIPNS_11__hash_nodeIyPvEEEENS_25__bucket_list_deallocatorINS_9allocatorIS7_EEEEEixB8ne180100Em, symObjAddr: 0x2E250, symBinAddr: 0x10002F910, symSize: 0x30 }
  - { offset: 0x63D92, size: 0x8, addend: 0x0, symName: __ZNKSt3__116__hash_node_baseIPNS_11__hash_nodeIyPvEEE6__hashB8ne180100Ev, symObjAddr: 0x2E280, symBinAddr: 0x10002F940, symSize: 0x20 }
  - { offset: 0x63DB8, size: 0x8, addend: 0x0, symName: __ZNSt3__112__hash_tableIyNS_4hashIyEENS_8equal_toIyEENS_9allocatorIyEEE6key_eqB8ne180100Ev, symObjAddr: 0x2E2A0, symBinAddr: 0x10002F960, symSize: 0x20 }
  - { offset: 0x63DDE, size: 0x8, addend: 0x0, symName: __ZNKSt3__18equal_toIyEclB8ne180100ERKyS3_, symObjAddr: 0x2E2C0, symBinAddr: 0x10002F980, symSize: 0x30 }
  - { offset: 0x63E22, size: 0x8, addend: 0x0, symName: __ZNSt3__115__hash_iteratorIPNS_11__hash_nodeIyPvEEEC1B8ne180100EPNS_16__hash_node_baseIS4_EE, symObjAddr: 0x2E2F0, symBinAddr: 0x10002F9B0, symSize: 0x30 }
  - { offset: 0x63E5B, size: 0x8, addend: 0x0, symName: __ZNSt3__112__hash_tableIyNS_4hashIyEENS_8equal_toIyEENS_9allocatorIyEEE3endEv, symObjAddr: 0x2E320, symBinAddr: 0x10002F9E0, symSize: 0x30 }
  - { offset: 0x63E83, size: 0x8, addend: 0x0, symName: __ZNSt3__117__compressed_pairImNS_4hashIyEEE6secondB8ne180100Ev, symObjAddr: 0x2E350, symBinAddr: 0x10002FA10, symSize: 0x20 }
  - { offset: 0x63EA9, size: 0x8, addend: 0x0, symName: __ZNSt3__122__compressed_pair_elemINS_4hashIyEELi1ELb1EE5__getB8ne180100Ev, symObjAddr: 0x2E370, symBinAddr: 0x10002FA30, symSize: 0x10 }
  - { offset: 0x63ECF, size: 0x8, addend: 0x0, symName: __ZNKSt3__110unique_ptrIA_PNS_16__hash_node_baseIPNS_11__hash_nodeIyPvEEEENS_25__bucket_list_deallocatorINS_9allocatorIS7_EEEEE11get_deleterB8ne180100Ev, symObjAddr: 0x2E380, symBinAddr: 0x10002FA40, symSize: 0x20 }
  - { offset: 0x63EF5, size: 0x8, addend: 0x0, symName: __ZNKSt3__125__bucket_list_deallocatorINS_9allocatorIPNS_16__hash_node_baseIPNS_11__hash_nodeIyPvEEEEEEE4sizeB8ne180100Ev, symObjAddr: 0x2E3A0, symBinAddr: 0x10002FA60, symSize: 0x20 }
  - { offset: 0x63F1B, size: 0x8, addend: 0x0, symName: __ZNKSt3__117__compressed_pairIPPNS_16__hash_node_baseIPNS_11__hash_nodeIyPvEEEENS_25__bucket_list_deallocatorINS_9allocatorIS7_EEEEE6secondB8ne180100Ev, symObjAddr: 0x2E3C0, symBinAddr: 0x10002FA80, symSize: 0x20 }
  - { offset: 0x63F41, size: 0x8, addend: 0x0, symName: __ZNKSt3__122__compressed_pair_elemINS_25__bucket_list_deallocatorINS_9allocatorIPNS_16__hash_node_baseIPNS_11__hash_nodeIyPvEEEEEEEELi1ELb0EE5__getB8ne180100Ev, symObjAddr: 0x2E3E0, symBinAddr: 0x10002FAA0, symSize: 0x10 }
  - { offset: 0x63F67, size: 0x8, addend: 0x0, symName: __ZNKSt3__117__compressed_pairImNS_9allocatorIPNS_16__hash_node_baseIPNS_11__hash_nodeIyPvEEEEEEE5firstB8ne180100Ev, symObjAddr: 0x2E3F0, symBinAddr: 0x10002FAB0, symSize: 0x20 }
  - { offset: 0x63F8D, size: 0x8, addend: 0x0, symName: __ZNKSt3__117__compressed_pairIPPNS_16__hash_node_baseIPNS_11__hash_nodeIyPvEEEENS_25__bucket_list_deallocatorINS_9allocatorIS7_EEEEE5firstB8ne180100Ev, symObjAddr: 0x2E410, symBinAddr: 0x10002FAD0, symSize: 0x20 }
  - { offset: 0x63FB3, size: 0x8, addend: 0x0, symName: __ZNKSt3__122__compressed_pair_elemIPPNS_16__hash_node_baseIPNS_11__hash_nodeIyPvEEEELi0ELb0EE5__getB8ne180100Ev, symObjAddr: 0x2E430, symBinAddr: 0x10002FAF0, symSize: 0x10 }
  - { offset: 0x63FD9, size: 0x8, addend: 0x0, symName: __ZNSt3__117__compressed_pairIfNS_8equal_toIyEEE6secondB8ne180100Ev, symObjAddr: 0x2E440, symBinAddr: 0x10002FB00, symSize: 0x20 }
  - { offset: 0x63FFF, size: 0x8, addend: 0x0, symName: __ZNSt3__122__compressed_pair_elemINS_8equal_toIyEELi1ELb1EE5__getB8ne180100Ev, symObjAddr: 0x2E460, symBinAddr: 0x10002FB20, symSize: 0x10 }
  - { offset: 0x64025, size: 0x8, addend: 0x0, symName: __ZNSt3__115__hash_iteratorIPNS_11__hash_nodeIyPvEEEC2B8ne180100EPNS_16__hash_node_baseIS4_EE, symObjAddr: 0x2E470, symBinAddr: 0x10002FB30, symSize: 0x20 }
  - { offset: 0x6405E, size: 0x8, addend: 0x0, symName: __ZNSt3__121__hash_const_iteratorIPNS_11__hash_nodeIyPvEEEC2B8ne180100ERKNS_15__hash_iteratorIS4_EE, symObjAddr: 0x2E490, symBinAddr: 0x10002FB50, symSize: 0x20 }
  - { offset: 0x64097, size: 0x8, addend: 0x0, symName: __ZNSt3__112__hash_tableIyNS_4hashIyEENS_8equal_toIyEENS_9allocatorIyEEE15__insert_uniqueB8ne180100EOy, symObjAddr: 0x2E4B0, symBinAddr: 0x10002FB70, symSize: 0x50 }
  - { offset: 0x640CC, size: 0x8, addend: 0x0, symName: __ZNSt3__14pairINS_21__hash_const_iteratorIPNS_11__hash_nodeIyPvEEEEbEC1B8ne180100INS_15__hash_iteratorIS5_EEbLi0EEEONS0_IT_T0_EE, symObjAddr: 0x2E500, symBinAddr: 0x10002FBC0, symSize: 0x30 }
  - { offset: 0x64124, size: 0x8, addend: 0x0, symName: __ZNSt3__112__hash_tableIyNS_4hashIyEENS_8equal_toIyEENS_9allocatorIyEEE25__emplace_unique_key_argsIyJyEEENS_4pairINS_15__hash_iteratorIPNS_11__hash_nodeIyPvEEEEbEERKT_DpOT0_, symObjAddr: 0x2E530, symBinAddr: 0x10002FBF0, symSize: 0x5C0 }
  - { offset: 0x64202, size: 0x8, addend: 0x0, symName: __ZNSt3__122__hash_key_value_typesIyE9__get_keyB8ne180100ERKy, symObjAddr: 0x2EAF0, symBinAddr: 0x1000301B0, symSize: 0x10 }
  - { offset: 0x64226, size: 0x8, addend: 0x0, symName: __ZNSt3__112__hash_tableIyNS_4hashIyEENS_8equal_toIyEENS_9allocatorIyEEE21__construct_node_hashIyJEEENS_10unique_ptrINS_11__hash_nodeIyPvEENS_22__hash_node_destructorINS5_ISC_EEEEEEmOT_DpOT0_, symObjAddr: 0x2EB00, symBinAddr: 0x1000301C0, symSize: 0x140 }
  - { offset: 0x6429A, size: 0x8, addend: 0x0, symName: __ZNSt3__112__hash_tableIyNS_4hashIyEENS_8equal_toIyEENS_9allocatorIyEEE4sizeB8ne180100Ev, symObjAddr: 0x2EC40, symBinAddr: 0x100030300, symSize: 0x20 }
  - { offset: 0x642C0, size: 0x8, addend: 0x0, symName: __ZNSt3__112__hash_tableIyNS_4hashIyEENS_8equal_toIyEENS_9allocatorIyEEE15max_load_factorB8ne180100Ev, symObjAddr: 0x2EC60, symBinAddr: 0x100030320, symSize: 0x20 }
  - { offset: 0x642E6, size: 0x8, addend: 0x0, symName: __ZNSt3__112__hash_tableIyNS_4hashIyEENS_8equal_toIyEENS_9allocatorIyEEE15__rehash_uniqueB8ne180100Em, symObjAddr: 0x2EC80, symBinAddr: 0x100030340, symSize: 0x30 }
  - { offset: 0x6431B, size: 0x8, addend: 0x0, symName: __ZNSt3__116__hash_node_baseIPNS_11__hash_nodeIyPvEEE5__ptrB8ne180100Ev, symObjAddr: 0x2ED10, symBinAddr: 0x1000303D0, symSize: 0x20 }
  - { offset: 0x64341, size: 0x8, addend: 0x0, symName: __ZNKSt3__110unique_ptrINS_11__hash_nodeIyPvEENS_22__hash_node_destructorINS_9allocatorIS3_EEEEEptB8ne180100Ev, symObjAddr: 0x2ED30, symBinAddr: 0x1000303F0, symSize: 0x20 }
  - { offset: 0x64367, size: 0x8, addend: 0x0, symName: __ZNKSt3__110unique_ptrINS_11__hash_nodeIyPvEENS_22__hash_node_destructorINS_9allocatorIS3_EEEEE3getB8ne180100Ev, symObjAddr: 0x2ED50, symBinAddr: 0x100030410, symSize: 0x20 }
  - { offset: 0x6438D, size: 0x8, addend: 0x0, symName: __ZNSt3__110unique_ptrINS_11__hash_nodeIyPvEENS_22__hash_node_destructorINS_9allocatorIS3_EEEEE7releaseB8ne180100Ev, symObjAddr: 0x2ED70, symBinAddr: 0x100030430, symSize: 0x40 }
  - { offset: 0x643C2, size: 0x8, addend: 0x0, symName: __ZNSt3__110unique_ptrINS_11__hash_nodeIyPvEENS_22__hash_node_destructorINS_9allocatorIS3_EEEEED1B8ne180100Ev, symObjAddr: 0x2EDB0, symBinAddr: 0x100030470, symSize: 0x20 }
  - { offset: 0x643F2, size: 0x8, addend: 0x0, symName: __ZNSt3__14pairINS_15__hash_iteratorIPNS_11__hash_nodeIyPvEEEEbEC1B8ne180100IS6_RbLi0EEEOT_OT0_, symObjAddr: 0x2EDD0, symBinAddr: 0x100030490, symSize: 0x30 }
  - { offset: 0x64453, size: 0x8, addend: 0x0, symName: __ZNSt3__116allocator_traitsINS_9allocatorINS_11__hash_nodeIyPvEEEEE8allocateB8ne180100ERS5_m, symObjAddr: 0x2EE00, symBinAddr: 0x1000304C0, symSize: 0x30 }
  - { offset: 0x64486, size: 0x8, addend: 0x0, symName: __ZNSt3__122__hash_node_destructorINS_9allocatorINS_11__hash_nodeIyPvEEEEEC1B8ne180100ERS5_b, symObjAddr: 0x2EE30, symBinAddr: 0x1000304F0, symSize: 0x40 }
  - { offset: 0x644D4, size: 0x8, addend: 0x0, symName: __ZNSt3__110unique_ptrINS_11__hash_nodeIyPvEENS_22__hash_node_destructorINS_9allocatorIS3_EEEEEC1B8ne180100ILb1EvEEPS3_NS_16__dependent_typeINS_27__unique_ptr_deleter_sfinaeIS7_EEXT_EE20__good_rval_ref_typeE, symObjAddr: 0x2EE70, symBinAddr: 0x100030530, symSize: 0x30 }
  - { offset: 0x64527, size: 0x8, addend: 0x0, symName: __ZNKSt3__110unique_ptrINS_11__hash_nodeIyPvEENS_22__hash_node_destructorINS_9allocatorIS3_EEEEEdeB8ne180100Ev, symObjAddr: 0x2EED0, symBinAddr: 0x100030590, symSize: 0x20 }
  - { offset: 0x6454D, size: 0x8, addend: 0x0, symName: __ZNSt3__116allocator_traitsINS_9allocatorINS_11__hash_nodeIyPvEEEEE9constructB8ne180100IyJyEvvEEvRS5_PT_DpOT0_, symObjAddr: 0x2EEF0, symBinAddr: 0x1000305B0, symSize: 0x30 }
  - { offset: 0x645A1, size: 0x8, addend: 0x0, symName: __ZNSt3__110unique_ptrINS_11__hash_nodeIyPvEENS_22__hash_node_destructorINS_9allocatorIS3_EEEEE11get_deleterB8ne180100Ev, symObjAddr: 0x2EF20, symBinAddr: 0x1000305E0, symSize: 0x20 }
  - { offset: 0x645C7, size: 0x8, addend: 0x0, symName: __ZNSt3__19allocatorINS_11__hash_nodeIyPvEEE8allocateB8ne180100Em, symObjAddr: 0x2EF40, symBinAddr: 0x100030600, symSize: 0x50 }
  - { offset: 0x64607, size: 0x8, addend: 0x0, symName: __ZNSt3__116allocator_traitsINS_9allocatorINS_11__hash_nodeIyPvEEEEE8max_sizeB8ne180100IS5_vvEEmRKS5_, symObjAddr: 0x2EF90, symBinAddr: 0x100030650, symSize: 0x30 }
  - { offset: 0x64632, size: 0x8, addend: 0x0, symName: __ZNSt3__122__hash_node_destructorINS_9allocatorINS_11__hash_nodeIyPvEEEEEC2B8ne180100ERS5_b, symObjAddr: 0x2EFC0, symBinAddr: 0x100030680, symSize: 0x30 }
  - { offset: 0x6467A, size: 0x8, addend: 0x0, symName: __ZNSt3__110unique_ptrINS_11__hash_nodeIyPvEENS_22__hash_node_destructorINS_9allocatorIS3_EEEEEC2B8ne180100ILb1EvEEPS3_NS_16__dependent_typeINS_27__unique_ptr_deleter_sfinaeIS7_EEXT_EE20__good_rval_ref_typeE, symObjAddr: 0x2EFF0, symBinAddr: 0x1000306B0, symSize: 0x40 }
  - { offset: 0x646CD, size: 0x8, addend: 0x0, symName: __ZNSt3__117__compressed_pairIPNS_11__hash_nodeIyPvEENS_22__hash_node_destructorINS_9allocatorIS3_EEEEEC1B8ne180100IRS4_S8_EEOT_OT0_, symObjAddr: 0x2F030, symBinAddr: 0x1000306F0, symSize: 0x30 }
  - { offset: 0x64727, size: 0x8, addend: 0x0, symName: __ZNSt3__117__compressed_pairIPNS_11__hash_nodeIyPvEENS_22__hash_node_destructorINS_9allocatorIS3_EEEEEC2B8ne180100IRS4_S8_EEOT_OT0_, symObjAddr: 0x2F060, symBinAddr: 0x100030720, symSize: 0x40 }
  - { offset: 0x64781, size: 0x8, addend: 0x0, symName: __ZNSt3__122__compressed_pair_elemIPNS_11__hash_nodeIyPvEELi0ELb0EEC2B8ne180100IRS4_vEEOT_, symObjAddr: 0x2F0A0, symBinAddr: 0x100030760, symSize: 0x20 }
  - { offset: 0x647C4, size: 0x8, addend: 0x0, symName: __ZNSt3__122__compressed_pair_elemINS_22__hash_node_destructorINS_9allocatorINS_11__hash_nodeIyPvEEEEEELi1ELb0EEC2B8ne180100IS7_vEEOT_, symObjAddr: 0x2F0C0, symBinAddr: 0x100030780, symSize: 0x30 }
  - { offset: 0x64807, size: 0x8, addend: 0x0, symName: __ZNSt3__111__hash_nodeIyPvEC1B8ne180100EPNS_16__hash_node_baseIPS2_EEm, symObjAddr: 0x2F130, symBinAddr: 0x1000307F0, symSize: 0x30 }
  - { offset: 0x6484F, size: 0x8, addend: 0x0, symName: __ZNSt3__111__hash_nodeIyPvEC2B8ne180100EPNS_16__hash_node_baseIPS2_EEm, symObjAddr: 0x2F160, symBinAddr: 0x100030820, symSize: 0x40 }
  - { offset: 0x64897, size: 0x8, addend: 0x0, symName: __ZNSt3__116__hash_node_baseIPNS_11__hash_nodeIyPvEEEC2B8ne180100EPS5_, symObjAddr: 0x2F1A0, symBinAddr: 0x100030860, symSize: 0x20 }
  - { offset: 0x648D0, size: 0x8, addend: 0x0, symName: __ZNKSt3__117__compressed_pairIPNS_11__hash_nodeIyPvEENS_22__hash_node_destructorINS_9allocatorIS3_EEEEE5firstB8ne180100Ev, symObjAddr: 0x2F1C0, symBinAddr: 0x100030880, symSize: 0x20 }
  - { offset: 0x648F6, size: 0x8, addend: 0x0, symName: __ZNKSt3__122__compressed_pair_elemIPNS_11__hash_nodeIyPvEELi0ELb0EE5__getB8ne180100Ev, symObjAddr: 0x2F1E0, symBinAddr: 0x1000308A0, symSize: 0x10 }
  - { offset: 0x6491C, size: 0x8, addend: 0x0, symName: __ZNSt3__117__compressed_pairIPNS_11__hash_nodeIyPvEENS_22__hash_node_destructorINS_9allocatorIS3_EEEEE6secondB8ne180100Ev, symObjAddr: 0x2F240, symBinAddr: 0x100030900, symSize: 0x20 }
  - { offset: 0x64942, size: 0x8, addend: 0x0, symName: __ZNSt3__122__compressed_pair_elemINS_22__hash_node_destructorINS_9allocatorINS_11__hash_nodeIyPvEEEEEELi1ELb0EE5__getB8ne180100Ev, symObjAddr: 0x2F260, symBinAddr: 0x100030920, symSize: 0x10 }
  - { offset: 0x64968, size: 0x8, addend: 0x0, symName: __ZNSt3__117__compressed_pairImNS_4hashIyEEE5firstB8ne180100Ev, symObjAddr: 0x2F270, symBinAddr: 0x100030930, symSize: 0x20 }
  - { offset: 0x6498E, size: 0x8, addend: 0x0, symName: __ZNSt3__117__compressed_pairIfNS_8equal_toIyEEE5firstB8ne180100Ev, symObjAddr: 0x2F290, symBinAddr: 0x100030950, symSize: 0x20 }
  - { offset: 0x649B4, size: 0x8, addend: 0x0, symName: __ZNSt3__122__compressed_pair_elemIfLi0ELb0EE5__getB8ne180100Ev, symObjAddr: 0x2F2B0, symBinAddr: 0x100030970, symSize: 0x10 }
  - { offset: 0x649DA, size: 0x8, addend: 0x0, symName: __ZNSt3__112__hash_tableIyNS_4hashIyEENS_8equal_toIyEENS_9allocatorIyEEE8__rehashILb1EEEvm, symObjAddr: 0x2F2C0, symBinAddr: 0x100030980, symSize: 0x230 }
  - { offset: 0x64A2A, size: 0x8, addend: 0x0, symName: __ZNSt3__112__hash_tableIyNS_4hashIyEENS_8equal_toIyEENS_9allocatorIyEEE11__do_rehashILb1EEEvm, symObjAddr: 0x2F4F0, symBinAddr: 0x100030BB0, symSize: 0x250 }
  - { offset: 0x64B0D, size: 0x8, addend: 0x0, symName: __ZNSt3__110unique_ptrIA_PNS_16__hash_node_baseIPNS_11__hash_nodeIyPvEEEENS_25__bucket_list_deallocatorINS_9allocatorIS7_EEEEE11get_deleterB8ne180100Ev, symObjAddr: 0x2F7A0, symBinAddr: 0x100030E60, symSize: 0x20 }
  - { offset: 0x64B33, size: 0x8, addend: 0x0, symName: __ZNSt3__110unique_ptrIA_PNS_16__hash_node_baseIPNS_11__hash_nodeIyPvEEEENS_25__bucket_list_deallocatorINS_9allocatorIS7_EEEEE5resetB8ne180100IPS7_Li0EEEvT_, symObjAddr: 0x2F7C0, symBinAddr: 0x100030E80, symSize: 0x70 }
  - { offset: 0x64B87, size: 0x8, addend: 0x0, symName: __ZNSt3__116allocator_traitsINS_9allocatorIPNS_16__hash_node_baseIPNS_11__hash_nodeIyPvEEEEEEE8allocateB8ne180100ERS9_m, symObjAddr: 0x2F830, symBinAddr: 0x100030EF0, symSize: 0x30 }
  - { offset: 0x64BBA, size: 0x8, addend: 0x0, symName: __ZNSt3__19allocatorIPNS_16__hash_node_baseIPNS_11__hash_nodeIyPvEEEEE8allocateB8ne180100Em, symObjAddr: 0x2F860, symBinAddr: 0x100030F20, symSize: 0x50 }
  - { offset: 0x64BFA, size: 0x8, addend: 0x0, symName: __ZNSt3__116allocator_traitsINS_9allocatorIPNS_16__hash_node_baseIPNS_11__hash_nodeIyPvEEEEEEE8max_sizeB8ne180100IS9_vvEEmRKS9_, symObjAddr: 0x2F8B0, symBinAddr: 0x100030F70, symSize: 0x20 }
  - { offset: 0x64C25, size: 0x8, addend: 0x0, symName: __ZNSt3__117__compressed_pairIPNS_11__hash_nodeIyPvEENS_22__hash_node_destructorINS_9allocatorIS3_EEEEE5firstB8ne180100Ev, symObjAddr: 0x2F8D0, symBinAddr: 0x100030F90, symSize: 0x20 }
  - { offset: 0x64C4B, size: 0x8, addend: 0x0, symName: __ZNSt3__122__compressed_pair_elemIPNS_11__hash_nodeIyPvEELi0ELb0EE5__getB8ne180100Ev, symObjAddr: 0x2F8F0, symBinAddr: 0x100030FB0, symSize: 0x10 }
  - { offset: 0x64C71, size: 0x8, addend: 0x0, symName: __ZNSt3__110unique_ptrINS_11__hash_nodeIyPvEENS_22__hash_node_destructorINS_9allocatorIS3_EEEEED2B8ne180100Ev, symObjAddr: 0x2F900, symBinAddr: 0x100030FC0, symSize: 0x20 }
  - { offset: 0x64C9B, size: 0x8, addend: 0x0, symName: __ZNSt3__110unique_ptrINS_11__hash_nodeIyPvEENS_22__hash_node_destructorINS_9allocatorIS3_EEEEE5resetB8ne180100EPS3_, symObjAddr: 0x2F920, symBinAddr: 0x100030FE0, symSize: 0x70 }
  - { offset: 0x64CDF, size: 0x8, addend: 0x0, symName: __ZNSt3__122__hash_node_destructorINS_9allocatorINS_11__hash_nodeIyPvEEEEEclB8ne180100EPS4_, symObjAddr: 0x2F990, symBinAddr: 0x100031050, symSize: 0x90 }
  - { offset: 0x64D14, size: 0x8, addend: 0x0, symName: __ZNSt3__14pairINS_15__hash_iteratorIPNS_11__hash_nodeIyPvEEEEbEC2B8ne180100IS6_RbLi0EEEOT_OT0_, symObjAddr: 0x2FA20, symBinAddr: 0x1000310E0, symSize: 0x30 }
